---
triple:          'arm64-apple-darwin'
binary-path:     '/Users/lucasinglese/Desktop/Oryon/target/debug/deps/lib_oryon.dylib'
relocations:
  - { offset: 0x1E, size: 0x8, addend: 0x0, symName: '__ZN103_$LT$pyo3..instance..Bound$LT$pyo3..types..any..PyAny$GT$$u20$as$u20$pyo3..types..any..PyAnyMethods$GT$7is_none17h6ed98ea4471e80aeE', symObjAddr: 0x0, symBinAddr: 0x888, symSize: 0x44 }
  - { offset: 0x17A6, size: 0x8, addend: 0x0, symName: '__ZN103_$LT$pyo3..instance..Bound$LT$pyo3..types..any..PyAny$GT$$u20$as$u20$pyo3..types..any..PyAnyMethods$GT$7is_none17h6ed98ea4471e80aeE', symObjAddr: 0x0, symBinAddr: 0x888, symSize: 0x44 }
  - { offset: 0x17F5, size: 0x8, addend: 0x0, symName: '__ZN119_$LT$pyo3..instance..Bound$LT$pyo3..types..typeobject..PyType$GT$$u20$as$u20$pyo3..types..typeobject..PyTypeMethods$GT$11as_type_ptr17h050452bb0a455855E', symObjAddr: 0x44, symBinAddr: 0x8CC, symSize: 0x24 }
  - { offset: 0x1842, size: 0x8, addend: 0x0, symName: '__ZN123_$LT$pyo3..instance..Bound$LT$pyo3..types..sequence..PySequence$GT$$u20$as$u20$pyo3..types..sequence..PySequenceMethods$GT$3len17h2c8053c002738fa3E', symObjAddr: 0x68, symBinAddr: 0x8F0, symSize: 0xD4 }
  - { offset: 0x18CC, size: 0x8, addend: 0x0, symName: '__ZN4pyo35types8iterator131_$LT$impl$u20$core..iter..traits..iterator..Iterator$u20$for$u20$pyo3..instance..Bound$LT$pyo3..types..iterator..PyIterator$GT$$GT$4next17h64b0f8bdf8dbe19aE', symObjAddr: 0x13C, symBinAddr: 0x9C4, symSize: 0x30 }
  - { offset: 0x218D, size: 0x8, addend: 0x0, symName: '__ZN4pyo38instance36Bound$LT$pyo3..types..any..PyAny$GT$14from_owned_ptr17ha2c31b690e140815E', symObjAddr: 0x16C, symBinAddr: 0x9F4, symSize: 0x2C }
  - { offset: 0x21D5, size: 0x8, addend: 0x0, symName: '__ZN4pyo38instance39Borrowed$LT$pyo3..types..any..PyAny$GT$15from_ptr_or_opt17h40705f0c558b213dE', symObjAddr: 0x198, symBinAddr: 0xA20, symSize: 0x2C }
  - { offset: 0x2213, size: 0x8, addend: 0x0, symName: '__ZN4pyo38instance39Borrowed$LT$pyo3..types..any..PyAny$GT$18from_ptr_unchecked17h0b7c24f3f2837b3aE', symObjAddr: 0x1C4, symBinAddr: 0xA4C, symSize: 0x2C }
  - { offset: 0x2251, size: 0x8, addend: 0x0, symName: '__ZN4pyo38instance39Borrowed$LT$pyo3..types..any..PyAny$GT$8from_ptr17h8d874848929c6474E', symObjAddr: 0x1F0, symBinAddr: 0xA78, symSize: 0x34 }
  - { offset: 0x24EE, size: 0x8, addend: 0x0, symName: '__ZN47_$LT$T$u20$as$u20$pyo3..err..PyErrArguments$GT$9arguments17h620acfab944be4c0E', symObjAddr: 0x0, symBinAddr: 0xAAC, symSize: 0x34 }
  - { offset: 0x258F, size: 0x8, addend: 0x0, symName: '__ZN4pyo33err5PyErr3new28_$u7b$$u7b$closure$u7d$$u7d$17h138cdff915d82d0fE', symObjAddr: 0x3BC, symBinAddr: 0xE68, symSize: 0xB0 }
  - { offset: 0x25E7, size: 0x8, addend: 0x0, symName: '__ZN4pyo33err5PyErr3new28_$u7b$$u7b$closure$u7d$$u7d$17h295e965157851c21E', symObjAddr: 0x46C, symBinAddr: 0xF18, symSize: 0xD4 }
  - { offset: 0x2640, size: 0x8, addend: 0x0, symName: '__ZN4pyo33err5PyErr3new28_$u7b$$u7b$closure$u7d$$u7d$17h3070cece63131a50E', symObjAddr: 0x540, symBinAddr: 0xFEC, symSize: 0xD4 }
  - { offset: 0x2699, size: 0x8, addend: 0x0, symName: '__ZN4pyo33err5PyErr3new28_$u7b$$u7b$closure$u7d$$u7d$17ha23bff36c2cfb289E', symObjAddr: 0x614, symBinAddr: 0x10C0, symSize: 0xD4 }
  - { offset: 0x26F2, size: 0x8, addend: 0x0, symName: '__ZN4pyo33err5PyErr3new28_$u7b$$u7b$closure$u7d$$u7d$17hb2026f7b1df15e7bE', symObjAddr: 0x6E8, symBinAddr: 0x1194, symSize: 0xC0 }
  - { offset: 0x274A, size: 0x8, addend: 0x0, symName: '__ZN4pyo33err5PyErr3new28_$u7b$$u7b$closure$u7d$$u7d$17hdde5d2e7db07b469E', symObjAddr: 0x7A8, symBinAddr: 0x1254, symSize: 0xD4 }
  - { offset: 0x27AA, size: 0x8, addend: 0x0, symName: '__ZN47_$LT$T$u20$as$u20$pyo3..err..PyErrArguments$GT$9arguments17h620acfab944be4c0E', symObjAddr: 0x0, symBinAddr: 0xAAC, symSize: 0x34 }
  - { offset: 0x488A, size: 0x8, addend: 0x0, symName: __ZN4pyo33err5PyErr3new17h00c8231d53fa7c5dE, symObjAddr: 0x34, symBinAddr: 0xAE0, symSize: 0x9C }
  - { offset: 0x48E8, size: 0x8, addend: 0x0, symName: __ZN4pyo33err5PyErr3new17h28588ccfd1cfdf18E, symObjAddr: 0xD0, symBinAddr: 0xB7C, symSize: 0xA0 }
  - { offset: 0x4947, size: 0x8, addend: 0x0, symName: __ZN4pyo33err5PyErr3new17h5c7b9951dee5b0beE, symObjAddr: 0x170, symBinAddr: 0xC1C, symSize: 0xA0 }
  - { offset: 0x49A6, size: 0x8, addend: 0x0, symName: __ZN4pyo33err5PyErr3new17h6535b77c428111ebE, symObjAddr: 0x210, symBinAddr: 0xCBC, symSize: 0xA0 }
  - { offset: 0x4A05, size: 0x8, addend: 0x0, symName: __ZN4pyo33err5PyErr3new17hdbc825a702286e00E, symObjAddr: 0x2B0, symBinAddr: 0xD5C, symSize: 0x6C }
  - { offset: 0x4A5A, size: 0x8, addend: 0x0, symName: __ZN4pyo33err5PyErr3new17hff6ba11373b608b2E, symObjAddr: 0x31C, symBinAddr: 0xDC8, symSize: 0xA0 }
  - { offset: 0x4B02, size: 0x8, addend: 0x0, symName: '__ZN103_$LT$alloc..vec..into_iter..IntoIter$LT$T$C$A$GT$$u20$as$u20$core..iter..traits..iterator..Iterator$GT$4next17hb56ac6f74f6321cbE', symObjAddr: 0x0, symBinAddr: 0x1328, symSize: 0xAC }
  - { offset: 0x6B0A, size: 0x8, addend: 0x0, symName: __ZN4core4iter6traits10exact_size17ExactSizeIterator3len17h34daf7ee990e7ea6E, symObjAddr: 0x76C, symBinAddr: 0x1A94, symSize: 0xB8 }
  - { offset: 0x6BD6, size: 0x8, addend: 0x0, symName: __ZN4core4iter6traits10exact_size17ExactSizeIterator3len17ha2a1780109ad6fc4E, symObjAddr: 0x824, symBinAddr: 0x1B4C, symSize: 0xB8 }
  - { offset: 0x6CA2, size: 0x8, addend: 0x0, symName: __ZN4core4iter6traits10exact_size17ExactSizeIterator3len17hec5738115ece455bE, symObjAddr: 0x8DC, symBinAddr: 0x1C04, symSize: 0xB8 }
  - { offset: 0x6E98, size: 0x8, addend: 0x0, symName: __ZN4core4iter6traits8iterator8Iterator3map17h3b3ff50ae5e04bd8E, symObjAddr: 0x994, symBinAddr: 0x1CBC, symSize: 0x28 }
  - { offset: 0x6F05, size: 0x8, addend: 0x0, symName: __ZN4core4iter6traits8iterator8Iterator3map17hb512d6d0174a6bb2E, symObjAddr: 0x9BC, symBinAddr: 0x1CE4, symSize: 0x28 }
  - { offset: 0x6F72, size: 0x8, addend: 0x0, symName: __ZN4core4iter6traits8iterator8Iterator3map17hea094883c4dcfad1E, symObjAddr: 0x9E4, symBinAddr: 0x1D0C, symSize: 0x28 }
  - { offset: 0x757D, size: 0x8, addend: 0x0, symName: '__ZN103_$LT$alloc..vec..into_iter..IntoIter$LT$T$C$A$GT$$u20$as$u20$core..iter..traits..iterator..Iterator$GT$4next17hb56ac6f74f6321cbE', symObjAddr: 0x0, symBinAddr: 0x1328, symSize: 0xAC }
  - { offset: 0x76DB, size: 0x8, addend: 0x0, symName: '__ZN103_$LT$alloc..vec..into_iter..IntoIter$LT$T$C$A$GT$$u20$as$u20$core..iter..traits..iterator..Iterator$GT$4next17he6546177168a7bd8E', symObjAddr: 0xAC, symBinAddr: 0x13D4, symSize: 0x94 }
  - { offset: 0x7835, size: 0x8, addend: 0x0, symName: '__ZN103_$LT$alloc..vec..into_iter..IntoIter$LT$T$C$A$GT$$u20$as$u20$core..iter..traits..iterator..Iterator$GT$8try_fold17h752fe416b38d3d86E', symObjAddr: 0x140, symBinAddr: 0x1468, symSize: 0x1A4 }
  - { offset: 0x7A15, size: 0x8, addend: 0x0, symName: '__ZN103_$LT$alloc..vec..into_iter..IntoIter$LT$T$C$A$GT$$u20$as$u20$core..iter..traits..iterator..Iterator$GT$8try_fold17hd339f3069f9bb235E', symObjAddr: 0x2E4, symBinAddr: 0x160C, symSize: 0x1A4 }
  - { offset: 0x7BF5, size: 0x8, addend: 0x0, symName: '__ZN103_$LT$alloc..vec..into_iter..IntoIter$LT$T$C$A$GT$$u20$as$u20$core..iter..traits..iterator..Iterator$GT$8try_fold17he92f6198404b03b9E', symObjAddr: 0x488, symBinAddr: 0x17B0, symSize: 0x17C }
  - { offset: 0x7DD5, size: 0x8, addend: 0x0, symName: '__ZN103_$LT$alloc..vec..into_iter..IntoIter$LT$T$C$A$GT$$u20$as$u20$core..iter..traits..iterator..Iterator$GT$9size_hint17h446ed515728dfb77E', symObjAddr: 0x604, symBinAddr: 0x192C, symSize: 0xB4 }
  - { offset: 0x7EEE, size: 0x8, addend: 0x0, symName: '__ZN103_$LT$alloc..vec..into_iter..IntoIter$LT$T$C$A$GT$$u20$as$u20$core..iter..traits..iterator..Iterator$GT$9size_hint17ha04f1d3feb5c56d0E', symObjAddr: 0x6B8, symBinAddr: 0x19E0, symSize: 0xB4 }
  - { offset: 0x88A4, size: 0x8, addend: 0x0, symName: '__ZN5alloc3vec9into_iter21IntoIter$LT$T$C$A$GT$16as_raw_mut_slice17h3867acde2a45545aE', symObjAddr: 0xA0C, symBinAddr: 0x1D34, symSize: 0xCC }
  - { offset: 0x89F4, size: 0x8, addend: 0x0, symName: '__ZN5alloc3vec9into_iter21IntoIter$LT$T$C$A$GT$16as_raw_mut_slice17hfd9a63334980b608E', symObjAddr: 0xAD8, symBinAddr: 0x1E00, symSize: 0xCC }
  - { offset: 0x91E7, size: 0x8, addend: 0x0, symName: __ZN4core9ub_checks23maybe_is_nonoverlapping7runtime17hcbc80933e86b987cE, symObjAddr: 0x0, symBinAddr: 0x1ECC, symSize: 0xD8 }
  - { offset: 0x936C, size: 0x8, addend: 0x0, symName: __ZN4core9ub_checks23maybe_is_nonoverlapping7runtime17hcbc80933e86b987cE, symObjAddr: 0x0, symBinAddr: 0x1ECC, symSize: 0xD8 }
  - { offset: 0x957F, size: 0x8, addend: 0x0, symName: '__ZN4pyo35impl_7pyclass16lazy_type_object23LazyTypeObject$LT$T$GT$11get_or_init17h2261ec66546a1d1bE', symObjAddr: 0x0, symBinAddr: 0x1FA4, symSize: 0x40 }
  - { offset: 0xBF25, size: 0x8, addend: 0x0, symName: '__ZN4pyo35impl_7pyclass16lazy_type_object23LazyTypeObject$LT$T$GT$11get_or_init28_$u7b$$u7b$closure$u7d$$u7d$17h07a8b66c7e3a788eE', symObjAddr: 0x540, symBinAddr: 0x24E4, symSize: 0xA8 }
  - { offset: 0xBFAE, size: 0x8, addend: 0x0, symName: '__ZN4pyo35impl_7pyclass16lazy_type_object23LazyTypeObject$LT$T$GT$11get_or_init28_$u7b$$u7b$closure$u7d$$u7d$17h0950e1a3911b9abdE', symObjAddr: 0x5E8, symBinAddr: 0x258C, symSize: 0xA8 }
  - { offset: 0xC037, size: 0x8, addend: 0x0, symName: '__ZN4pyo35impl_7pyclass16lazy_type_object23LazyTypeObject$LT$T$GT$11get_or_init28_$u7b$$u7b$closure$u7d$$u7d$17h160ea8027573cafbE', symObjAddr: 0x690, symBinAddr: 0x2634, symSize: 0xA8 }
  - { offset: 0xC0C0, size: 0x8, addend: 0x0, symName: '__ZN4pyo35impl_7pyclass16lazy_type_object23LazyTypeObject$LT$T$GT$11get_or_init28_$u7b$$u7b$closure$u7d$$u7d$17h4e67fb0283c631d1E', symObjAddr: 0x738, symBinAddr: 0x26DC, symSize: 0xA8 }
  - { offset: 0xC149, size: 0x8, addend: 0x0, symName: '__ZN4pyo35impl_7pyclass16lazy_type_object23LazyTypeObject$LT$T$GT$11get_or_init28_$u7b$$u7b$closure$u7d$$u7d$17h542314140fe19b0cE', symObjAddr: 0x7E0, symBinAddr: 0x2784, symSize: 0xA8 }
  - { offset: 0xC1D2, size: 0x8, addend: 0x0, symName: '__ZN4pyo35impl_7pyclass16lazy_type_object23LazyTypeObject$LT$T$GT$11get_or_init28_$u7b$$u7b$closure$u7d$$u7d$17h706a2000e2aa9828E', symObjAddr: 0x888, symBinAddr: 0x282C, symSize: 0xA8 }
  - { offset: 0xC25B, size: 0x8, addend: 0x0, symName: '__ZN4pyo35impl_7pyclass16lazy_type_object23LazyTypeObject$LT$T$GT$11get_or_init28_$u7b$$u7b$closure$u7d$$u7d$17h7143fd5c267fb182E', symObjAddr: 0x930, symBinAddr: 0x28D4, symSize: 0xA8 }
  - { offset: 0xC2E4, size: 0x8, addend: 0x0, symName: '__ZN4pyo35impl_7pyclass16lazy_type_object23LazyTypeObject$LT$T$GT$11get_or_init28_$u7b$$u7b$closure$u7d$$u7d$17h76616afa7d464925E', symObjAddr: 0x9D8, symBinAddr: 0x297C, symSize: 0xA8 }
  - { offset: 0xC36D, size: 0x8, addend: 0x0, symName: '__ZN4pyo35impl_7pyclass16lazy_type_object23LazyTypeObject$LT$T$GT$11get_or_init28_$u7b$$u7b$closure$u7d$$u7d$17h7bee454ff5d2780cE', symObjAddr: 0xA80, symBinAddr: 0x2A24, symSize: 0xA8 }
  - { offset: 0xC3F6, size: 0x8, addend: 0x0, symName: '__ZN4pyo35impl_7pyclass16lazy_type_object23LazyTypeObject$LT$T$GT$11get_or_init28_$u7b$$u7b$closure$u7d$$u7d$17h858ba3500145b858E', symObjAddr: 0xB28, symBinAddr: 0x2ACC, symSize: 0xA8 }
  - { offset: 0xC47F, size: 0x8, addend: 0x0, symName: '__ZN4pyo35impl_7pyclass16lazy_type_object23LazyTypeObject$LT$T$GT$11get_or_init28_$u7b$$u7b$closure$u7d$$u7d$17ha70d0041b17f9da8E', symObjAddr: 0xBD0, symBinAddr: 0x2B74, symSize: 0xA8 }
  - { offset: 0xC508, size: 0x8, addend: 0x0, symName: '__ZN4pyo35impl_7pyclass16lazy_type_object23LazyTypeObject$LT$T$GT$11get_or_init28_$u7b$$u7b$closure$u7d$$u7d$17ha765d19cadac85ebE', symObjAddr: 0xC78, symBinAddr: 0x2C1C, symSize: 0xA8 }
  - { offset: 0xC591, size: 0x8, addend: 0x0, symName: '__ZN4pyo35impl_7pyclass16lazy_type_object23LazyTypeObject$LT$T$GT$11get_or_init28_$u7b$$u7b$closure$u7d$$u7d$17hc30f04828f4b2b7dE', symObjAddr: 0xD20, symBinAddr: 0x2CC4, symSize: 0xA8 }
  - { offset: 0xC61A, size: 0x8, addend: 0x0, symName: '__ZN4pyo35impl_7pyclass16lazy_type_object23LazyTypeObject$LT$T$GT$11get_or_init28_$u7b$$u7b$closure$u7d$$u7d$17hcce8df198cb05097E', symObjAddr: 0xDC8, symBinAddr: 0x2D6C, symSize: 0xA8 }
  - { offset: 0xC6A3, size: 0x8, addend: 0x0, symName: '__ZN4pyo35impl_7pyclass16lazy_type_object23LazyTypeObject$LT$T$GT$11get_or_init28_$u7b$$u7b$closure$u7d$$u7d$17hce2142182962b7a0E', symObjAddr: 0xE70, symBinAddr: 0x2E14, symSize: 0xA8 }
  - { offset: 0xC72C, size: 0x8, addend: 0x0, symName: '__ZN4pyo35impl_7pyclass16lazy_type_object23LazyTypeObject$LT$T$GT$11get_or_init28_$u7b$$u7b$closure$u7d$$u7d$17hd307dd65b767c24dE', symObjAddr: 0xF18, symBinAddr: 0x2EBC, symSize: 0xA8 }
  - { offset: 0xC7B5, size: 0x8, addend: 0x0, symName: '__ZN4pyo35impl_7pyclass16lazy_type_object23LazyTypeObject$LT$T$GT$11get_or_init28_$u7b$$u7b$closure$u7d$$u7d$17he6885a4d93462a32E', symObjAddr: 0xFC0, symBinAddr: 0x2F64, symSize: 0xA8 }
  - { offset: 0xC83E, size: 0x8, addend: 0x0, symName: '__ZN4pyo35impl_7pyclass16lazy_type_object23LazyTypeObject$LT$T$GT$11get_or_init28_$u7b$$u7b$closure$u7d$$u7d$17hef95b00b6590a2c2E', symObjAddr: 0x1068, symBinAddr: 0x300C, symSize: 0xA8 }
  - { offset: 0xC8C7, size: 0x8, addend: 0x0, symName: '__ZN4pyo35impl_7pyclass16lazy_type_object23LazyTypeObject$LT$T$GT$11get_or_init28_$u7b$$u7b$closure$u7d$$u7d$17hf555d9ba1350c7d0E', symObjAddr: 0x1110, symBinAddr: 0x30B4, symSize: 0xA8 }
  - { offset: 0xC950, size: 0x8, addend: 0x0, symName: '__ZN4pyo35impl_7pyclass16lazy_type_object23LazyTypeObject$LT$T$GT$11get_or_init28_$u7b$$u7b$closure$u7d$$u7d$17hf5ebcd096e8e381cE', symObjAddr: 0x11B8, symBinAddr: 0x315C, symSize: 0xA8 }
  - { offset: 0xC9D9, size: 0x8, addend: 0x0, symName: '__ZN4pyo35impl_7pyclass16lazy_type_object23LazyTypeObject$LT$T$GT$11get_or_init28_$u7b$$u7b$closure$u7d$$u7d$17hffe055a3b7f1cbafE', symObjAddr: 0x1260, symBinAddr: 0x3204, symSize: 0xA8 }
  - { offset: 0xDD28, size: 0x8, addend: 0x0, symName: '__ZN4pyo35impl_7pyclass16lazy_type_object23LazyTypeObject$LT$T$GT$11get_or_init17h2261ec66546a1d1bE', symObjAddr: 0x0, symBinAddr: 0x1FA4, symSize: 0x40 }
  - { offset: 0xDD79, size: 0x8, addend: 0x0, symName: '__ZN4pyo35impl_7pyclass16lazy_type_object23LazyTypeObject$LT$T$GT$11get_or_init17h28666dea7c0bf251E', symObjAddr: 0x40, symBinAddr: 0x1FE4, symSize: 0x40 }
  - { offset: 0xDDCA, size: 0x8, addend: 0x0, symName: '__ZN4pyo35impl_7pyclass16lazy_type_object23LazyTypeObject$LT$T$GT$11get_or_init17h38aa7328389a36d5E', symObjAddr: 0x80, symBinAddr: 0x2024, symSize: 0x40 }
  - { offset: 0xDE1B, size: 0x8, addend: 0x0, symName: '__ZN4pyo35impl_7pyclass16lazy_type_object23LazyTypeObject$LT$T$GT$11get_or_init17h58c9959a5995b8deE', symObjAddr: 0xC0, symBinAddr: 0x2064, symSize: 0x40 }
  - { offset: 0xDE6C, size: 0x8, addend: 0x0, symName: '__ZN4pyo35impl_7pyclass16lazy_type_object23LazyTypeObject$LT$T$GT$11get_or_init17h8ba780350d050eb7E', symObjAddr: 0x100, symBinAddr: 0x20A4, symSize: 0x40 }
  - { offset: 0xDEBD, size: 0x8, addend: 0x0, symName: '__ZN4pyo35impl_7pyclass16lazy_type_object23LazyTypeObject$LT$T$GT$11get_or_init17h91306a526e74b6dbE', symObjAddr: 0x140, symBinAddr: 0x20E4, symSize: 0x40 }
  - { offset: 0xDF0E, size: 0x8, addend: 0x0, symName: '__ZN4pyo35impl_7pyclass16lazy_type_object23LazyTypeObject$LT$T$GT$11get_or_init17h98d9d0c1a64560c4E', symObjAddr: 0x180, symBinAddr: 0x2124, symSize: 0x40 }
  - { offset: 0xDF5F, size: 0x8, addend: 0x0, symName: '__ZN4pyo35impl_7pyclass16lazy_type_object23LazyTypeObject$LT$T$GT$11get_or_init17ha4a9bc1e9279ddffE', symObjAddr: 0x1C0, symBinAddr: 0x2164, symSize: 0x40 }
  - { offset: 0xDFB0, size: 0x8, addend: 0x0, symName: '__ZN4pyo35impl_7pyclass16lazy_type_object23LazyTypeObject$LT$T$GT$11get_or_init17ha50f90d8a98d91caE', symObjAddr: 0x200, symBinAddr: 0x21A4, symSize: 0x40 }
  - { offset: 0xE001, size: 0x8, addend: 0x0, symName: '__ZN4pyo35impl_7pyclass16lazy_type_object23LazyTypeObject$LT$T$GT$11get_or_init17ha76cb4ffe35f337bE', symObjAddr: 0x240, symBinAddr: 0x21E4, symSize: 0x40 }
  - { offset: 0xE052, size: 0x8, addend: 0x0, symName: '__ZN4pyo35impl_7pyclass16lazy_type_object23LazyTypeObject$LT$T$GT$11get_or_init17hb16ca79f9cc8e4e9E', symObjAddr: 0x280, symBinAddr: 0x2224, symSize: 0x40 }
  - { offset: 0xE0A3, size: 0x8, addend: 0x0, symName: '__ZN4pyo35impl_7pyclass16lazy_type_object23LazyTypeObject$LT$T$GT$11get_or_init17hb25032272b87ea76E', symObjAddr: 0x2C0, symBinAddr: 0x2264, symSize: 0x40 }
  - { offset: 0xE0F4, size: 0x8, addend: 0x0, symName: '__ZN4pyo35impl_7pyclass16lazy_type_object23LazyTypeObject$LT$T$GT$11get_or_init17hbe6b7c7b47d24637E', symObjAddr: 0x300, symBinAddr: 0x22A4, symSize: 0x40 }
  - { offset: 0xE145, size: 0x8, addend: 0x0, symName: '__ZN4pyo35impl_7pyclass16lazy_type_object23LazyTypeObject$LT$T$GT$11get_or_init17hc01519cc6f49f9e3E', symObjAddr: 0x340, symBinAddr: 0x22E4, symSize: 0x40 }
  - { offset: 0xE196, size: 0x8, addend: 0x0, symName: '__ZN4pyo35impl_7pyclass16lazy_type_object23LazyTypeObject$LT$T$GT$11get_or_init17hc5dba829e289a9a4E', symObjAddr: 0x380, symBinAddr: 0x2324, symSize: 0x40 }
  - { offset: 0xE31C, size: 0x8, addend: 0x0, symName: '__ZN4pyo35impl_7pyclass16lazy_type_object23LazyTypeObject$LT$T$GT$11get_or_init17hcad531e971f65519E', symObjAddr: 0x3C0, symBinAddr: 0x2364, symSize: 0x40 }
  - { offset: 0xE3B5, size: 0x8, addend: 0x0, symName: '__ZN4pyo35impl_7pyclass16lazy_type_object23LazyTypeObject$LT$T$GT$11get_or_init17hd40e83592c37d3fdE', symObjAddr: 0x400, symBinAddr: 0x23A4, symSize: 0x40 }
  - { offset: 0xE406, size: 0x8, addend: 0x0, symName: '__ZN4pyo35impl_7pyclass16lazy_type_object23LazyTypeObject$LT$T$GT$11get_or_init17he9aa47dcc9c64d6bE', symObjAddr: 0x440, symBinAddr: 0x23E4, symSize: 0x40 }
  - { offset: 0xE457, size: 0x8, addend: 0x0, symName: '__ZN4pyo35impl_7pyclass16lazy_type_object23LazyTypeObject$LT$T$GT$11get_or_init17hf1142a4fb6a33403E', symObjAddr: 0x480, symBinAddr: 0x2424, symSize: 0x40 }
  - { offset: 0xE4A8, size: 0x8, addend: 0x0, symName: '__ZN4pyo35impl_7pyclass16lazy_type_object23LazyTypeObject$LT$T$GT$11get_or_init17hfb2987c6ad3c97b9E', symObjAddr: 0x4C0, symBinAddr: 0x2464, symSize: 0x40 }
  - { offset: 0xE4F9, size: 0x8, addend: 0x0, symName: '__ZN4pyo35impl_7pyclass16lazy_type_object23LazyTypeObject$LT$T$GT$11get_or_init17hfb8ca37d123d7986E', symObjAddr: 0x500, symBinAddr: 0x24A4, symSize: 0x40 }
  - { offset: 0xE53D, size: 0x8, addend: 0x0, symName: '__ZN4pyo35impl_7pyclass16lazy_type_object23LazyTypeObject$LT$T$GT$15get_or_try_init17h01039249849133d1E', symObjAddr: 0x1308, symBinAddr: 0x32AC, symSize: 0x58 }
  - { offset: 0xE581, size: 0x8, addend: 0x0, symName: '__ZN4pyo35impl_7pyclass16lazy_type_object23LazyTypeObject$LT$T$GT$15get_or_try_init17h1853c54d6be522d1E', symObjAddr: 0x1360, symBinAddr: 0x3304, symSize: 0x58 }
  - { offset: 0xE5C5, size: 0x8, addend: 0x0, symName: '__ZN4pyo35impl_7pyclass16lazy_type_object23LazyTypeObject$LT$T$GT$15get_or_try_init17h2237155a882c7016E', symObjAddr: 0x13B8, symBinAddr: 0x335C, symSize: 0x58 }
  - { offset: 0xE609, size: 0x8, addend: 0x0, symName: '__ZN4pyo35impl_7pyclass16lazy_type_object23LazyTypeObject$LT$T$GT$15get_or_try_init17h280011a19d0b7d62E', symObjAddr: 0x1410, symBinAddr: 0x33B4, symSize: 0x58 }
  - { offset: 0xE64D, size: 0x8, addend: 0x0, symName: '__ZN4pyo35impl_7pyclass16lazy_type_object23LazyTypeObject$LT$T$GT$15get_or_try_init17h31afd6dafbc0bc60E', symObjAddr: 0x1468, symBinAddr: 0x340C, symSize: 0x58 }
  - { offset: 0xE691, size: 0x8, addend: 0x0, symName: '__ZN4pyo35impl_7pyclass16lazy_type_object23LazyTypeObject$LT$T$GT$15get_or_try_init17h827c2a6b0951009cE', symObjAddr: 0x14C0, symBinAddr: 0x3464, symSize: 0x58 }
  - { offset: 0xE6D5, size: 0x8, addend: 0x0, symName: '__ZN4pyo35impl_7pyclass16lazy_type_object23LazyTypeObject$LT$T$GT$15get_or_try_init17h88aaa40d742d26b7E', symObjAddr: 0x1518, symBinAddr: 0x34BC, symSize: 0x58 }
  - { offset: 0xE719, size: 0x8, addend: 0x0, symName: '__ZN4pyo35impl_7pyclass16lazy_type_object23LazyTypeObject$LT$T$GT$15get_or_try_init17h9b86ae4a7c3a5c76E', symObjAddr: 0x1570, symBinAddr: 0x3514, symSize: 0x58 }
  - { offset: 0xE75D, size: 0x8, addend: 0x0, symName: '__ZN4pyo35impl_7pyclass16lazy_type_object23LazyTypeObject$LT$T$GT$15get_or_try_init17h9f06e5728d632751E', symObjAddr: 0x15C8, symBinAddr: 0x356C, symSize: 0x58 }
  - { offset: 0xE7A1, size: 0x8, addend: 0x0, symName: '__ZN4pyo35impl_7pyclass16lazy_type_object23LazyTypeObject$LT$T$GT$15get_or_try_init17ha69e607764e493ceE', symObjAddr: 0x1620, symBinAddr: 0x35C4, symSize: 0x58 }
  - { offset: 0xE7E5, size: 0x8, addend: 0x0, symName: '__ZN4pyo35impl_7pyclass16lazy_type_object23LazyTypeObject$LT$T$GT$15get_or_try_init17hab7a79a855305a1dE', symObjAddr: 0x1678, symBinAddr: 0x361C, symSize: 0x58 }
  - { offset: 0xE829, size: 0x8, addend: 0x0, symName: '__ZN4pyo35impl_7pyclass16lazy_type_object23LazyTypeObject$LT$T$GT$15get_or_try_init17hb66bae73aac05054E', symObjAddr: 0x16D0, symBinAddr: 0x3674, symSize: 0x58 }
  - { offset: 0xE86D, size: 0x8, addend: 0x0, symName: '__ZN4pyo35impl_7pyclass16lazy_type_object23LazyTypeObject$LT$T$GT$15get_or_try_init17hbd0e92ca653e0636E', symObjAddr: 0x1728, symBinAddr: 0x36CC, symSize: 0x58 }
  - { offset: 0xE8B1, size: 0x8, addend: 0x0, symName: '__ZN4pyo35impl_7pyclass16lazy_type_object23LazyTypeObject$LT$T$GT$15get_or_try_init17hbe051ecfd341397dE', symObjAddr: 0x1780, symBinAddr: 0x3724, symSize: 0x58 }
  - { offset: 0xE8F5, size: 0x8, addend: 0x0, symName: '__ZN4pyo35impl_7pyclass16lazy_type_object23LazyTypeObject$LT$T$GT$15get_or_try_init17hdb4c998cd5e53fd0E', symObjAddr: 0x17D8, symBinAddr: 0x377C, symSize: 0x58 }
  - { offset: 0xE939, size: 0x8, addend: 0x0, symName: '__ZN4pyo35impl_7pyclass16lazy_type_object23LazyTypeObject$LT$T$GT$15get_or_try_init17he237e87fcdb470fdE', symObjAddr: 0x1830, symBinAddr: 0x37D4, symSize: 0x58 }
  - { offset: 0xE97D, size: 0x8, addend: 0x0, symName: '__ZN4pyo35impl_7pyclass16lazy_type_object23LazyTypeObject$LT$T$GT$15get_or_try_init17he3798199f1fe45eaE', symObjAddr: 0x1888, symBinAddr: 0x382C, symSize: 0x58 }
  - { offset: 0xE9C1, size: 0x8, addend: 0x0, symName: '__ZN4pyo35impl_7pyclass16lazy_type_object23LazyTypeObject$LT$T$GT$15get_or_try_init17he6759de1eba4cacaE', symObjAddr: 0x18E0, symBinAddr: 0x3884, symSize: 0x58 }
  - { offset: 0xEA05, size: 0x8, addend: 0x0, symName: '__ZN4pyo35impl_7pyclass16lazy_type_object23LazyTypeObject$LT$T$GT$15get_or_try_init17hef31a1770130ac59E', symObjAddr: 0x1938, symBinAddr: 0x38DC, symSize: 0x58 }
  - { offset: 0xEA49, size: 0x8, addend: 0x0, symName: '__ZN4pyo35impl_7pyclass16lazy_type_object23LazyTypeObject$LT$T$GT$15get_or_try_init17hfa20beb68770a90cE', symObjAddr: 0x1990, symBinAddr: 0x3934, symSize: 0x58 }
  - { offset: 0xEA8D, size: 0x8, addend: 0x0, symName: '__ZN4pyo35impl_7pyclass16lazy_type_object23LazyTypeObject$LT$T$GT$15get_or_try_init17hfd0afa66dc990638E', symObjAddr: 0x19E8, symBinAddr: 0x398C, symSize: 0x58 }
  - { offset: 0xEBE3, size: 0x8, addend: 0x0, symName: '__ZN106_$LT$core..ops..range..Range$LT$usize$GT$$u20$as$u20$core..slice..index..SliceIndex$LT$$u5b$T$u5d$$GT$$GT$9index_mut17h8f7b62a172994468E', symObjAddr: 0x0, symBinAddr: 0x39E4, symSize: 0xBC }
  - { offset: 0xFDCC, size: 0x8, addend: 0x0, symName: '__ZN106_$LT$core..ops..range..Range$LT$usize$GT$$u20$as$u20$core..slice..index..SliceIndex$LT$$u5b$T$u5d$$GT$$GT$9index_mut17h8f7b62a172994468E', symObjAddr: 0x0, symBinAddr: 0x39E4, symSize: 0xBC }
  - { offset: 0xFE7D, size: 0x8, addend: 0x0, symName: '__ZN108_$LT$core..ops..range..RangeTo$LT$usize$GT$$u20$as$u20$core..slice..index..SliceIndex$LT$$u5b$T$u5d$$GT$$GT$9index_mut17h5d6e689d9dd6526fE', symObjAddr: 0xBC, symBinAddr: 0x3AA0, symSize: 0x54 }
  - { offset: 0xFF04, size: 0x8, addend: 0x0, symName: '__ZN110_$LT$core..ops..range..RangeFrom$LT$usize$GT$$u20$as$u20$core..slice..index..SliceIndex$LT$$u5b$T$u5d$$GT$$GT$5index17h8ee38c1b83713cb4E', symObjAddr: 0x110, symBinAddr: 0x3AF4, symSize: 0x70 }
  - { offset: 0x10715, size: 0x8, addend: 0x0, symName: __ZN8pyo3_ffi7cpython10listobject15PyList_SET_ITEM17h94dc8655b2cbc4caE, symObjAddr: 0x0, symBinAddr: 0x3B64, symSize: 0x110 }
  - { offset: 0x10CF7, size: 0x8, addend: 0x0, symName: __ZN8pyo3_ffi7cpython10listobject15PyList_SET_ITEM17h94dc8655b2cbc4caE, symObjAddr: 0x0, symBinAddr: 0x3B64, symSize: 0x110 }
  - { offset: 0x11CCF, size: 0x8, addend: 0x0, symName: __ZN4pyo33gil8GILGuard6python17h3d4e0523426f6ea2E, symObjAddr: 0x0, symBinAddr: 0x3C74, symSize: 0x20 }
  - { offset: 0x11D7F, size: 0x8, addend: 0x0, symName: __ZN4pyo33gil8GILGuard6python17h3d4e0523426f6ea2E, symObjAddr: 0x0, symBinAddr: 0x3C74, symSize: 0x20 }
  - { offset: 0x11DBF, size: 0x8, addend: 0x0, symName: __ZN5oryon6traits6Target14warm_up_period17h1eb954238d54c227E, symObjAddr: 0x0, symBinAddr: 0x3C94, symSize: 0x14 }
  - { offset: 0x11DDB, size: 0x8, addend: 0x0, symName: __ZN5oryon6traits6Target14warm_up_period17h1eb954238d54c227E, symObjAddr: 0x0, symBinAddr: 0x3C94, symSize: 0x14 }
  - { offset: 0x1207A, size: 0x8, addend: 0x0, symName: __ZN4pyo36marker6Python19assume_gil_acquired17h1feca7f3f45babb1E, symObjAddr: 0x0, symBinAddr: 0x3CA8, symSize: 0x4 }
  - { offset: 0x121BC, size: 0x8, addend: 0x0, symName: __ZN4pyo36marker6Python19assume_gil_acquired17h1feca7f3f45babb1E, symObjAddr: 0x0, symBinAddr: 0x3CA8, symSize: 0x4 }
  - { offset: 0x121ED, size: 0x8, addend: 0x0, symName: __ZN4pyo35impl_10trampoline11module_init17h7d0b1256a71a6c5aE, symObjAddr: 0x0, symBinAddr: 0x3CAC, symSize: 0x28 }
  - { offset: 0x136EC, size: 0x8, addend: 0x0, symName: __ZN4pyo35impl_10trampoline11module_init17h7d0b1256a71a6c5aE, symObjAddr: 0x0, symBinAddr: 0x3CAC, symSize: 0x28 }
  - { offset: 0x13718, size: 0x8, addend: 0x0, symName: __ZN4pyo35impl_10trampoline22fastcall_with_keywords17h0d9be58ea35a7c02E, symObjAddr: 0x28, symBinAddr: 0x3CD4, symSize: 0x5C }
  - { offset: 0x1377C, size: 0x8, addend: 0x0, symName: __ZN4pyo35impl_10trampoline6noargs17hc3a41b63000d3bd0E, symObjAddr: 0x84, symBinAddr: 0x3D30, symSize: 0x64 }
  - { offset: 0x137C4, size: 0x8, addend: 0x0, symName: __ZN4pyo35impl_10trampoline7dealloc17he69b912e5baf5df8E, symObjAddr: 0xE8, symBinAddr: 0x3D94, symSize: 0x34 }
  - { offset: 0x137FA, size: 0x8, addend: 0x0, symName: __ZN4pyo35impl_10trampoline7lenfunc17h8075fbaa4547900bE, symObjAddr: 0x11C, symBinAddr: 0x3DC8, symSize: 0x30 }
  - { offset: 0x13834, size: 0x8, addend: 0x0, symName: __ZN4pyo35impl_10trampoline7newfunc17hcf5acaf67472305aE, symObjAddr: 0x14C, symBinAddr: 0x3DF8, symSize: 0x50 }
  - { offset: 0x1388A, size: 0x8, addend: 0x0, symName: __ZN4pyo35impl_10trampoline8reprfunc17h01340c41efe14301E, symObjAddr: 0x19C, symBinAddr: 0x3E48, symSize: 0x30 }
  - { offset: 0x14238, size: 0x8, addend: 0x0, symName: __ZN4pyo35types4list17try_new_from_iter17h243c2148cd6aca45E, symObjAddr: 0x0, symBinAddr: 0x3E78, symSize: 0x2C8 }
  - { offset: 0x15A66, size: 0x8, addend: 0x0, symName: __ZN4pyo35types4list17try_new_from_iter17h243c2148cd6aca45E, symObjAddr: 0x0, symBinAddr: 0x3E78, symSize: 0x2C8 }
  - { offset: 0x15B87, size: 0x8, addend: 0x0, symName: __ZN4pyo35types4list17try_new_from_iter17h4ccb67e8462b81f5E, symObjAddr: 0x2C8, symBinAddr: 0x4140, symSize: 0x2C8 }
  - { offset: 0x15CA8, size: 0x8, addend: 0x0, symName: __ZN4pyo35types4list17try_new_from_iter17h6bce0f01a17daeb9E, symObjAddr: 0x590, symBinAddr: 0x4408, symSize: 0x2C8 }
  - { offset: 0x15DCE, size: 0x8, addend: 0x0, symName: '__ZN4pyo35types4list17try_new_from_iter28_$u7b$$u7b$closure$u7d$$u7d$17h368a7511a25aa3bbE', symObjAddr: 0x858, symBinAddr: 0x46D0, symSize: 0x114 }
  - { offset: 0x15E43, size: 0x8, addend: 0x0, symName: '__ZN4pyo35types4list17try_new_from_iter28_$u7b$$u7b$closure$u7d$$u7d$17hbcce98e0af6e3758E', symObjAddr: 0x96C, symBinAddr: 0x47E4, symSize: 0x114 }
  - { offset: 0x15EB8, size: 0x8, addend: 0x0, symName: '__ZN4pyo35types4list17try_new_from_iter28_$u7b$$u7b$closure$u7d$$u7d$17hde77bd14e24c82f5E', symObjAddr: 0xA80, symBinAddr: 0x48F8, symSize: 0x114 }
  - { offset: 0x16B8F, size: 0x8, addend: 0x0, symName: '__ZN4core3ptr8non_null16NonNull$LT$T$GT$13new_unchecked18precondition_check17h6dabb7f2d9d0cd01E', symObjAddr: 0x0, symBinAddr: 0x4A0C, symSize: 0x58 }
  - { offset: 0x16BB5, size: 0x8, addend: 0x0, symName: '__ZN4core3ptr8non_null16NonNull$LT$T$GT$13new_unchecked18precondition_check17h6dabb7f2d9d0cd01E', symObjAddr: 0x0, symBinAddr: 0x4A0C, symSize: 0x58 }
  - { offset: 0x16C66, size: 0x8, addend: 0x0, symName: '__ZN100_$LT$pyo3..pycell..impl_..MutableClass$u20$as$u20$pyo3..pycell..impl_..GetBorrowChecker$LT$T$GT$$GT$14borrow_checker17h05388ad9450c0bf6E', symObjAddr: 0x0, symBinAddr: 0x4A64, symSize: 0x14 }
  - { offset: 0x18DD3, size: 0x8, addend: 0x0, symName: '__ZN100_$LT$pyo3..pycell..impl_..MutableClass$u20$as$u20$pyo3..pycell..impl_..GetBorrowChecker$LT$T$GT$$GT$14borrow_checker17h05388ad9450c0bf6E', symObjAddr: 0x0, symBinAddr: 0x4A64, symSize: 0x14 }
  - { offset: 0x18E08, size: 0x8, addend: 0x0, symName: '__ZN100_$LT$pyo3..pycell..impl_..MutableClass$u20$as$u20$pyo3..pycell..impl_..GetBorrowChecker$LT$T$GT$$GT$14borrow_checker17h0a4219c5b897a89dE', symObjAddr: 0x14, symBinAddr: 0x4A78, symSize: 0x14 }
  - { offset: 0x18E3D, size: 0x8, addend: 0x0, symName: '__ZN100_$LT$pyo3..pycell..impl_..MutableClass$u20$as$u20$pyo3..pycell..impl_..GetBorrowChecker$LT$T$GT$$GT$14borrow_checker17h117fec54a813dd18E', symObjAddr: 0x28, symBinAddr: 0x4A8C, symSize: 0x14 }
  - { offset: 0x18E72, size: 0x8, addend: 0x0, symName: '__ZN100_$LT$pyo3..pycell..impl_..MutableClass$u20$as$u20$pyo3..pycell..impl_..GetBorrowChecker$LT$T$GT$$GT$14borrow_checker17h22ddfc42532b9147E', symObjAddr: 0x3C, symBinAddr: 0x4AA0, symSize: 0x14 }
  - { offset: 0x18EA7, size: 0x8, addend: 0x0, symName: '__ZN100_$LT$pyo3..pycell..impl_..MutableClass$u20$as$u20$pyo3..pycell..impl_..GetBorrowChecker$LT$T$GT$$GT$14borrow_checker17h2e01ab8543b1759fE', symObjAddr: 0x50, symBinAddr: 0x4AB4, symSize: 0x14 }
  - { offset: 0x18EDC, size: 0x8, addend: 0x0, symName: '__ZN100_$LT$pyo3..pycell..impl_..MutableClass$u20$as$u20$pyo3..pycell..impl_..GetBorrowChecker$LT$T$GT$$GT$14borrow_checker17h2e2b41588d981f8fE', symObjAddr: 0x64, symBinAddr: 0x4AC8, symSize: 0x14 }
  - { offset: 0x18F11, size: 0x8, addend: 0x0, symName: '__ZN100_$LT$pyo3..pycell..impl_..MutableClass$u20$as$u20$pyo3..pycell..impl_..GetBorrowChecker$LT$T$GT$$GT$14borrow_checker17h42d596aea78bb9acE', symObjAddr: 0x78, symBinAddr: 0x4ADC, symSize: 0x14 }
  - { offset: 0x18F46, size: 0x8, addend: 0x0, symName: '__ZN100_$LT$pyo3..pycell..impl_..MutableClass$u20$as$u20$pyo3..pycell..impl_..GetBorrowChecker$LT$T$GT$$GT$14borrow_checker17h8c641790c0da7afeE', symObjAddr: 0x8C, symBinAddr: 0x4AF0, symSize: 0x14 }
  - { offset: 0x18F7B, size: 0x8, addend: 0x0, symName: '__ZN100_$LT$pyo3..pycell..impl_..MutableClass$u20$as$u20$pyo3..pycell..impl_..GetBorrowChecker$LT$T$GT$$GT$14borrow_checker17h8cab103af11c43d8E', symObjAddr: 0xA0, symBinAddr: 0x4B04, symSize: 0x14 }
  - { offset: 0x18FB0, size: 0x8, addend: 0x0, symName: '__ZN100_$LT$pyo3..pycell..impl_..MutableClass$u20$as$u20$pyo3..pycell..impl_..GetBorrowChecker$LT$T$GT$$GT$14borrow_checker17h8f0dce51c9c1e600E', symObjAddr: 0xB4, symBinAddr: 0x4B18, symSize: 0x14 }
  - { offset: 0x18FE5, size: 0x8, addend: 0x0, symName: '__ZN100_$LT$pyo3..pycell..impl_..MutableClass$u20$as$u20$pyo3..pycell..impl_..GetBorrowChecker$LT$T$GT$$GT$14borrow_checker17h8faa1ab0b7a2afd2E', symObjAddr: 0xC8, symBinAddr: 0x4B2C, symSize: 0x14 }
  - { offset: 0x1901A, size: 0x8, addend: 0x0, symName: '__ZN100_$LT$pyo3..pycell..impl_..MutableClass$u20$as$u20$pyo3..pycell..impl_..GetBorrowChecker$LT$T$GT$$GT$14borrow_checker17hb6a72066d6016665E', symObjAddr: 0xDC, symBinAddr: 0x4B40, symSize: 0x14 }
  - { offset: 0x1904F, size: 0x8, addend: 0x0, symName: '__ZN100_$LT$pyo3..pycell..impl_..MutableClass$u20$as$u20$pyo3..pycell..impl_..GetBorrowChecker$LT$T$GT$$GT$14borrow_checker17hbad650ab33708947E', symObjAddr: 0xF0, symBinAddr: 0x4B54, symSize: 0x14 }
  - { offset: 0x19084, size: 0x8, addend: 0x0, symName: '__ZN100_$LT$pyo3..pycell..impl_..MutableClass$u20$as$u20$pyo3..pycell..impl_..GetBorrowChecker$LT$T$GT$$GT$14borrow_checker17hc5e0bf7c7df721ebE', symObjAddr: 0x104, symBinAddr: 0x4B68, symSize: 0x14 }
  - { offset: 0x190B9, size: 0x8, addend: 0x0, symName: '__ZN100_$LT$pyo3..pycell..impl_..MutableClass$u20$as$u20$pyo3..pycell..impl_..GetBorrowChecker$LT$T$GT$$GT$14borrow_checker17hcc59119a48d8e6cbE', symObjAddr: 0x118, symBinAddr: 0x4B7C, symSize: 0x14 }
  - { offset: 0x190EE, size: 0x8, addend: 0x0, symName: '__ZN100_$LT$pyo3..pycell..impl_..MutableClass$u20$as$u20$pyo3..pycell..impl_..GetBorrowChecker$LT$T$GT$$GT$14borrow_checker17hcf60cfa73738119bE', symObjAddr: 0x12C, symBinAddr: 0x4B90, symSize: 0x14 }
  - { offset: 0x19123, size: 0x8, addend: 0x0, symName: '__ZN100_$LT$pyo3..pycell..impl_..MutableClass$u20$as$u20$pyo3..pycell..impl_..GetBorrowChecker$LT$T$GT$$GT$14borrow_checker17hd1a7cdb1e945c0cdE', symObjAddr: 0x140, symBinAddr: 0x4BA4, symSize: 0x14 }
  - { offset: 0x19158, size: 0x8, addend: 0x0, symName: '__ZN100_$LT$pyo3..pycell..impl_..MutableClass$u20$as$u20$pyo3..pycell..impl_..GetBorrowChecker$LT$T$GT$$GT$14borrow_checker17he0ce6a0a84ecfc8aE', symObjAddr: 0x154, symBinAddr: 0x4BB8, symSize: 0x14 }
  - { offset: 0x1918D, size: 0x8, addend: 0x0, symName: '__ZN100_$LT$pyo3..pycell..impl_..MutableClass$u20$as$u20$pyo3..pycell..impl_..GetBorrowChecker$LT$T$GT$$GT$14borrow_checker17he38438f148693b66E', symObjAddr: 0x168, symBinAddr: 0x4BCC, symSize: 0x14 }
  - { offset: 0x191C2, size: 0x8, addend: 0x0, symName: '__ZN100_$LT$pyo3..pycell..impl_..MutableClass$u20$as$u20$pyo3..pycell..impl_..GetBorrowChecker$LT$T$GT$$GT$14borrow_checker17hfe1a31218cbd74a8E', symObjAddr: 0x17C, symBinAddr: 0x4BE0, symSize: 0x14 }
  - { offset: 0x191F7, size: 0x8, addend: 0x0, symName: '__ZN100_$LT$pyo3..pycell..impl_..MutableClass$u20$as$u20$pyo3..pycell..impl_..GetBorrowChecker$LT$T$GT$$GT$14borrow_checker17hffee7737f03a62c2E', symObjAddr: 0x190, symBinAddr: 0x4BF4, symSize: 0x14 }
  - { offset: 0x19232, size: 0x8, addend: 0x0, symName: '__ZN113_$LT$pyo3..pycell..impl_..PyClassObject$LT$T$GT$$u20$as$u20$pyo3..pycell..impl_..PyClassObjectLayout$LT$T$GT$$GT$10tp_dealloc17h0daee820e5b87b40E', symObjAddr: 0x1A4, symBinAddr: 0x4C08, symSize: 0xB4 }
  - { offset: 0x19296, size: 0x8, addend: 0x0, symName: '__ZN113_$LT$pyo3..pycell..impl_..PyClassObject$LT$T$GT$$u20$as$u20$pyo3..pycell..impl_..PyClassObjectLayout$LT$T$GT$$GT$10tp_dealloc17h112143d06c561e03E', symObjAddr: 0x258, symBinAddr: 0x4CBC, symSize: 0xB4 }
  - { offset: 0x192FA, size: 0x8, addend: 0x0, symName: '__ZN113_$LT$pyo3..pycell..impl_..PyClassObject$LT$T$GT$$u20$as$u20$pyo3..pycell..impl_..PyClassObjectLayout$LT$T$GT$$GT$10tp_dealloc17h2fdd2c7cc27a2967E', symObjAddr: 0x30C, symBinAddr: 0x4D70, symSize: 0xB4 }
  - { offset: 0x1935E, size: 0x8, addend: 0x0, symName: '__ZN113_$LT$pyo3..pycell..impl_..PyClassObject$LT$T$GT$$u20$as$u20$pyo3..pycell..impl_..PyClassObjectLayout$LT$T$GT$$GT$10tp_dealloc17h4ec67c6c3cf7cbf5E', symObjAddr: 0x3C0, symBinAddr: 0x4E24, symSize: 0xB4 }
  - { offset: 0x193C2, size: 0x8, addend: 0x0, symName: '__ZN113_$LT$pyo3..pycell..impl_..PyClassObject$LT$T$GT$$u20$as$u20$pyo3..pycell..impl_..PyClassObjectLayout$LT$T$GT$$GT$10tp_dealloc17h5520ee89428f4993E', symObjAddr: 0x474, symBinAddr: 0x4ED8, symSize: 0xB4 }
  - { offset: 0x19426, size: 0x8, addend: 0x0, symName: '__ZN113_$LT$pyo3..pycell..impl_..PyClassObject$LT$T$GT$$u20$as$u20$pyo3..pycell..impl_..PyClassObjectLayout$LT$T$GT$$GT$10tp_dealloc17h5c97713acbeb045fE', symObjAddr: 0x528, symBinAddr: 0x4F8C, symSize: 0xB4 }
  - { offset: 0x1948A, size: 0x8, addend: 0x0, symName: '__ZN113_$LT$pyo3..pycell..impl_..PyClassObject$LT$T$GT$$u20$as$u20$pyo3..pycell..impl_..PyClassObjectLayout$LT$T$GT$$GT$10tp_dealloc17h6338c1e349ea3600E', symObjAddr: 0x5DC, symBinAddr: 0x5040, symSize: 0xB4 }
  - { offset: 0x194EE, size: 0x8, addend: 0x0, symName: '__ZN113_$LT$pyo3..pycell..impl_..PyClassObject$LT$T$GT$$u20$as$u20$pyo3..pycell..impl_..PyClassObjectLayout$LT$T$GT$$GT$10tp_dealloc17h75ac284b55e2a44aE', symObjAddr: 0x690, symBinAddr: 0x50F4, symSize: 0xB4 }
  - { offset: 0x19552, size: 0x8, addend: 0x0, symName: '__ZN113_$LT$pyo3..pycell..impl_..PyClassObject$LT$T$GT$$u20$as$u20$pyo3..pycell..impl_..PyClassObjectLayout$LT$T$GT$$GT$10tp_dealloc17h7e141eef42cf4f54E', symObjAddr: 0x744, symBinAddr: 0x51A8, symSize: 0xB4 }
  - { offset: 0x195B6, size: 0x8, addend: 0x0, symName: '__ZN113_$LT$pyo3..pycell..impl_..PyClassObject$LT$T$GT$$u20$as$u20$pyo3..pycell..impl_..PyClassObjectLayout$LT$T$GT$$GT$10tp_dealloc17h8802164a56044113E', symObjAddr: 0x7F8, symBinAddr: 0x525C, symSize: 0xB4 }
  - { offset: 0x1961A, size: 0x8, addend: 0x0, symName: '__ZN113_$LT$pyo3..pycell..impl_..PyClassObject$LT$T$GT$$u20$as$u20$pyo3..pycell..impl_..PyClassObjectLayout$LT$T$GT$$GT$10tp_dealloc17h8aacc76c7c3d425fE', symObjAddr: 0x8AC, symBinAddr: 0x5310, symSize: 0xB4 }
  - { offset: 0x1967E, size: 0x8, addend: 0x0, symName: '__ZN113_$LT$pyo3..pycell..impl_..PyClassObject$LT$T$GT$$u20$as$u20$pyo3..pycell..impl_..PyClassObjectLayout$LT$T$GT$$GT$10tp_dealloc17h90cfbb92f6802256E', symObjAddr: 0x960, symBinAddr: 0x53C4, symSize: 0xB4 }
  - { offset: 0x196E2, size: 0x8, addend: 0x0, symName: '__ZN113_$LT$pyo3..pycell..impl_..PyClassObject$LT$T$GT$$u20$as$u20$pyo3..pycell..impl_..PyClassObjectLayout$LT$T$GT$$GT$10tp_dealloc17ha46eed3798d20d7aE', symObjAddr: 0xA14, symBinAddr: 0x5478, symSize: 0xB4 }
  - { offset: 0x19746, size: 0x8, addend: 0x0, symName: '__ZN113_$LT$pyo3..pycell..impl_..PyClassObject$LT$T$GT$$u20$as$u20$pyo3..pycell..impl_..PyClassObjectLayout$LT$T$GT$$GT$10tp_dealloc17ha81b0414971eba3fE', symObjAddr: 0xAC8, symBinAddr: 0x552C, symSize: 0xB4 }
  - { offset: 0x197AA, size: 0x8, addend: 0x0, symName: '__ZN113_$LT$pyo3..pycell..impl_..PyClassObject$LT$T$GT$$u20$as$u20$pyo3..pycell..impl_..PyClassObjectLayout$LT$T$GT$$GT$10tp_dealloc17hb624463f9b03bc31E', symObjAddr: 0xB7C, symBinAddr: 0x55E0, symSize: 0xB4 }
  - { offset: 0x1980E, size: 0x8, addend: 0x0, symName: '__ZN113_$LT$pyo3..pycell..impl_..PyClassObject$LT$T$GT$$u20$as$u20$pyo3..pycell..impl_..PyClassObjectLayout$LT$T$GT$$GT$10tp_dealloc17hb989fe7b33e99a03E', symObjAddr: 0xC30, symBinAddr: 0x5694, symSize: 0xB4 }
  - { offset: 0x19872, size: 0x8, addend: 0x0, symName: '__ZN113_$LT$pyo3..pycell..impl_..PyClassObject$LT$T$GT$$u20$as$u20$pyo3..pycell..impl_..PyClassObjectLayout$LT$T$GT$$GT$10tp_dealloc17hcd9408acd628ad35E', symObjAddr: 0xCE4, symBinAddr: 0x5748, symSize: 0xB4 }
  - { offset: 0x198D6, size: 0x8, addend: 0x0, symName: '__ZN113_$LT$pyo3..pycell..impl_..PyClassObject$LT$T$GT$$u20$as$u20$pyo3..pycell..impl_..PyClassObjectLayout$LT$T$GT$$GT$10tp_dealloc17hd9acb253cfe49247E', symObjAddr: 0xD98, symBinAddr: 0x57FC, symSize: 0xB4 }
  - { offset: 0x1993A, size: 0x8, addend: 0x0, symName: '__ZN113_$LT$pyo3..pycell..impl_..PyClassObject$LT$T$GT$$u20$as$u20$pyo3..pycell..impl_..PyClassObjectLayout$LT$T$GT$$GT$10tp_dealloc17he904186e79c07b72E', symObjAddr: 0xE4C, symBinAddr: 0x58B0, symSize: 0xB4 }
  - { offset: 0x1999E, size: 0x8, addend: 0x0, symName: '__ZN113_$LT$pyo3..pycell..impl_..PyClassObject$LT$T$GT$$u20$as$u20$pyo3..pycell..impl_..PyClassObjectLayout$LT$T$GT$$GT$10tp_dealloc17heb47c38ae5c03622E', symObjAddr: 0xF00, symBinAddr: 0x5964, symSize: 0xB4 }
  - { offset: 0x19A02, size: 0x8, addend: 0x0, symName: '__ZN113_$LT$pyo3..pycell..impl_..PyClassObject$LT$T$GT$$u20$as$u20$pyo3..pycell..impl_..PyClassObjectLayout$LT$T$GT$$GT$10tp_dealloc17hfe0dbb06ded27bd4E', symObjAddr: 0xFB4, symBinAddr: 0x5A18, symSize: 0xB4 }
  - { offset: 0x19A66, size: 0x8, addend: 0x0, symName: '__ZN113_$LT$pyo3..pycell..impl_..PyClassObject$LT$T$GT$$u20$as$u20$pyo3..pycell..impl_..PyClassObjectLayout$LT$T$GT$$GT$17ensure_threadsafe17h2f437181ba930ec4E', symObjAddr: 0x1068, symBinAddr: 0x5ACC, symSize: 0x30 }
  - { offset: 0x19A99, size: 0x8, addend: 0x0, symName: '__ZN113_$LT$pyo3..pycell..impl_..PyClassObject$LT$T$GT$$u20$as$u20$pyo3..pycell..impl_..PyClassObjectLayout$LT$T$GT$$GT$17ensure_threadsafe17h332630895ff5426eE', symObjAddr: 0x1098, symBinAddr: 0x5AFC, symSize: 0x30 }
  - { offset: 0x19ACC, size: 0x8, addend: 0x0, symName: '__ZN113_$LT$pyo3..pycell..impl_..PyClassObject$LT$T$GT$$u20$as$u20$pyo3..pycell..impl_..PyClassObjectLayout$LT$T$GT$$GT$17ensure_threadsafe17h38eaf7bd38b902acE', symObjAddr: 0x10C8, symBinAddr: 0x5B2C, symSize: 0x30 }
  - { offset: 0x19AFF, size: 0x8, addend: 0x0, symName: '__ZN113_$LT$pyo3..pycell..impl_..PyClassObject$LT$T$GT$$u20$as$u20$pyo3..pycell..impl_..PyClassObjectLayout$LT$T$GT$$GT$17ensure_threadsafe17h3ddfc3663ed317a2E', symObjAddr: 0x10F8, symBinAddr: 0x5B5C, symSize: 0x30 }
  - { offset: 0x19B32, size: 0x8, addend: 0x0, symName: '__ZN113_$LT$pyo3..pycell..impl_..PyClassObject$LT$T$GT$$u20$as$u20$pyo3..pycell..impl_..PyClassObjectLayout$LT$T$GT$$GT$17ensure_threadsafe17h3dea461c3fd853cfE', symObjAddr: 0x1128, symBinAddr: 0x5B8C, symSize: 0x30 }
  - { offset: 0x19B65, size: 0x8, addend: 0x0, symName: '__ZN113_$LT$pyo3..pycell..impl_..PyClassObject$LT$T$GT$$u20$as$u20$pyo3..pycell..impl_..PyClassObjectLayout$LT$T$GT$$GT$17ensure_threadsafe17h4c24ae80b2c60ea3E', symObjAddr: 0x1158, symBinAddr: 0x5BBC, symSize: 0x30 }
  - { offset: 0x19B98, size: 0x8, addend: 0x0, symName: '__ZN113_$LT$pyo3..pycell..impl_..PyClassObject$LT$T$GT$$u20$as$u20$pyo3..pycell..impl_..PyClassObjectLayout$LT$T$GT$$GT$17ensure_threadsafe17h61cc82fcaf280f84E', symObjAddr: 0x1188, symBinAddr: 0x5BEC, symSize: 0x30 }
  - { offset: 0x19BCB, size: 0x8, addend: 0x0, symName: '__ZN113_$LT$pyo3..pycell..impl_..PyClassObject$LT$T$GT$$u20$as$u20$pyo3..pycell..impl_..PyClassObjectLayout$LT$T$GT$$GT$17ensure_threadsafe17h65d975a7a6a2c3daE', symObjAddr: 0x11B8, symBinAddr: 0x5C1C, symSize: 0x30 }
  - { offset: 0x19BFE, size: 0x8, addend: 0x0, symName: '__ZN113_$LT$pyo3..pycell..impl_..PyClassObject$LT$T$GT$$u20$as$u20$pyo3..pycell..impl_..PyClassObjectLayout$LT$T$GT$$GT$17ensure_threadsafe17h66bccbdaeaaee7cfE', symObjAddr: 0x11E8, symBinAddr: 0x5C4C, symSize: 0x30 }
  - { offset: 0x19C31, size: 0x8, addend: 0x0, symName: '__ZN113_$LT$pyo3..pycell..impl_..PyClassObject$LT$T$GT$$u20$as$u20$pyo3..pycell..impl_..PyClassObjectLayout$LT$T$GT$$GT$17ensure_threadsafe17h6ae3f8146b4db22eE', symObjAddr: 0x1218, symBinAddr: 0x5C7C, symSize: 0x30 }
  - { offset: 0x19C64, size: 0x8, addend: 0x0, symName: '__ZN113_$LT$pyo3..pycell..impl_..PyClassObject$LT$T$GT$$u20$as$u20$pyo3..pycell..impl_..PyClassObjectLayout$LT$T$GT$$GT$17ensure_threadsafe17h8358a9280d8aa0e0E', symObjAddr: 0x1248, symBinAddr: 0x5CAC, symSize: 0x30 }
  - { offset: 0x19C97, size: 0x8, addend: 0x0, symName: '__ZN113_$LT$pyo3..pycell..impl_..PyClassObject$LT$T$GT$$u20$as$u20$pyo3..pycell..impl_..PyClassObjectLayout$LT$T$GT$$GT$17ensure_threadsafe17h9e9bc6c166088a11E', symObjAddr: 0x1278, symBinAddr: 0x5CDC, symSize: 0x30 }
  - { offset: 0x19CCA, size: 0x8, addend: 0x0, symName: '__ZN113_$LT$pyo3..pycell..impl_..PyClassObject$LT$T$GT$$u20$as$u20$pyo3..pycell..impl_..PyClassObjectLayout$LT$T$GT$$GT$17ensure_threadsafe17ha410aac07e74cc31E', symObjAddr: 0x12A8, symBinAddr: 0x5D0C, symSize: 0x30 }
  - { offset: 0x19CFD, size: 0x8, addend: 0x0, symName: '__ZN113_$LT$pyo3..pycell..impl_..PyClassObject$LT$T$GT$$u20$as$u20$pyo3..pycell..impl_..PyClassObjectLayout$LT$T$GT$$GT$17ensure_threadsafe17hbf206a3b75d45142E', symObjAddr: 0x12D8, symBinAddr: 0x5D3C, symSize: 0x30 }
  - { offset: 0x19D30, size: 0x8, addend: 0x0, symName: '__ZN113_$LT$pyo3..pycell..impl_..PyClassObject$LT$T$GT$$u20$as$u20$pyo3..pycell..impl_..PyClassObjectLayout$LT$T$GT$$GT$17ensure_threadsafe17hcc3759576a6e0fcfE', symObjAddr: 0x1308, symBinAddr: 0x5D6C, symSize: 0x30 }
  - { offset: 0x19D63, size: 0x8, addend: 0x0, symName: '__ZN113_$LT$pyo3..pycell..impl_..PyClassObject$LT$T$GT$$u20$as$u20$pyo3..pycell..impl_..PyClassObjectLayout$LT$T$GT$$GT$17ensure_threadsafe17hd237c7f1fcb24cbfE', symObjAddr: 0x1338, symBinAddr: 0x5D9C, symSize: 0x30 }
  - { offset: 0x19D96, size: 0x8, addend: 0x0, symName: '__ZN113_$LT$pyo3..pycell..impl_..PyClassObject$LT$T$GT$$u20$as$u20$pyo3..pycell..impl_..PyClassObjectLayout$LT$T$GT$$GT$17ensure_threadsafe17he29b8330d8ef4590E', symObjAddr: 0x1368, symBinAddr: 0x5DCC, symSize: 0x30 }
  - { offset: 0x19DC9, size: 0x8, addend: 0x0, symName: '__ZN113_$LT$pyo3..pycell..impl_..PyClassObject$LT$T$GT$$u20$as$u20$pyo3..pycell..impl_..PyClassObjectLayout$LT$T$GT$$GT$17ensure_threadsafe17he7411352b8fbaa63E', symObjAddr: 0x1398, symBinAddr: 0x5DFC, symSize: 0x30 }
  - { offset: 0x19DFC, size: 0x8, addend: 0x0, symName: '__ZN113_$LT$pyo3..pycell..impl_..PyClassObject$LT$T$GT$$u20$as$u20$pyo3..pycell..impl_..PyClassObjectLayout$LT$T$GT$$GT$17ensure_threadsafe17he92cdd75c87ba7aeE', symObjAddr: 0x13C8, symBinAddr: 0x5E2C, symSize: 0x30 }
  - { offset: 0x19E2F, size: 0x8, addend: 0x0, symName: '__ZN113_$LT$pyo3..pycell..impl_..PyClassObject$LT$T$GT$$u20$as$u20$pyo3..pycell..impl_..PyClassObjectLayout$LT$T$GT$$GT$17ensure_threadsafe17hec7b690870a8502aE', symObjAddr: 0x13F8, symBinAddr: 0x5E5C, symSize: 0x30 }
  - { offset: 0x19E62, size: 0x8, addend: 0x0, symName: '__ZN113_$LT$pyo3..pycell..impl_..PyClassObject$LT$T$GT$$u20$as$u20$pyo3..pycell..impl_..PyClassObjectLayout$LT$T$GT$$GT$17ensure_threadsafe17hfb04c88076740fc7E', symObjAddr: 0x1428, symBinAddr: 0x5E8C, symSize: 0x30 }
  - { offset: 0x19E9B, size: 0x8, addend: 0x0, symName: '__ZN117_$LT$pyo3..pycell..impl_..PyClassObjectBase$LT$U$GT$$u20$as$u20$pyo3..pycell..impl_..PyClassObjectLayout$LT$T$GT$$GT$10tp_dealloc17h1afb4533f78e95a8E', symObjAddr: 0x1458, symBinAddr: 0x5EBC, symSize: 0x270 }
  - { offset: 0x19F9E, size: 0x8, addend: 0x0, symName: '__ZN117_$LT$pyo3..pycell..impl_..PyClassObjectBase$LT$U$GT$$u20$as$u20$pyo3..pycell..impl_..PyClassObjectLayout$LT$T$GT$$GT$17ensure_threadsafe17ha50b551f2b3adf6bE', symObjAddr: 0x16C8, symBinAddr: 0x612C, symSize: 0x10 }
  - { offset: 0x1BC65, size: 0x8, addend: 0x0, symName: '__ZN4pyo36pycell5impl_22PyClassObject$LT$T$GT$14borrow_checker17h134e987749632c94E', symObjAddr: 0x16D8, symBinAddr: 0x613C, symSize: 0x24 }
  - { offset: 0x1BE51, size: 0x8, addend: 0x0, symName: '__ZN4pyo36pycell5impl_22PyClassObject$LT$T$GT$14borrow_checker17h3349540c3cc1d05fE', symObjAddr: 0x16FC, symBinAddr: 0x6160, symSize: 0x24 }
  - { offset: 0x1BE8A, size: 0x8, addend: 0x0, symName: '__ZN4pyo36pycell5impl_22PyClassObject$LT$T$GT$14borrow_checker17h3915b720fd4d63d8E', symObjAddr: 0x1720, symBinAddr: 0x6184, symSize: 0x24 }
  - { offset: 0x1BEC3, size: 0x8, addend: 0x0, symName: '__ZN4pyo36pycell5impl_22PyClassObject$LT$T$GT$14borrow_checker17h3b7ae2acf0daa7c4E', symObjAddr: 0x1744, symBinAddr: 0x61A8, symSize: 0x24 }
  - { offset: 0x1BEFC, size: 0x8, addend: 0x0, symName: '__ZN4pyo36pycell5impl_22PyClassObject$LT$T$GT$14borrow_checker17h4383b40ee8b15b89E', symObjAddr: 0x1768, symBinAddr: 0x61CC, symSize: 0x24 }
  - { offset: 0x1BF35, size: 0x8, addend: 0x0, symName: '__ZN4pyo36pycell5impl_22PyClassObject$LT$T$GT$14borrow_checker17h444c01e9aff28537E', symObjAddr: 0x178C, symBinAddr: 0x61F0, symSize: 0x24 }
  - { offset: 0x1BF6E, size: 0x8, addend: 0x0, symName: '__ZN4pyo36pycell5impl_22PyClassObject$LT$T$GT$14borrow_checker17h62bf39afe92ddb52E', symObjAddr: 0x17B0, symBinAddr: 0x6214, symSize: 0x24 }
  - { offset: 0x1BFA7, size: 0x8, addend: 0x0, symName: '__ZN4pyo36pycell5impl_22PyClassObject$LT$T$GT$14borrow_checker17h7bc44adcb79f7186E', symObjAddr: 0x17D4, symBinAddr: 0x6238, symSize: 0x24 }
  - { offset: 0x1C028, size: 0x8, addend: 0x0, symName: '__ZN4pyo36pycell5impl_22PyClassObject$LT$T$GT$14borrow_checker17h84ff1d96d3c0ad94E', symObjAddr: 0x17F8, symBinAddr: 0x625C, symSize: 0x24 }
  - { offset: 0x1C061, size: 0x8, addend: 0x0, symName: '__ZN4pyo36pycell5impl_22PyClassObject$LT$T$GT$14borrow_checker17h87787c4d37a5cfebE', symObjAddr: 0x181C, symBinAddr: 0x6280, symSize: 0x24 }
  - { offset: 0x1C09A, size: 0x8, addend: 0x0, symName: '__ZN4pyo36pycell5impl_22PyClassObject$LT$T$GT$14borrow_checker17h92d6069f1f15c326E', symObjAddr: 0x1840, symBinAddr: 0x62A4, symSize: 0x24 }
  - { offset: 0x1C0D3, size: 0x8, addend: 0x0, symName: '__ZN4pyo36pycell5impl_22PyClassObject$LT$T$GT$14borrow_checker17h9bcba02e8c23bc3aE', symObjAddr: 0x1864, symBinAddr: 0x62C8, symSize: 0x24 }
  - { offset: 0x1C10C, size: 0x8, addend: 0x0, symName: '__ZN4pyo36pycell5impl_22PyClassObject$LT$T$GT$14borrow_checker17hafdd437fb22cdd9dE', symObjAddr: 0x1888, symBinAddr: 0x62EC, symSize: 0x24 }
  - { offset: 0x1C145, size: 0x8, addend: 0x0, symName: '__ZN4pyo36pycell5impl_22PyClassObject$LT$T$GT$14borrow_checker17hb7bfbd6b1638a903E', symObjAddr: 0x18AC, symBinAddr: 0x6310, symSize: 0x24 }
  - { offset: 0x1C17E, size: 0x8, addend: 0x0, symName: '__ZN4pyo36pycell5impl_22PyClassObject$LT$T$GT$14borrow_checker17hbe0553c1c418357dE', symObjAddr: 0x18D0, symBinAddr: 0x6334, symSize: 0x24 }
  - { offset: 0x1C1B7, size: 0x8, addend: 0x0, symName: '__ZN4pyo36pycell5impl_22PyClassObject$LT$T$GT$14borrow_checker17hca4b8ffc0a86f387E', symObjAddr: 0x18F4, symBinAddr: 0x6358, symSize: 0x24 }
  - { offset: 0x1C1F0, size: 0x8, addend: 0x0, symName: '__ZN4pyo36pycell5impl_22PyClassObject$LT$T$GT$14borrow_checker17hd8a13ab70c77060eE', symObjAddr: 0x1918, symBinAddr: 0x637C, symSize: 0x24 }
  - { offset: 0x1C229, size: 0x8, addend: 0x0, symName: '__ZN4pyo36pycell5impl_22PyClassObject$LT$T$GT$14borrow_checker17hdb32cd118a32acbaE', symObjAddr: 0x193C, symBinAddr: 0x63A0, symSize: 0x24 }
  - { offset: 0x1C262, size: 0x8, addend: 0x0, symName: '__ZN4pyo36pycell5impl_22PyClassObject$LT$T$GT$14borrow_checker17he41bf2a5e92e342eE', symObjAddr: 0x1960, symBinAddr: 0x63C4, symSize: 0x24 }
  - { offset: 0x1C29B, size: 0x8, addend: 0x0, symName: '__ZN4pyo36pycell5impl_22PyClassObject$LT$T$GT$14borrow_checker17he744cb2833d146d7E', symObjAddr: 0x1984, symBinAddr: 0x63E8, symSize: 0x24 }
  - { offset: 0x1C2D4, size: 0x8, addend: 0x0, symName: '__ZN4pyo36pycell5impl_22PyClassObject$LT$T$GT$14borrow_checker17hfb0546169e0db1caE', symObjAddr: 0x19A8, symBinAddr: 0x640C, symSize: 0x24 }
  - { offset: 0x1C30D, size: 0x8, addend: 0x0, symName: '__ZN4pyo36pycell5impl_22PyClassObject$LT$T$GT$7get_ptr17h0f22c4acde4c836eE', symObjAddr: 0x19CC, symBinAddr: 0x6430, symSize: 0x24 }
  - { offset: 0x1C346, size: 0x8, addend: 0x0, symName: '__ZN4pyo36pycell5impl_22PyClassObject$LT$T$GT$7get_ptr17h10ded6e2da36aca4E', symObjAddr: 0x19F0, symBinAddr: 0x6454, symSize: 0x24 }
  - { offset: 0x1C37F, size: 0x8, addend: 0x0, symName: '__ZN4pyo36pycell5impl_22PyClassObject$LT$T$GT$7get_ptr17h25c8e10220083c15E', symObjAddr: 0x1A14, symBinAddr: 0x6478, symSize: 0x24 }
  - { offset: 0x1C3B8, size: 0x8, addend: 0x0, symName: '__ZN4pyo36pycell5impl_22PyClassObject$LT$T$GT$7get_ptr17h38f80e46d1415dd5E', symObjAddr: 0x1A38, symBinAddr: 0x649C, symSize: 0x24 }
  - { offset: 0x1C3F1, size: 0x8, addend: 0x0, symName: '__ZN4pyo36pycell5impl_22PyClassObject$LT$T$GT$7get_ptr17h3bf8ca247b73393cE', symObjAddr: 0x1A5C, symBinAddr: 0x64C0, symSize: 0x24 }
  - { offset: 0x1C42A, size: 0x8, addend: 0x0, symName: '__ZN4pyo36pycell5impl_22PyClassObject$LT$T$GT$7get_ptr17h48d5b47646cb0dfdE', symObjAddr: 0x1A80, symBinAddr: 0x64E4, symSize: 0x24 }
  - { offset: 0x1C463, size: 0x8, addend: 0x0, symName: '__ZN4pyo36pycell5impl_22PyClassObject$LT$T$GT$7get_ptr17h5037a6b8b97da56aE', symObjAddr: 0x1AA4, symBinAddr: 0x6508, symSize: 0x24 }
  - { offset: 0x1C49C, size: 0x8, addend: 0x0, symName: '__ZN4pyo36pycell5impl_22PyClassObject$LT$T$GT$7get_ptr17h5a1e009dc1af0b1aE', symObjAddr: 0x1AC8, symBinAddr: 0x652C, symSize: 0x24 }
  - { offset: 0x1C4D5, size: 0x8, addend: 0x0, symName: '__ZN4pyo36pycell5impl_22PyClassObject$LT$T$GT$7get_ptr17h6aa97d655fedebdfE', symObjAddr: 0x1AEC, symBinAddr: 0x6550, symSize: 0x24 }
  - { offset: 0x1C50E, size: 0x8, addend: 0x0, symName: '__ZN4pyo36pycell5impl_22PyClassObject$LT$T$GT$7get_ptr17h778cb8b7bdfdc85aE', symObjAddr: 0x1B10, symBinAddr: 0x6574, symSize: 0x24 }
  - { offset: 0x1C547, size: 0x8, addend: 0x0, symName: '__ZN4pyo36pycell5impl_22PyClassObject$LT$T$GT$7get_ptr17h84d774b99c7f27bfE', symObjAddr: 0x1B34, symBinAddr: 0x6598, symSize: 0x24 }
  - { offset: 0x1C580, size: 0x8, addend: 0x0, symName: '__ZN4pyo36pycell5impl_22PyClassObject$LT$T$GT$7get_ptr17h9d1b7812955a1b20E', symObjAddr: 0x1B58, symBinAddr: 0x65BC, symSize: 0x24 }
  - { offset: 0x1C5B9, size: 0x8, addend: 0x0, symName: '__ZN4pyo36pycell5impl_22PyClassObject$LT$T$GT$7get_ptr17h9dc29927f9a45060E', symObjAddr: 0x1B7C, symBinAddr: 0x65E0, symSize: 0x24 }
  - { offset: 0x1C5F2, size: 0x8, addend: 0x0, symName: '__ZN4pyo36pycell5impl_22PyClassObject$LT$T$GT$7get_ptr17hba5dbe30282634adE', symObjAddr: 0x1BA0, symBinAddr: 0x6604, symSize: 0x24 }
  - { offset: 0x1C62B, size: 0x8, addend: 0x0, symName: '__ZN4pyo36pycell5impl_22PyClassObject$LT$T$GT$7get_ptr17hbea7e4e40e9794e4E', symObjAddr: 0x1BC4, symBinAddr: 0x6628, symSize: 0x24 }
  - { offset: 0x1C664, size: 0x8, addend: 0x0, symName: '__ZN4pyo36pycell5impl_22PyClassObject$LT$T$GT$7get_ptr17hc0a775a7b9fee375E', symObjAddr: 0x1BE8, symBinAddr: 0x664C, symSize: 0x24 }
  - { offset: 0x1C69D, size: 0x8, addend: 0x0, symName: '__ZN4pyo36pycell5impl_22PyClassObject$LT$T$GT$7get_ptr17hc6e4f6364103b719E', symObjAddr: 0x1C0C, symBinAddr: 0x6670, symSize: 0x24 }
  - { offset: 0x1C6D6, size: 0x8, addend: 0x0, symName: '__ZN4pyo36pycell5impl_22PyClassObject$LT$T$GT$7get_ptr17hceda66c6e83fe38dE', symObjAddr: 0x1C30, symBinAddr: 0x6694, symSize: 0x24 }
  - { offset: 0x1C70F, size: 0x8, addend: 0x0, symName: '__ZN4pyo36pycell5impl_22PyClassObject$LT$T$GT$7get_ptr17he62d18de7dc5537dE', symObjAddr: 0x1C54, symBinAddr: 0x66B8, symSize: 0x24 }
  - { offset: 0x1C748, size: 0x8, addend: 0x0, symName: '__ZN4pyo36pycell5impl_22PyClassObject$LT$T$GT$7get_ptr17hf0b7a39419ed65e2E', symObjAddr: 0x1C78, symBinAddr: 0x66DC, symSize: 0x24 }
  - { offset: 0x1C781, size: 0x8, addend: 0x0, symName: '__ZN4pyo36pycell5impl_22PyClassObject$LT$T$GT$7get_ptr17hfb785cf03b892b13E', symObjAddr: 0x1C9C, symBinAddr: 0x6700, symSize: 0x24 }
  - { offset: 0x1C92E, size: 0x8, addend: 0x0, symName: __ZN4pyo35impl_5panic9PanicTrap3new17ha3834af48babd773E, symObjAddr: 0x0, symBinAddr: 0x6724, symSize: 0x18 }
  - { offset: 0x1C9BD, size: 0x8, addend: 0x0, symName: __ZN4pyo35impl_5panic9PanicTrap3new17ha3834af48babd773E, symObjAddr: 0x0, symBinAddr: 0x6724, symSize: 0x18 }
  - { offset: 0x1C9DF, size: 0x8, addend: 0x0, symName: __ZN4pyo35impl_5panic9PanicTrap6disarm17h8107579b59c1a18dE, symObjAddr: 0x18, symBinAddr: 0x673C, symSize: 0x28 }
  - { offset: 0x1CA1F, size: 0x8, addend: 0x0, symName: __ZN4pyo33err5PyErr10from_state17h6e4f92e68dd58ecbE, symObjAddr: 0x0, symBinAddr: 0x6764, symSize: 0x30 }
  - { offset: 0x1E6F9, size: 0x8, addend: 0x0, symName: __ZN4pyo33err5PyErr10from_state17h6e4f92e68dd58ecbE, symObjAddr: 0x0, symBinAddr: 0x6764, symSize: 0x30 }
  - { offset: 0x1E762, size: 0x8, addend: 0x0, symName: __ZN4pyo33err5PyErr16write_unraisable17ha70334e7378d708aE, symObjAddr: 0x30, symBinAddr: 0x6794, symSize: 0x58 }
  - { offset: 0x1E7B0, size: 0x8, addend: 0x0, symName: __ZN4pyo33err5PyErr7restore17h43a4da53e425d106E, symObjAddr: 0x88, symBinAddr: 0x67EC, symSize: 0x38 }
  - { offset: 0x1E80D, size: 0x8, addend: 0x0, symName: __ZN4pyo311type_object10PyTypeInfo11type_object17h3fb6b61282d123a5E, symObjAddr: 0x0, symBinAddr: 0x6824, symSize: 0x30 }
  - { offset: 0x1F9A9, size: 0x8, addend: 0x0, symName: __ZN4pyo311type_object10PyTypeInfo11type_object17h3fb6b61282d123a5E, symObjAddr: 0x0, symBinAddr: 0x6824, symSize: 0x30 }
  - { offset: 0x1FFC6, size: 0x8, addend: 0x0, symName: '__ZN4core3ptr9const_ptr33_$LT$impl$u20$$BP$const$u20$T$GT$7is_null17ha4f8dec85e618b55E', symObjAddr: 0x0, symBinAddr: 0x6854, symSize: 0x18 }
  - { offset: 0x207F0, size: 0x8, addend: 0x0, symName: '__ZN4core3ptr9const_ptr33_$LT$impl$u20$$BP$const$u20$T$GT$7is_null17ha4f8dec85e618b55E', symObjAddr: 0x0, symBinAddr: 0x6854, symSize: 0x18 }
  - { offset: 0x2090A, size: 0x8, addend: 0x0, symName: '__ZN4core5slice29_$LT$impl$u20$$u5b$T$u5d$$GT$15copy_from_slice17h866f1389ce54445bE', symObjAddr: 0x18, symBinAddr: 0x686C, symSize: 0x34 }
  - { offset: 0x20973, size: 0x8, addend: 0x0, symName: '__ZN4core5slice29_$LT$impl$u20$$u5b$T$u5d$$GT$18split_at_unchecked17hf4507781f6b71155E', symObjAddr: 0x4C, symBinAddr: 0x68A0, symSize: 0xE8 }
  - { offset: 0x20AB8, size: 0x8, addend: 0x0, symName: '__ZN4core5slice29_$LT$impl$u20$$u5b$T$u5d$$GT$8split_at17h8c3c5b700360c097E', symObjAddr: 0x134, symBinAddr: 0x6988, symSize: 0xAC }
  - { offset: 0x2453B, size: 0x8, addend: 0x0, symName: __ZN4core6option6Option4Some17he3598305c962af00E, symObjAddr: 0x1D24, symBinAddr: 0x8578, symSize: 0x1C }
  - { offset: 0x25F3B, size: 0x8, addend: 0x0, symName: '__ZN86_$LT$core..option..Option$LT$T$GT$$u20$as$u20$pyo3..impl_..wrap..SomeWrap$LT$T$GT$$GT$4wrap17h737efc9ef994fcbfE', symObjAddr: 0x1D40, symBinAddr: 0x8594, symSize: 0x14 }
  - { offset: 0x268E9, size: 0x8, addend: 0x0, symName: '__ZN4core6option15Option$LT$T$GT$3map17h7a68331a619329c9E', symObjAddr: 0x1E0, symBinAddr: 0x6A34, symSize: 0x50 }
  - { offset: 0x26961, size: 0x8, addend: 0x0, symName: '__ZN4core6option15Option$LT$T$GT$3map17h81afe907258c84d8E', symObjAddr: 0x230, symBinAddr: 0x6A84, symSize: 0x5C }
  - { offset: 0x269D9, size: 0x8, addend: 0x0, symName: '__ZN4core6option15Option$LT$T$GT$3map17he79ccad6007e8c15E', symObjAddr: 0x28C, symBinAddr: 0x6AE0, symSize: 0x50 }
  - { offset: 0x26E21, size: 0x8, addend: 0x0, symName: '__ZN4core6option15Option$LT$T$GT$4take17h1578b9be7141dcceE', symObjAddr: 0x2DC, symBinAddr: 0x6B30, symSize: 0x40 }
  - { offset: 0x26EB4, size: 0x8, addend: 0x0, symName: '__ZN4core6option15Option$LT$T$GT$6expect17h97c8f241b58a77b0E', symObjAddr: 0x31C, symBinAddr: 0x6B70, symSize: 0x5C }
  - { offset: 0x271B0, size: 0x8, addend: 0x0, symName: '__ZN4core6option15Option$LT$T$GT$6insert17h0489b466b2835851E', symObjAddr: 0x378, symBinAddr: 0x6BCC, symSize: 0xA8 }
  - { offset: 0x272B6, size: 0x8, addend: 0x0, symName: '__ZN4core6option15Option$LT$T$GT$6insert17h05086d12fb1fef36E', symObjAddr: 0x420, symBinAddr: 0x6C74, symSize: 0xA8 }
  - { offset: 0x273BC, size: 0x8, addend: 0x0, symName: '__ZN4core6option15Option$LT$T$GT$6insert17h07b8dca86205018bE', symObjAddr: 0x4C8, symBinAddr: 0x6D1C, symSize: 0xA8 }
  - { offset: 0x27675, size: 0x8, addend: 0x0, symName: '__ZN4core6option15Option$LT$T$GT$6insert17h08a5407763f40c9bE', symObjAddr: 0x570, symBinAddr: 0x6DC4, symSize: 0xA8 }
  - { offset: 0x2777B, size: 0x8, addend: 0x0, symName: '__ZN4core6option15Option$LT$T$GT$6insert17h0a74507efea004dbE', symObjAddr: 0x618, symBinAddr: 0x6E6C, symSize: 0xA8 }
  - { offset: 0x27881, size: 0x8, addend: 0x0, symName: '__ZN4core6option15Option$LT$T$GT$6insert17h13743cc88dd46dc6E', symObjAddr: 0x6C0, symBinAddr: 0x6F14, symSize: 0xA8 }
  - { offset: 0x27987, size: 0x8, addend: 0x0, symName: '__ZN4core6option15Option$LT$T$GT$6insert17h14f7a25235d8f2afE', symObjAddr: 0x768, symBinAddr: 0x6FBC, symSize: 0xA8 }
  - { offset: 0x27A8D, size: 0x8, addend: 0x0, symName: '__ZN4core6option15Option$LT$T$GT$6insert17h22d9aefe7f57ef44E', symObjAddr: 0x810, symBinAddr: 0x7064, symSize: 0xA8 }
  - { offset: 0x27B93, size: 0x8, addend: 0x0, symName: '__ZN4core6option15Option$LT$T$GT$6insert17h36c1f5f4dbe881b9E', symObjAddr: 0x8B8, symBinAddr: 0x710C, symSize: 0xA8 }
  - { offset: 0x27C99, size: 0x8, addend: 0x0, symName: '__ZN4core6option15Option$LT$T$GT$6insert17h3e5951938277768bE', symObjAddr: 0x960, symBinAddr: 0x71B4, symSize: 0xA8 }
  - { offset: 0x27D9F, size: 0x8, addend: 0x0, symName: '__ZN4core6option15Option$LT$T$GT$6insert17h4593376cca286a92E', symObjAddr: 0xA08, symBinAddr: 0x725C, symSize: 0xA8 }
  - { offset: 0x27EA5, size: 0x8, addend: 0x0, symName: '__ZN4core6option15Option$LT$T$GT$6insert17h4a83e529fff1a7a8E', symObjAddr: 0xAB0, symBinAddr: 0x7304, symSize: 0xA8 }
  - { offset: 0x27FAB, size: 0x8, addend: 0x0, symName: '__ZN4core6option15Option$LT$T$GT$6insert17h4ebc4e25574f724cE', symObjAddr: 0xB58, symBinAddr: 0x73AC, symSize: 0xA8 }
  - { offset: 0x280B1, size: 0x8, addend: 0x0, symName: '__ZN4core6option15Option$LT$T$GT$6insert17h50443cb1a257f776E', symObjAddr: 0xC00, symBinAddr: 0x7454, symSize: 0xA8 }
  - { offset: 0x281B7, size: 0x8, addend: 0x0, symName: '__ZN4core6option15Option$LT$T$GT$6insert17h5c292a2b0cd1836eE', symObjAddr: 0xCA8, symBinAddr: 0x74FC, symSize: 0xA8 }
  - { offset: 0x282BD, size: 0x8, addend: 0x0, symName: '__ZN4core6option15Option$LT$T$GT$6insert17h631ea3f68aab1425E', symObjAddr: 0xD50, symBinAddr: 0x75A4, symSize: 0xA8 }
  - { offset: 0x283C3, size: 0x8, addend: 0x0, symName: '__ZN4core6option15Option$LT$T$GT$6insert17h684a3be0a2754571E', symObjAddr: 0xDF8, symBinAddr: 0x764C, symSize: 0xA8 }
  - { offset: 0x284C9, size: 0x8, addend: 0x0, symName: '__ZN4core6option15Option$LT$T$GT$6insert17h757a2a1ca2cffc24E', symObjAddr: 0xEA0, symBinAddr: 0x76F4, symSize: 0xA8 }
  - { offset: 0x285CF, size: 0x8, addend: 0x0, symName: '__ZN4core6option15Option$LT$T$GT$6insert17h814ebf2dfd062f16E', symObjAddr: 0xF48, symBinAddr: 0x779C, symSize: 0xA8 }
  - { offset: 0x286D5, size: 0x8, addend: 0x0, symName: '__ZN4core6option15Option$LT$T$GT$6insert17h81f6d20d1416c53cE', symObjAddr: 0xFF0, symBinAddr: 0x7844, symSize: 0xA8 }
  - { offset: 0x287DB, size: 0x8, addend: 0x0, symName: '__ZN4core6option15Option$LT$T$GT$6insert17h8492a4770589b867E', symObjAddr: 0x1098, symBinAddr: 0x78EC, symSize: 0xA8 }
  - { offset: 0x288E1, size: 0x8, addend: 0x0, symName: '__ZN4core6option15Option$LT$T$GT$6insert17h8c28059860345917E', symObjAddr: 0x1140, symBinAddr: 0x7994, symSize: 0xA8 }
  - { offset: 0x289E7, size: 0x8, addend: 0x0, symName: '__ZN4core6option15Option$LT$T$GT$6insert17h9210b389edabbd38E', symObjAddr: 0x11E8, symBinAddr: 0x7A3C, symSize: 0xA8 }
  - { offset: 0x28AED, size: 0x8, addend: 0x0, symName: '__ZN4core6option15Option$LT$T$GT$6insert17hab9980ea558c6287E', symObjAddr: 0x1290, symBinAddr: 0x7AE4, symSize: 0xA8 }
  - { offset: 0x28BF3, size: 0x8, addend: 0x0, symName: '__ZN4core6option15Option$LT$T$GT$6insert17haeb3f25c58232fa6E', symObjAddr: 0x1338, symBinAddr: 0x7B8C, symSize: 0xA8 }
  - { offset: 0x28CF9, size: 0x8, addend: 0x0, symName: '__ZN4core6option15Option$LT$T$GT$6insert17hc2de8317e95ae48cE', symObjAddr: 0x13E0, symBinAddr: 0x7C34, symSize: 0xA8 }
  - { offset: 0x28DFF, size: 0x8, addend: 0x0, symName: '__ZN4core6option15Option$LT$T$GT$6insert17hc888f9e35d5eb9e1E', symObjAddr: 0x1488, symBinAddr: 0x7CDC, symSize: 0xA8 }
  - { offset: 0x28F05, size: 0x8, addend: 0x0, symName: '__ZN4core6option15Option$LT$T$GT$6insert17hcee7be951f5f25edE', symObjAddr: 0x1530, symBinAddr: 0x7D84, symSize: 0xA8 }
  - { offset: 0x2900B, size: 0x8, addend: 0x0, symName: '__ZN4core6option15Option$LT$T$GT$6insert17hcfb377bf6d1ad580E', symObjAddr: 0x15D8, symBinAddr: 0x7E2C, symSize: 0xA8 }
  - { offset: 0x29111, size: 0x8, addend: 0x0, symName: '__ZN4core6option15Option$LT$T$GT$6insert17hd75875d0a981950eE', symObjAddr: 0x1680, symBinAddr: 0x7ED4, symSize: 0xA8 }
  - { offset: 0x29217, size: 0x8, addend: 0x0, symName: '__ZN4core6option15Option$LT$T$GT$6insert17hdb1a549a92b000f8E', symObjAddr: 0x1728, symBinAddr: 0x7F7C, symSize: 0xA8 }
  - { offset: 0x2931D, size: 0x8, addend: 0x0, symName: '__ZN4core6option15Option$LT$T$GT$6insert17hde0d5eaed301fe5aE', symObjAddr: 0x17D0, symBinAddr: 0x8024, symSize: 0xA8 }
  - { offset: 0x29423, size: 0x8, addend: 0x0, symName: '__ZN4core6option15Option$LT$T$GT$6insert17he169bb7eace40b9bE', symObjAddr: 0x1878, symBinAddr: 0x80CC, symSize: 0xA8 }
  - { offset: 0x29529, size: 0x8, addend: 0x0, symName: '__ZN4core6option15Option$LT$T$GT$6insert17he39b1f5b7766f038E', symObjAddr: 0x1920, symBinAddr: 0x8174, symSize: 0xA8 }
  - { offset: 0x2962F, size: 0x8, addend: 0x0, symName: '__ZN4core6option15Option$LT$T$GT$6insert17he55821c94aa8ab66E', symObjAddr: 0x19C8, symBinAddr: 0x821C, symSize: 0xA8 }
  - { offset: 0x29735, size: 0x8, addend: 0x0, symName: '__ZN4core6option15Option$LT$T$GT$6insert17hf2f8974eb64acf1bE', symObjAddr: 0x1A70, symBinAddr: 0x82C4, symSize: 0xA8 }
  - { offset: 0x2983B, size: 0x8, addend: 0x0, symName: '__ZN4core6option15Option$LT$T$GT$6insert17hf622c9f24631ed22E', symObjAddr: 0x1B18, symBinAddr: 0x836C, symSize: 0xA8 }
  - { offset: 0x29989, size: 0x8, addend: 0x0, symName: '__ZN4core6option15Option$LT$T$GT$6insert17hfc5b2a11570aac55E', symObjAddr: 0x1BC0, symBinAddr: 0x8414, symSize: 0xA8 }
  - { offset: 0x29A2C, size: 0x8, addend: 0x0, symName: '__ZN4core6option15Option$LT$T$GT$7is_some17h20c7c602e5b62d63E', symObjAddr: 0x1C68, symBinAddr: 0x84BC, symSize: 0x28 }
  - { offset: 0x29A65, size: 0x8, addend: 0x0, symName: '__ZN4core6option15Option$LT$T$GT$7replace17hc3a65b07c2d7426aE', symObjAddr: 0x1C90, symBinAddr: 0x84E4, symSize: 0x28 }
  - { offset: 0x29B78, size: 0x8, addend: 0x0, symName: '__ZN4core6option15Option$LT$T$GT$8as_deref17h7de2f95d315480baE', symObjAddr: 0x1CB8, symBinAddr: 0x850C, symSize: 0x6C }
  - { offset: 0x29C5D, size: 0x8, addend: 0x0, symName: __ZN4core5slice20copy_from_slice_impl17hb4fbcfa30ae44dcaE, symObjAddr: 0x0, symBinAddr: 0x85A8, symSize: 0xAC }
  - { offset: 0x2A49F, size: 0x8, addend: 0x0, symName: __ZN4core5slice20copy_from_slice_impl17hb4fbcfa30ae44dcaE, symObjAddr: 0x0, symBinAddr: 0x85A8, symSize: 0xAC }
  - { offset: 0x2B585, size: 0x8, addend: 0x0, symName: __ZN6_oryon7targets12FutureReturn11input_names17h737f28a83b3dcfe9E, symObjAddr: 0x0, symBinAddr: 0x8654, symSize: 0x24 }
  - { offset: 0x2B5B3, size: 0x8, addend: 0x0, symName: '__ZN6_oryon7targets178_$LT$impl$u20$pyo3..impl_..pyclass..PyMethods$LT$_oryon..targets..FutureReturn$GT$$u20$for$u20$pyo3..impl_..pyclass..PyClassImplCollector$LT$_oryon..targets..FutureReturn$GT$$GT$10py_methods5ITEMS17h8a3e0bbf56099946E', symObjAddr: 0x4438, symBinAddr: 0x190680, symSize: 0x0 }
  - { offset: 0x2B5C5, size: 0x8, addend: 0x0, symName: '__ZN6_oryon7targets178_$LT$impl$u20$pyo3..impl_..pyclass..PyMethods$LT$_oryon..targets..FutureReturn$GT$$u20$for$u20$pyo3..impl_..pyclass..PyClassImplCollector$LT$_oryon..targets..FutureReturn$GT$$GT$10py_methods5ITEMS10trampoline17h33d487583cc2210eE', symObjAddr: 0x1170, symBinAddr: 0x97C4, symSize: 0x4C }
  - { offset: 0x2B60D, size: 0x8, addend: 0x0, symName: '__ZN6_oryon7targets178_$LT$impl$u20$pyo3..impl_..pyclass..PyMethods$LT$_oryon..targets..FutureReturn$GT$$u20$for$u20$pyo3..impl_..pyclass..PyClassImplCollector$LT$_oryon..targets..FutureReturn$GT$$GT$10py_methods5ITEMS10trampoline17h6667f85b929738e8E', symObjAddr: 0x11BC, symBinAddr: 0x9810, symSize: 0x44 }
  - { offset: 0x2B647, size: 0x8, addend: 0x0, symName: '__ZN6_oryon7targets178_$LT$impl$u20$pyo3..impl_..pyclass..PyMethods$LT$_oryon..targets..FutureReturn$GT$$u20$for$u20$pyo3..impl_..pyclass..PyClassImplCollector$LT$_oryon..targets..FutureReturn$GT$$GT$10py_methods5ITEMS10trampoline17h772f7813a9da0d47E', symObjAddr: 0x1200, symBinAddr: 0x9854, symSize: 0x44 }
  - { offset: 0x2B681, size: 0x8, addend: 0x0, symName: '__ZN6_oryon7targets178_$LT$impl$u20$pyo3..impl_..pyclass..PyMethods$LT$_oryon..targets..FutureReturn$GT$$u20$for$u20$pyo3..impl_..pyclass..PyClassImplCollector$LT$_oryon..targets..FutureReturn$GT$$GT$10py_methods5ITEMS10trampoline17h895cfc9765bb5e77E', symObjAddr: 0x1244, symBinAddr: 0x9898, symSize: 0x3C }
  - { offset: 0x2B6AD, size: 0x8, addend: 0x0, symName: '__ZN6_oryon7targets178_$LT$impl$u20$pyo3..impl_..pyclass..PyMethods$LT$_oryon..targets..FutureReturn$GT$$u20$for$u20$pyo3..impl_..pyclass..PyClassImplCollector$LT$_oryon..targets..FutureReturn$GT$$GT$10py_methods5ITEMS10trampoline17hd8820e43d4f51d0dE', symObjAddr: 0x1280, symBinAddr: 0x98D4, symSize: 0x44 }
  - { offset: 0x2B701, size: 0x8, addend: 0x0, symName: '__ZN6_oryon7targets188_$LT$impl$u20$pyo3..impl_..pyclass..PyMethods$LT$_oryon..targets..FutureLinearSlope$GT$$u20$for$u20$pyo3..impl_..pyclass..PyClassImplCollector$LT$_oryon..targets..FutureLinearSlope$GT$$GT$10py_methods5ITEMS17h0fd3b8db0c95e5a6E', symObjAddr: 0x4600, symBinAddr: 0x190848, symSize: 0x0 }
  - { offset: 0x2B713, size: 0x8, addend: 0x0, symName: '__ZN6_oryon7targets188_$LT$impl$u20$pyo3..impl_..pyclass..PyMethods$LT$_oryon..targets..FutureLinearSlope$GT$$u20$for$u20$pyo3..impl_..pyclass..PyClassImplCollector$LT$_oryon..targets..FutureLinearSlope$GT$$GT$10py_methods5ITEMS10trampoline17h38af901c960532ddE', symObjAddr: 0x2434, symBinAddr: 0xAA88, symSize: 0x44 }
  - { offset: 0x2B74D, size: 0x8, addend: 0x0, symName: '__ZN6_oryon7targets188_$LT$impl$u20$pyo3..impl_..pyclass..PyMethods$LT$_oryon..targets..FutureLinearSlope$GT$$u20$for$u20$pyo3..impl_..pyclass..PyClassImplCollector$LT$_oryon..targets..FutureLinearSlope$GT$$GT$10py_methods5ITEMS10trampoline17h606a8f9029c3188aE', symObjAddr: 0x2478, symBinAddr: 0xAACC, symSize: 0x44 }
  - { offset: 0x2B787, size: 0x8, addend: 0x0, symName: '__ZN6_oryon7targets188_$LT$impl$u20$pyo3..impl_..pyclass..PyMethods$LT$_oryon..targets..FutureLinearSlope$GT$$u20$for$u20$pyo3..impl_..pyclass..PyClassImplCollector$LT$_oryon..targets..FutureLinearSlope$GT$$GT$10py_methods5ITEMS10trampoline17h6fb486010eb4c2d7E', symObjAddr: 0x24BC, symBinAddr: 0xAB10, symSize: 0x3C }
  - { offset: 0x2B7B3, size: 0x8, addend: 0x0, symName: '__ZN6_oryon7targets188_$LT$impl$u20$pyo3..impl_..pyclass..PyMethods$LT$_oryon..targets..FutureLinearSlope$GT$$u20$for$u20$pyo3..impl_..pyclass..PyClassImplCollector$LT$_oryon..targets..FutureLinearSlope$GT$$GT$10py_methods5ITEMS10trampoline17h75b5c8d892e94719E', symObjAddr: 0x24F8, symBinAddr: 0xAB4C, symSize: 0x44 }
  - { offset: 0x2B7ED, size: 0x8, addend: 0x0, symName: '__ZN6_oryon7targets188_$LT$impl$u20$pyo3..impl_..pyclass..PyMethods$LT$_oryon..targets..FutureLinearSlope$GT$$u20$for$u20$pyo3..impl_..pyclass..PyClassImplCollector$LT$_oryon..targets..FutureLinearSlope$GT$$GT$10py_methods5ITEMS10trampoline17hbdbaea6160250ca5E', symObjAddr: 0x253C, symBinAddr: 0xAB90, symSize: 0x4C }
  - { offset: 0x2B84F, size: 0x8, addend: 0x0, symName: '__ZN6_oryon7targets192_$LT$impl$u20$pyo3..impl_..pyclass..PyMethods$LT$_oryon..targets..FutureCTCVolatility$GT$$u20$for$u20$pyo3..impl_..pyclass..PyClassImplCollector$LT$_oryon..targets..FutureCTCVolatility$GT$$GT$10py_methods5ITEMS17ha0dc04a0236b69e5E', symObjAddr: 0x4700, symBinAddr: 0x190948, symSize: 0x0 }
  - { offset: 0x2B861, size: 0x8, addend: 0x0, symName: '__ZN6_oryon7targets192_$LT$impl$u20$pyo3..impl_..pyclass..PyMethods$LT$_oryon..targets..FutureCTCVolatility$GT$$u20$for$u20$pyo3..impl_..pyclass..PyClassImplCollector$LT$_oryon..targets..FutureCTCVolatility$GT$$GT$10py_methods5ITEMS10trampoline17h5a20458a9c8a404aE', symObjAddr: 0x2588, symBinAddr: 0xABDC, symSize: 0x44 }
  - { offset: 0x2B89B, size: 0x8, addend: 0x0, symName: '__ZN6_oryon7targets192_$LT$impl$u20$pyo3..impl_..pyclass..PyMethods$LT$_oryon..targets..FutureCTCVolatility$GT$$u20$for$u20$pyo3..impl_..pyclass..PyClassImplCollector$LT$_oryon..targets..FutureCTCVolatility$GT$$GT$10py_methods5ITEMS10trampoline17h71620313de48fea2E', symObjAddr: 0x25CC, symBinAddr: 0xAC20, symSize: 0x4C }
  - { offset: 0x2B8E3, size: 0x8, addend: 0x0, symName: '__ZN6_oryon7targets192_$LT$impl$u20$pyo3..impl_..pyclass..PyMethods$LT$_oryon..targets..FutureCTCVolatility$GT$$u20$for$u20$pyo3..impl_..pyclass..PyClassImplCollector$LT$_oryon..targets..FutureCTCVolatility$GT$$GT$10py_methods5ITEMS10trampoline17h9874dadfe55e1e61E', symObjAddr: 0x2618, symBinAddr: 0xAC6C, symSize: 0x44 }
  - { offset: 0x2B91D, size: 0x8, addend: 0x0, symName: '__ZN6_oryon7targets192_$LT$impl$u20$pyo3..impl_..pyclass..PyMethods$LT$_oryon..targets..FutureCTCVolatility$GT$$u20$for$u20$pyo3..impl_..pyclass..PyClassImplCollector$LT$_oryon..targets..FutureCTCVolatility$GT$$GT$10py_methods5ITEMS10trampoline17hb49e5ffefe1e0a0fE', symObjAddr: 0x265C, symBinAddr: 0xACB0, symSize: 0x44 }
  - { offset: 0x2B957, size: 0x8, addend: 0x0, symName: '__ZN6_oryon7targets192_$LT$impl$u20$pyo3..impl_..pyclass..PyMethods$LT$_oryon..targets..FutureCTCVolatility$GT$$u20$for$u20$pyo3..impl_..pyclass..PyClassImplCollector$LT$_oryon..targets..FutureCTCVolatility$GT$$GT$10py_methods5ITEMS10trampoline17hc55e2b84d0f1146cE', symObjAddr: 0x26A0, symBinAddr: 0xACF4, symSize: 0x3C }
  - { offset: 0x2B99D, size: 0x8, addend: 0x0, symName: '__ZN83_$LT$_oryon..targets..FutureReturn$u20$as$u20$pyo3..impl_..pyclass..PyClassImpl$GT$10items_iter15INTRINSIC_ITEMS17hc4c8de5d7af07ba6E', symObjAddr: 0x4200, symBinAddr: 0x124A38, symSize: 0x0 }
  - { offset: 0x2B9BD, size: 0x8, addend: 0x0, symName: '__ZN83_$LT$_oryon..targets..FutureReturn$u20$as$u20$pyo3..impl_..pyclass..PyClassImpl$GT$16lazy_type_object11TYPE_OBJECT17h5a0cfe938130128fE', symObjAddr: 0x49F0, symBinAddr: 0x19C3B0, symSize: 0x0 }
  - { offset: 0x2B9DD, size: 0x8, addend: 0x0, symName: '__ZN83_$LT$_oryon..targets..FutureReturn$u20$as$u20$pyo3..impl_..pyclass..PyClassImpl$GT$3doc3DOC17h1e6a43607a3270c6E', symObjAddr: 0x4A48, symBinAddr: 0x19C408, symSize: 0x0 }
  - { offset: 0x2B9EB, size: 0x8, addend: 0x0, symName: '__ZN83_$LT$_oryon..targets..FutureReturn$u20$as$u20$pyo3..impl_..pyclass..PyClassImpl$GT$10items_iter17h327094740d3e4700E', symObjAddr: 0x390C, symBinAddr: 0xBF60, symSize: 0x38 }
  - { offset: 0x2BA26, size: 0x8, addend: 0x0, symName: '__ZN83_$LT$_oryon..targets..FutureReturn$u20$as$u20$pyo3..impl_..pyclass..PyClassImpl$GT$16lazy_type_object17ha59db06ce89ca74eE', symObjAddr: 0x3944, symBinAddr: 0xBF98, symSize: 0xC }
  - { offset: 0x2BA43, size: 0x8, addend: 0x0, symName: '__ZN83_$LT$_oryon..targets..FutureReturn$u20$as$u20$pyo3..impl_..pyclass..PyClassImpl$GT$3doc17h425ebc41e9e86a4fE', symObjAddr: 0x3950, symBinAddr: 0xBFA4, symSize: 0x3C }
  - { offset: 0x2BBBE, size: 0x8, addend: 0x0, symName: '__ZN88_$LT$_oryon..targets..FutureLinearSlope$u20$as$u20$pyo3..impl_..pyclass..PyClassImpl$GT$10items_iter15INTRINSIC_ITEMS17h6042dd650ff6a028E', symObjAddr: 0x4220, symBinAddr: 0x124A58, symSize: 0x0 }
  - { offset: 0x2BBDE, size: 0x8, addend: 0x0, symName: '__ZN88_$LT$_oryon..targets..FutureLinearSlope$u20$as$u20$pyo3..impl_..pyclass..PyClassImpl$GT$16lazy_type_object11TYPE_OBJECT17h2e0eeb6848105df3E', symObjAddr: 0x4A68, symBinAddr: 0x19C428, symSize: 0x0 }
  - { offset: 0x2BBFE, size: 0x8, addend: 0x0, symName: '__ZN88_$LT$_oryon..targets..FutureLinearSlope$u20$as$u20$pyo3..impl_..pyclass..PyClassImpl$GT$3doc3DOC17hce2d92c5e582a5f3E', symObjAddr: 0x4AC0, symBinAddr: 0x19C480, symSize: 0x0 }
  - { offset: 0x2BC0C, size: 0x8, addend: 0x0, symName: '__ZN88_$LT$_oryon..targets..FutureLinearSlope$u20$as$u20$pyo3..impl_..pyclass..PyClassImpl$GT$10items_iter17h945d97309cdc1143E', symObjAddr: 0x39D4, symBinAddr: 0xC028, symSize: 0x38 }
  - { offset: 0x2BC47, size: 0x8, addend: 0x0, symName: '__ZN88_$LT$_oryon..targets..FutureLinearSlope$u20$as$u20$pyo3..impl_..pyclass..PyClassImpl$GT$16lazy_type_object17hd6a66dc80de562abE', symObjAddr: 0x3A0C, symBinAddr: 0xC060, symSize: 0xC }
  - { offset: 0x2BC64, size: 0x8, addend: 0x0, symName: '__ZN88_$LT$_oryon..targets..FutureLinearSlope$u20$as$u20$pyo3..impl_..pyclass..PyClassImpl$GT$3doc17he4044b8a7d3b39c7E', symObjAddr: 0x3A18, symBinAddr: 0xC06C, symSize: 0x3C }
  - { offset: 0x2BDDF, size: 0x8, addend: 0x0, symName: '__ZN90_$LT$_oryon..targets..FutureCTCVolatility$u20$as$u20$pyo3..impl_..pyclass..PyClassImpl$GT$10items_iter15INTRINSIC_ITEMS17h57da74d4a49a8853E', symObjAddr: 0x4240, symBinAddr: 0x124A78, symSize: 0x0 }
  - { offset: 0x2BDFF, size: 0x8, addend: 0x0, symName: '__ZN90_$LT$_oryon..targets..FutureCTCVolatility$u20$as$u20$pyo3..impl_..pyclass..PyClassImpl$GT$16lazy_type_object11TYPE_OBJECT17hc9c19ea86254a33eE', symObjAddr: 0x4AE0, symBinAddr: 0x19C4A0, symSize: 0x0 }
  - { offset: 0x2BE1F, size: 0x8, addend: 0x0, symName: '__ZN90_$LT$_oryon..targets..FutureCTCVolatility$u20$as$u20$pyo3..impl_..pyclass..PyClassImpl$GT$3doc3DOC17h3a5e6a406b95019cE', symObjAddr: 0x4B38, symBinAddr: 0x19C4F8, symSize: 0x0 }
  - { offset: 0x2BE2D, size: 0x8, addend: 0x0, symName: '__ZN90_$LT$_oryon..targets..FutureCTCVolatility$u20$as$u20$pyo3..impl_..pyclass..PyClassImpl$GT$10items_iter17h31d8d5ceb18ecc5cE', symObjAddr: 0x3A54, symBinAddr: 0xC0A8, symSize: 0x38 }
  - { offset: 0x2BE68, size: 0x8, addend: 0x0, symName: '__ZN90_$LT$_oryon..targets..FutureCTCVolatility$u20$as$u20$pyo3..impl_..pyclass..PyClassImpl$GT$16lazy_type_object17h3d1572e260027384E', symObjAddr: 0x3A8C, symBinAddr: 0xC0E0, symSize: 0xC }
  - { offset: 0x2BE85, size: 0x8, addend: 0x0, symName: '__ZN90_$LT$_oryon..targets..FutureCTCVolatility$u20$as$u20$pyo3..impl_..pyclass..PyClassImpl$GT$3doc17hf99c2aa67933323bE', symObjAddr: 0x3A98, symBinAddr: 0xC0EC, symSize: 0x3C }
  - { offset: 0x2BFE9, size: 0x8, addend: 0x0, symName: '__ZN79_$LT$_oryon..targets..FutureReturn$u20$as$u20$pyo3..type_object..PyTypeInfo$GT$15type_object_raw17h3820c61fbe1ab331E', symObjAddr: 0x38E8, symBinAddr: 0xBF3C, symSize: 0x24 }
  - { offset: 0x2C026, size: 0x8, addend: 0x0, symName: '__ZN84_$LT$_oryon..targets..FutureLinearSlope$u20$as$u20$pyo3..type_object..PyTypeInfo$GT$15type_object_raw17h0664422eb5f3ee5eE', symObjAddr: 0x398C, symBinAddr: 0xBFE0, symSize: 0x24 }
  - { offset: 0x2C063, size: 0x8, addend: 0x0, symName: '__ZN86_$LT$_oryon..targets..FutureCTCVolatility$u20$as$u20$pyo3..type_object..PyTypeInfo$GT$15type_object_raw17ha28cb31ff684ee69E', symObjAddr: 0x39B0, symBinAddr: 0xC004, symSize: 0x24 }
  - { offset: 0x2F61B, size: 0x8, addend: 0x0, symName: __ZN6_oryon7targets12FutureReturn11input_names17h737f28a83b3dcfe9E, symObjAddr: 0x0, symBinAddr: 0x8654, symSize: 0x24 }
  - { offset: 0x2F63D, size: 0x8, addend: 0x0, symName: __ZN6_oryon7targets12FutureReturn12output_names17ha067c46ebecb894eE, symObjAddr: 0x24, symBinAddr: 0x8678, symSize: 0x24 }
  - { offset: 0x2F65F, size: 0x8, addend: 0x0, symName: __ZN6_oryon7targets12FutureReturn14forward_period17h665a43f4af29a6c2E, symObjAddr: 0x48, symBinAddr: 0x869C, symSize: 0x18 }
  - { offset: 0x2F681, size: 0x8, addend: 0x0, symName: __ZN6_oryon7targets12FutureReturn20__pymethod___new____17h4ba4365d366de744E, symObjAddr: 0x60, symBinAddr: 0x86B4, symSize: 0x598 }
  - { offset: 0x2F877, size: 0x8, addend: 0x0, symName: __ZN6_oryon7targets12FutureReturn21__pymethod___repr____17h9236b91e74c0b80dE, symObjAddr: 0x5F8, symBinAddr: 0x8C4C, symSize: 0x178 }
  - { offset: 0x2F931, size: 0x8, addend: 0x0, symName: __ZN6_oryon7targets12FutureReturn24__pymethod_input_names__17hdc2635d1c9f003f2E, symObjAddr: 0x770, symBinAddr: 0x8DC4, symSize: 0x290 }
  - { offset: 0x2FA19, size: 0x8, addend: 0x0, symName: __ZN6_oryon7targets12FutureReturn25__pymethod_output_names__17h45aaed26f74639bbE, symObjAddr: 0xA00, symBinAddr: 0x9054, symSize: 0x290 }
  - { offset: 0x2FB01, size: 0x8, addend: 0x0, symName: __ZN6_oryon7targets12FutureReturn27__pymethod_forward_period__17hc8486ca6d36a9449E, symObjAddr: 0xC90, symBinAddr: 0x92E4, symSize: 0x214 }
  - { offset: 0x2FBF1, size: 0x8, addend: 0x0, symName: __ZN6_oryon7targets12FutureReturn3new17hebaf6658c2f8efbcE, symObjAddr: 0xEA4, symBinAddr: 0x94F8, symSize: 0x22C }
  - { offset: 0x2FC6E, size: 0x8, addend: 0x0, symName: __ZN6_oryon7targets12FutureReturn8__repr__17hef798f9a8e405b59E, symObjAddr: 0x10D0, symBinAddr: 0x9724, symSize: 0xA0 }
  - { offset: 0x2FCF5, size: 0x8, addend: 0x0, symName: __ZN6_oryon7targets17FutureLinearSlope11input_names17h6278b12bb8eea4c8E, symObjAddr: 0x12C4, symBinAddr: 0x9918, symSize: 0x24 }
  - { offset: 0x2FD17, size: 0x8, addend: 0x0, symName: __ZN6_oryon7targets17FutureLinearSlope12output_names17h9a8c5a34c266c4f5E, symObjAddr: 0x12E8, symBinAddr: 0x993C, symSize: 0x24 }
  - { offset: 0x2FD39, size: 0x8, addend: 0x0, symName: __ZN6_oryon7targets17FutureLinearSlope14forward_period17h59bb7ca2c3b3b9e2E, symObjAddr: 0x130C, symBinAddr: 0x9960, symSize: 0x18 }
  - { offset: 0x2FD5B, size: 0x8, addend: 0x0, symName: __ZN6_oryon7targets17FutureLinearSlope20__pymethod___new____17h1f40f1363fc4d3c7E, symObjAddr: 0x1324, symBinAddr: 0x9978, symSize: 0x598 }
  - { offset: 0x2FF51, size: 0x8, addend: 0x0, symName: __ZN6_oryon7targets17FutureLinearSlope21__pymethod___repr____17h5d617343a8f39220E, symObjAddr: 0x18BC, symBinAddr: 0x9F10, symSize: 0x178 }
  - { offset: 0x3000B, size: 0x8, addend: 0x0, symName: __ZN6_oryon7targets17FutureLinearSlope24__pymethod_input_names__17h4ba1f3d63557b6f2E, symObjAddr: 0x1A34, symBinAddr: 0xA088, symSize: 0x290 }
  - { offset: 0x300F3, size: 0x8, addend: 0x0, symName: __ZN6_oryon7targets17FutureLinearSlope25__pymethod_output_names__17h68838f678938d566E, symObjAddr: 0x1CC4, symBinAddr: 0xA318, symSize: 0x290 }
  - { offset: 0x301DB, size: 0x8, addend: 0x0, symName: __ZN6_oryon7targets17FutureLinearSlope27__pymethod_forward_period__17hfd397272b09ad866E, symObjAddr: 0x1F54, symBinAddr: 0xA5A8, symSize: 0x214 }
  - { offset: 0x302CB, size: 0x8, addend: 0x0, symName: __ZN6_oryon7targets17FutureLinearSlope3new17h48c48451e01ea93dE, symObjAddr: 0x2168, symBinAddr: 0xA7BC, symSize: 0x22C }
  - { offset: 0x30348, size: 0x8, addend: 0x0, symName: __ZN6_oryon7targets17FutureLinearSlope8__repr__17h1653dc4d2d4711ecE, symObjAddr: 0x2394, symBinAddr: 0xA9E8, symSize: 0xA0 }
  - { offset: 0x303CF, size: 0x8, addend: 0x0, symName: __ZN6_oryon7targets19FutureCTCVolatility11input_names17hba6954659d12c47aE, symObjAddr: 0x26DC, symBinAddr: 0xAD30, symSize: 0xF0 }
  - { offset: 0x303F1, size: 0x8, addend: 0x0, symName: __ZN6_oryon7targets19FutureCTCVolatility12output_names17h366fc136fbfbd90fE, symObjAddr: 0x27CC, symBinAddr: 0xAE20, symSize: 0xF4 }
  - { offset: 0x30413, size: 0x8, addend: 0x0, symName: __ZN6_oryon7targets19FutureCTCVolatility14forward_period17habe4cd1886fe2cc0E, symObjAddr: 0x28C0, symBinAddr: 0xAF14, symSize: 0x18 }
  - { offset: 0x30435, size: 0x8, addend: 0x0, symName: __ZN6_oryon7targets19FutureCTCVolatility20__pymethod___new____17h34ddf011b3e09139E, symObjAddr: 0x28D8, symBinAddr: 0xAF2C, symSize: 0x478 }
  - { offset: 0x305F7, size: 0x8, addend: 0x0, symName: __ZN6_oryon7targets19FutureCTCVolatility21__pymethod___repr____17h708c72f12bd8fcc0E, symObjAddr: 0x2D50, symBinAddr: 0xB3A4, symSize: 0x178 }
  - { offset: 0x306B1, size: 0x8, addend: 0x0, symName: __ZN6_oryon7targets19FutureCTCVolatility24__pymethod_input_names__17h0e428ef4e8bf80d7E, symObjAddr: 0x2EC8, symBinAddr: 0xB51C, symSize: 0x290 }
  - { offset: 0x30799, size: 0x8, addend: 0x0, symName: __ZN6_oryon7targets19FutureCTCVolatility25__pymethod_output_names__17h0958b5ee3c4b8cb8E, symObjAddr: 0x3158, symBinAddr: 0xB7AC, symSize: 0x290 }
  - { offset: 0x30881, size: 0x8, addend: 0x0, symName: __ZN6_oryon7targets19FutureCTCVolatility27__pymethod_forward_period__17h77a349ea50017179E, symObjAddr: 0x33E8, symBinAddr: 0xBA3C, symSize: 0x214 }
  - { offset: 0x30971, size: 0x8, addend: 0x0, symName: __ZN6_oryon7targets19FutureCTCVolatility3new17h337aedc9c1d56a93E, symObjAddr: 0x35FC, symBinAddr: 0xBC50, symSize: 0x268 }
  - { offset: 0x30A13, size: 0x8, addend: 0x0, symName: __ZN6_oryon7targets19FutureCTCVolatility8__repr__17h09e7d26d9fdc1cedE, symObjAddr: 0x3864, symBinAddr: 0xBEB8, symSize: 0x84 }
  - { offset: 0x30DFE, size: 0x8, addend: 0x0, symName: '__ZN100_$LT$core..iter..adapters..take..Take$LT$I$GT$$u20$as$u20$core..iter..traits..iterator..Iterator$GT$4next17hfb81ae5b8e9fbc36E', symObjAddr: 0x0, symBinAddr: 0xC128, symSize: 0x58 }
  - { offset: 0x315FB, size: 0x8, addend: 0x0, symName: '__ZN100_$LT$core..iter..adapters..take..Take$LT$I$GT$$u20$as$u20$core..iter..traits..iterator..Iterator$GT$4next17hfb81ae5b8e9fbc36E', symObjAddr: 0x0, symBinAddr: 0xC128, symSize: 0x58 }
  - { offset: 0x31630, size: 0x8, addend: 0x0, symName: '__ZN100_$LT$core..iter..adapters..take..Take$LT$I$GT$$u20$as$u20$core..iter..traits..iterator..Iterator$GT$8try_fold17h24e553a408187e00E', symObjAddr: 0x58, symBinAddr: 0xC180, symSize: 0x100 }
  - { offset: 0x316E8, size: 0x8, addend: 0x0, symName: '__ZN100_$LT$core..iter..adapters..take..Take$LT$I$GT$$u20$as$u20$core..iter..traits..iterator..Iterator$GT$8try_fold17h4f2e3dd042e9810eE', symObjAddr: 0x158, symBinAddr: 0xC280, symSize: 0x100 }
  - { offset: 0x317A0, size: 0x8, addend: 0x0, symName: '__ZN100_$LT$core..iter..adapters..take..Take$LT$I$GT$$u20$as$u20$core..iter..traits..iterator..Iterator$GT$8try_fold17hbdecb3f21d0fdc57E', symObjAddr: 0x258, symBinAddr: 0xC380, symSize: 0x100 }
  - { offset: 0x31862, size: 0x8, addend: 0x0, symName: '__ZN100_$LT$core..iter..adapters..take..Take$LT$I$GT$$u20$as$u20$core..iter..traits..iterator..Iterator$GT$8try_fold5check28_$u7b$$u7b$closure$u7d$$u7d$17h127c5e9458ec4355E', symObjAddr: 0x358, symBinAddr: 0xC480, symSize: 0x138 }
  - { offset: 0x31942, size: 0x8, addend: 0x0, symName: '__ZN100_$LT$core..iter..adapters..take..Take$LT$I$GT$$u20$as$u20$core..iter..traits..iterator..Iterator$GT$8try_fold5check28_$u7b$$u7b$closure$u7d$$u7d$17h269959574c1f0cdeE', symObjAddr: 0x490, symBinAddr: 0xC5B8, symSize: 0x138 }
  - { offset: 0x31A22, size: 0x8, addend: 0x0, symName: '__ZN100_$LT$core..iter..adapters..take..Take$LT$I$GT$$u20$as$u20$core..iter..traits..iterator..Iterator$GT$8try_fold5check28_$u7b$$u7b$closure$u7d$$u7d$17h2b857847ecf420a8E', symObjAddr: 0x5C8, symBinAddr: 0xC6F0, symSize: 0x138 }
  - { offset: 0x31CAB, size: 0x8, addend: 0x0, symName: __ZN4core4iter6traits8iterator8Iterator9enumerate17h39e28e1814116653E, symObjAddr: 0x700, symBinAddr: 0xC828, symSize: 0x18 }
  - { offset: 0x31CDC, size: 0x8, addend: 0x0, symName: __ZN4core4iter6traits8iterator8Iterator9enumerate17h39e28e1814116653E, symObjAddr: 0x700, symBinAddr: 0xC828, symSize: 0x18 }
  - { offset: 0x33C06, size: 0x8, addend: 0x0, symName: '__ZN87_$LT$$BP$mut$u20$pyo3_ffi..object..PyObject$u20$as$u20$pyo3..ffi_ptr_ext..FfiPtrExt$GT$12assume_owned17hbff45f7ece1955d4E', symObjAddr: 0x0, symBinAddr: 0xC840, symSize: 0x24 }
  - { offset: 0x33C59, size: 0x8, addend: 0x0, symName: __ZN8pyo3_ffi6object10Py_IS_TYPE17h8c142a41a5c43003E, symObjAddr: 0x90, symBinAddr: 0xC8D0, symSize: 0x38 }
  - { offset: 0x33C93, size: 0x8, addend: 0x0, symName: __ZN8pyo3_ffi6object18PyObject_TypeCheck17h92e24f65daf0b1b0E, symObjAddr: 0xC8, symBinAddr: 0xC908, symSize: 0x70 }
  - { offset: 0x33CD0, size: 0x8, addend: 0x0, symName: __ZN8pyo3_ffi6object7Py_None17h21a46a0d447cb250E, symObjAddr: 0x138, symBinAddr: 0xC978, symSize: 0xC }
  - { offset: 0x33CEE, size: 0x8, addend: 0x0, symName: __ZN8pyo3_ffi6object7Py_TYPE17h4d8a7a6bd8029079E, symObjAddr: 0x144, symBinAddr: 0xC984, symSize: 0x74 }
  - { offset: 0x34ED6, size: 0x8, addend: 0x0, symName: '__ZN87_$LT$$BP$mut$u20$pyo3_ffi..object..PyObject$u20$as$u20$pyo3..ffi_ptr_ext..FfiPtrExt$GT$12assume_owned17hbff45f7ece1955d4E', symObjAddr: 0x0, symBinAddr: 0xC840, symSize: 0x24 }
  - { offset: 0x34F1B, size: 0x8, addend: 0x0, symName: '__ZN87_$LT$$BP$mut$u20$pyo3_ffi..object..PyObject$u20$as$u20$pyo3..ffi_ptr_ext..FfiPtrExt$GT$15assume_borrowed17he3612793ce8e16e4E', symObjAddr: 0x24, symBinAddr: 0xC864, symSize: 0x24 }
  - { offset: 0x34F60, size: 0x8, addend: 0x0, symName: '__ZN87_$LT$$BP$mut$u20$pyo3_ffi..object..PyObject$u20$as$u20$pyo3..ffi_ptr_ext..FfiPtrExt$GT$22assume_borrowed_or_opt17hb25f05b6bec4f54eE', symObjAddr: 0x48, symBinAddr: 0xC888, symSize: 0x24 }
  - { offset: 0x34FA5, size: 0x8, addend: 0x0, symName: '__ZN87_$LT$$BP$mut$u20$pyo3_ffi..object..PyObject$u20$as$u20$pyo3..ffi_ptr_ext..FfiPtrExt$GT$25assume_borrowed_unchecked17h93ba39467a2e5e71E', symObjAddr: 0x6C, symBinAddr: 0xC8AC, symSize: 0x24 }
  - { offset: 0x355EF, size: 0x8, addend: 0x0, symName: '__ZN6_oryon6_oryon11__pyo3_init28_$u7b$$u7b$closure$u7d$$u7d$17ha2ebca988b404194E', symObjAddr: 0x0, symBinAddr: 0xC9F8, symSize: 0x30 }
  - { offset: 0x369EE, size: 0x8, addend: 0x0, symName: '__ZN6_oryon6_oryon11__pyo3_init28_$u7b$$u7b$closure$u7d$$u7d$17ha2ebca988b404194E', symObjAddr: 0x0, symBinAddr: 0xC9F8, symSize: 0x30 }
  - { offset: 0x37305, size: 0x8, addend: 0x0, symName: '__ZN4core3str6traits54_$LT$impl$u20$core..cmp..PartialEq$u20$for$u20$str$GT$2eq17h1edcad58788913dfE', symObjAddr: 0x0, symBinAddr: 0xCA28, symSize: 0x4C }
  - { offset: 0x3734A, size: 0x8, addend: 0x0, symName: '__ZN4core3str6traits54_$LT$impl$u20$core..cmp..PartialEq$u20$for$u20$str$GT$2eq17h1edcad58788913dfE', symObjAddr: 0x0, symBinAddr: 0xCA28, symSize: 0x4C }
  - { offset: 0x3751B, size: 0x8, addend: 0x0, symName: '__ZN4pyo34sync20GILOnceCell$LT$T$GT$11get_or_init17h10ba7d1563cc777dE', symObjAddr: 0x0, symBinAddr: 0xCA74, symSize: 0xD8 }
  - { offset: 0x39297, size: 0x8, addend: 0x0, symName: '__ZN4pyo34sync20GILOnceCell$LT$T$GT$11get_or_init28_$u7b$$u7b$closure$u7d$$u7d$17h1d742b232608922aE', symObjAddr: 0x510, symBinAddr: 0xCF84, symSize: 0x24 }
  - { offset: 0x392D6, size: 0x8, addend: 0x0, symName: '__ZN4pyo34sync20GILOnceCell$LT$T$GT$11get_or_init28_$u7b$$u7b$closure$u7d$$u7d$17h6870f88e288c87fdE', symObjAddr: 0x534, symBinAddr: 0xCFA8, symSize: 0x24 }
  - { offset: 0x39315, size: 0x8, addend: 0x0, symName: '__ZN4pyo34sync20GILOnceCell$LT$T$GT$11get_or_init28_$u7b$$u7b$closure$u7d$$u7d$17h75b10cc2c247021fE', symObjAddr: 0x558, symBinAddr: 0xCFCC, symSize: 0x24 }
  - { offset: 0x39354, size: 0x8, addend: 0x0, symName: '__ZN4pyo34sync20GILOnceCell$LT$T$GT$11get_or_init28_$u7b$$u7b$closure$u7d$$u7d$17h7ba8573e3e59be8bE', symObjAddr: 0x57C, symBinAddr: 0xCFF0, symSize: 0x24 }
  - { offset: 0x39393, size: 0x8, addend: 0x0, symName: '__ZN4pyo34sync20GILOnceCell$LT$T$GT$11get_or_init28_$u7b$$u7b$closure$u7d$$u7d$17h85cdcbf088f2984cE', symObjAddr: 0x5A0, symBinAddr: 0xD014, symSize: 0x24 }
  - { offset: 0x393D2, size: 0x8, addend: 0x0, symName: '__ZN4pyo34sync20GILOnceCell$LT$T$GT$11get_or_init28_$u7b$$u7b$closure$u7d$$u7d$17haf585f43646198a7E', symObjAddr: 0x5C4, symBinAddr: 0xD038, symSize: 0x24 }
  - { offset: 0x39489, size: 0x8, addend: 0x0, symName: '__ZN4pyo34sync20GILOnceCell$LT$T$GT$3set28_$u7b$$u7b$closure$u7d$$u7d$17hee951d29d805fd51E', symObjAddr: 0x1618, symBinAddr: 0xE08C, symSize: 0x110 }
  - { offset: 0x3AA06, size: 0x8, addend: 0x0, symName: '__ZN4pyo34sync20GILOnceCell$LT$T$GT$11get_or_init17h10ba7d1563cc777dE', symObjAddr: 0x0, symBinAddr: 0xCA74, symSize: 0xD8 }
  - { offset: 0x3AA94, size: 0x8, addend: 0x0, symName: '__ZN4pyo34sync20GILOnceCell$LT$T$GT$11get_or_init17h6da14a11b4f4b098E', symObjAddr: 0xD8, symBinAddr: 0xCB4C, symSize: 0xD8 }
  - { offset: 0x3AB22, size: 0x8, addend: 0x0, symName: '__ZN4pyo34sync20GILOnceCell$LT$T$GT$11get_or_init17h896afd0311dfeff5E', symObjAddr: 0x1B0, symBinAddr: 0xCC24, symSize: 0xD8 }
  - { offset: 0x3ABB0, size: 0x8, addend: 0x0, symName: '__ZN4pyo34sync20GILOnceCell$LT$T$GT$11get_or_init17hbb2334199d87ec35E', symObjAddr: 0x288, symBinAddr: 0xCCFC, symSize: 0xD8 }
  - { offset: 0x3AC3E, size: 0x8, addend: 0x0, symName: '__ZN4pyo34sync20GILOnceCell$LT$T$GT$11get_or_init17hbfebfab9f9e376beE', symObjAddr: 0x360, symBinAddr: 0xCDD4, symSize: 0xD8 }
  - { offset: 0x3ACCC, size: 0x8, addend: 0x0, symName: '__ZN4pyo34sync20GILOnceCell$LT$T$GT$11get_or_init17he2d30506206727d0E', symObjAddr: 0x438, symBinAddr: 0xCEAC, symSize: 0xD8 }
  - { offset: 0x3AF08, size: 0x8, addend: 0x0, symName: '__ZN4pyo34sync20GILOnceCell$LT$T$GT$15get_or_try_init17h1052aa5517f499bcE', symObjAddr: 0x5E8, symBinAddr: 0xD05C, symSize: 0xB4 }
  - { offset: 0x3AF81, size: 0x8, addend: 0x0, symName: '__ZN4pyo34sync20GILOnceCell$LT$T$GT$15get_or_try_init17h107b54f0022ac710E', symObjAddr: 0x69C, symBinAddr: 0xD110, symSize: 0xB4 }
  - { offset: 0x3AFFA, size: 0x8, addend: 0x0, symName: '__ZN4pyo34sync20GILOnceCell$LT$T$GT$15get_or_try_init17h1619bafd9427305fE', symObjAddr: 0x750, symBinAddr: 0xD1C4, symSize: 0xB4 }
  - { offset: 0x3B073, size: 0x8, addend: 0x0, symName: '__ZN4pyo34sync20GILOnceCell$LT$T$GT$15get_or_try_init17h30a3b2fdbb22c5d8E', symObjAddr: 0x804, symBinAddr: 0xD278, symSize: 0xB4 }
  - { offset: 0x3B0EC, size: 0x8, addend: 0x0, symName: '__ZN4pyo34sync20GILOnceCell$LT$T$GT$15get_or_try_init17h3349b44647cd8bc6E', symObjAddr: 0x8B8, symBinAddr: 0xD32C, symSize: 0xB4 }
  - { offset: 0x3B165, size: 0x8, addend: 0x0, symName: '__ZN4pyo34sync20GILOnceCell$LT$T$GT$15get_or_try_init17h46b6eb14cff98f39E', symObjAddr: 0x96C, symBinAddr: 0xD3E0, symSize: 0xB4 }
  - { offset: 0x3B1DE, size: 0x8, addend: 0x0, symName: '__ZN4pyo34sync20GILOnceCell$LT$T$GT$15get_or_try_init17h61a8aaf596cd2d48E', symObjAddr: 0xA20, symBinAddr: 0xD494, symSize: 0xB4 }
  - { offset: 0x3B257, size: 0x8, addend: 0x0, symName: '__ZN4pyo34sync20GILOnceCell$LT$T$GT$15get_or_try_init17h6706a594d3c7ea54E', symObjAddr: 0xAD4, symBinAddr: 0xD548, symSize: 0xB4 }
  - { offset: 0x3B2D0, size: 0x8, addend: 0x0, symName: '__ZN4pyo34sync20GILOnceCell$LT$T$GT$15get_or_try_init17h757cdeb3d3efde52E', symObjAddr: 0xB88, symBinAddr: 0xD5FC, symSize: 0xB4 }
  - { offset: 0x3B349, size: 0x8, addend: 0x0, symName: '__ZN4pyo34sync20GILOnceCell$LT$T$GT$15get_or_try_init17h794795a2015e992eE', symObjAddr: 0xC3C, symBinAddr: 0xD6B0, symSize: 0xB4 }
  - { offset: 0x3B3C2, size: 0x8, addend: 0x0, symName: '__ZN4pyo34sync20GILOnceCell$LT$T$GT$15get_or_try_init17h80ba5de5b866d7c3E', symObjAddr: 0xCF0, symBinAddr: 0xD764, symSize: 0xB4 }
  - { offset: 0x3B43B, size: 0x8, addend: 0x0, symName: '__ZN4pyo34sync20GILOnceCell$LT$T$GT$15get_or_try_init17h869cefe245e507b9E', symObjAddr: 0xDA4, symBinAddr: 0xD818, symSize: 0xB4 }
  - { offset: 0x3B4B4, size: 0x8, addend: 0x0, symName: '__ZN4pyo34sync20GILOnceCell$LT$T$GT$15get_or_try_init17ha0d9a647f6fc3b62E', symObjAddr: 0xE58, symBinAddr: 0xD8CC, symSize: 0xB4 }
  - { offset: 0x3B52D, size: 0x8, addend: 0x0, symName: '__ZN4pyo34sync20GILOnceCell$LT$T$GT$15get_or_try_init17haf4754c4b8baaa00E', symObjAddr: 0xF0C, symBinAddr: 0xD980, symSize: 0xB4 }
  - { offset: 0x3B5A6, size: 0x8, addend: 0x0, symName: '__ZN4pyo34sync20GILOnceCell$LT$T$GT$15get_or_try_init17hbbe98c1d60a7cab0E', symObjAddr: 0xFC0, symBinAddr: 0xDA34, symSize: 0xB4 }
  - { offset: 0x3B61F, size: 0x8, addend: 0x0, symName: '__ZN4pyo34sync20GILOnceCell$LT$T$GT$15get_or_try_init17hc444e036d3a8ef50E', symObjAddr: 0x1074, symBinAddr: 0xDAE8, symSize: 0xB4 }
  - { offset: 0x3B698, size: 0x8, addend: 0x0, symName: '__ZN4pyo34sync20GILOnceCell$LT$T$GT$15get_or_try_init17hc5236f0a413f4045E', symObjAddr: 0x1128, symBinAddr: 0xDB9C, symSize: 0xB4 }
  - { offset: 0x3B711, size: 0x8, addend: 0x0, symName: '__ZN4pyo34sync20GILOnceCell$LT$T$GT$15get_or_try_init17hc61562aa735c05d3E', symObjAddr: 0x11DC, symBinAddr: 0xDC50, symSize: 0xB4 }
  - { offset: 0x3B78A, size: 0x8, addend: 0x0, symName: '__ZN4pyo34sync20GILOnceCell$LT$T$GT$15get_or_try_init17hdbd17b8ca249c9e9E', symObjAddr: 0x1290, symBinAddr: 0xDD04, symSize: 0xB4 }
  - { offset: 0x3B803, size: 0x8, addend: 0x0, symName: '__ZN4pyo34sync20GILOnceCell$LT$T$GT$15get_or_try_init17hf9643c47e8d7b031E', symObjAddr: 0x1344, symBinAddr: 0xDDB8, symSize: 0xB4 }
  - { offset: 0x3B87C, size: 0x8, addend: 0x0, symName: '__ZN4pyo34sync20GILOnceCell$LT$T$GT$15get_or_try_init17hfdb739076631385aE', symObjAddr: 0x13F8, symBinAddr: 0xDE6C, symSize: 0xB4 }
  - { offset: 0x3B8F5, size: 0x8, addend: 0x0, symName: '__ZN4pyo34sync20GILOnceCell$LT$T$GT$3get17ha1effe56052c4602E', symObjAddr: 0x14AC, symBinAddr: 0xDF20, symSize: 0xA8 }
  - { offset: 0x3B939, size: 0x8, addend: 0x0, symName: '__ZN4pyo34sync20GILOnceCell$LT$T$GT$3set17h27926699ddf2b2f2E', symObjAddr: 0x1554, symBinAddr: 0xDFC8, symSize: 0xC4 }
  - { offset: 0x3BA93, size: 0x8, addend: 0x0, symName: '__ZN4pyo34sync20GILOnceCell$LT$T$GT$4init17h00d1f374fb1d3ffeE', symObjAddr: 0x1728, symBinAddr: 0x1053C8, symSize: 0x1A0 }
  - { offset: 0x3BB6A, size: 0x8, addend: 0x0, symName: '__ZN4pyo34sync20GILOnceCell$LT$T$GT$4init17h0b4c47866d801b65E', symObjAddr: 0x18C8, symBinAddr: 0x105568, symSize: 0x1A0 }
  - { offset: 0x3BC41, size: 0x8, addend: 0x0, symName: '__ZN4pyo34sync20GILOnceCell$LT$T$GT$4init17h14fbda4269dab059E', symObjAddr: 0x1A68, symBinAddr: 0x105708, symSize: 0x1A0 }
  - { offset: 0x3BD18, size: 0x8, addend: 0x0, symName: '__ZN4pyo34sync20GILOnceCell$LT$T$GT$4init17h22689dbd92138795E', symObjAddr: 0x1C08, symBinAddr: 0x1058A8, symSize: 0x1A0 }
  - { offset: 0x3BDEF, size: 0x8, addend: 0x0, symName: '__ZN4pyo34sync20GILOnceCell$LT$T$GT$4init17h277a61e8b0aa6ea0E', symObjAddr: 0x1DA8, symBinAddr: 0x105A48, symSize: 0x1A0 }
  - { offset: 0x3BEF1, size: 0x8, addend: 0x0, symName: '__ZN4pyo34sync20GILOnceCell$LT$T$GT$4init17h2b4e048f34857de3E', symObjAddr: 0x1F48, symBinAddr: 0x105BE8, symSize: 0x11C }
  - { offset: 0x3BFA5, size: 0x8, addend: 0x0, symName: '__ZN4pyo34sync20GILOnceCell$LT$T$GT$4init17h357949a0a9ea3050E', symObjAddr: 0x2064, symBinAddr: 0x105D04, symSize: 0x1A0 }
  - { offset: 0x3C07C, size: 0x8, addend: 0x0, symName: '__ZN4pyo34sync20GILOnceCell$LT$T$GT$4init17h4678f2ec212118aeE', symObjAddr: 0x2204, symBinAddr: 0x105EA4, symSize: 0x11C }
  - { offset: 0x3C130, size: 0x8, addend: 0x0, symName: '__ZN4pyo34sync20GILOnceCell$LT$T$GT$4init17h549115a323120f24E', symObjAddr: 0x2320, symBinAddr: 0x105FC0, symSize: 0x1A0 }
  - { offset: 0x3C207, size: 0x8, addend: 0x0, symName: '__ZN4pyo34sync20GILOnceCell$LT$T$GT$4init17h6a4ee176b65ce498E', symObjAddr: 0x24C0, symBinAddr: 0x106160, symSize: 0x1A0 }
  - { offset: 0x3C2DE, size: 0x8, addend: 0x0, symName: '__ZN4pyo34sync20GILOnceCell$LT$T$GT$4init17h6f23ab97cc252c69E', symObjAddr: 0x2660, symBinAddr: 0x106300, symSize: 0x1A0 }
  - { offset: 0x3C3B5, size: 0x8, addend: 0x0, symName: '__ZN4pyo34sync20GILOnceCell$LT$T$GT$4init17h823c1f1c04ae8593E', symObjAddr: 0x2800, symBinAddr: 0x1064A0, symSize: 0x1A0 }
  - { offset: 0x3C48C, size: 0x8, addend: 0x0, symName: '__ZN4pyo34sync20GILOnceCell$LT$T$GT$4init17h8451e9826b708905E', symObjAddr: 0x29A0, symBinAddr: 0x106640, symSize: 0x1A0 }
  - { offset: 0x3C563, size: 0x8, addend: 0x0, symName: '__ZN4pyo34sync20GILOnceCell$LT$T$GT$4init17h8540b7fa03ee743cE', symObjAddr: 0x2B40, symBinAddr: 0x1067E0, symSize: 0x1A0 }
  - { offset: 0x3C63A, size: 0x8, addend: 0x0, symName: '__ZN4pyo34sync20GILOnceCell$LT$T$GT$4init17h870cc8421326f8f5E', symObjAddr: 0x2CE0, symBinAddr: 0x106980, symSize: 0x1A0 }
  - { offset: 0x3C711, size: 0x8, addend: 0x0, symName: '__ZN4pyo34sync20GILOnceCell$LT$T$GT$4init17h8b2baa65bd1296efE', symObjAddr: 0x2E80, symBinAddr: 0x106B20, symSize: 0x11C }
  - { offset: 0x3C7C5, size: 0x8, addend: 0x0, symName: '__ZN4pyo34sync20GILOnceCell$LT$T$GT$4init17h8da7509196204dfeE', symObjAddr: 0x2F9C, symBinAddr: 0x106C3C, symSize: 0x11C }
  - { offset: 0x3C879, size: 0x8, addend: 0x0, symName: '__ZN4pyo34sync20GILOnceCell$LT$T$GT$4init17h92efb892aab12415E', symObjAddr: 0x30B8, symBinAddr: 0x106D58, symSize: 0x1A0 }
  - { offset: 0x3C950, size: 0x8, addend: 0x0, symName: '__ZN4pyo34sync20GILOnceCell$LT$T$GT$4init17h9f51f4f98c4db4bbE', symObjAddr: 0x3258, symBinAddr: 0x106EF8, symSize: 0x1A0 }
  - { offset: 0x3CA27, size: 0x8, addend: 0x0, symName: '__ZN4pyo34sync20GILOnceCell$LT$T$GT$4init17ha5d46c51332813e9E', symObjAddr: 0x33F8, symBinAddr: 0x107098, symSize: 0x11C }
  - { offset: 0x3CADB, size: 0x8, addend: 0x0, symName: '__ZN4pyo34sync20GILOnceCell$LT$T$GT$4init17hab815e47d1f16825E', symObjAddr: 0x3514, symBinAddr: 0x1071B4, symSize: 0x1A0 }
  - { offset: 0x3CBB2, size: 0x8, addend: 0x0, symName: '__ZN4pyo34sync20GILOnceCell$LT$T$GT$4init17hae4d517e7dc17be3E', symObjAddr: 0x36B4, symBinAddr: 0x107354, symSize: 0x1A0 }
  - { offset: 0x3CC89, size: 0x8, addend: 0x0, symName: '__ZN4pyo34sync20GILOnceCell$LT$T$GT$4init17hb075b6383db90e00E', symObjAddr: 0x3854, symBinAddr: 0x1074F4, symSize: 0x11C }
  - { offset: 0x3CD3D, size: 0x8, addend: 0x0, symName: '__ZN4pyo34sync20GILOnceCell$LT$T$GT$4init17hb4f28a14da2d270dE', symObjAddr: 0x3970, symBinAddr: 0x107610, symSize: 0x1A0 }
  - { offset: 0x3CE14, size: 0x8, addend: 0x0, symName: '__ZN4pyo34sync20GILOnceCell$LT$T$GT$4init17hc76e5ebd68393ff5E', symObjAddr: 0x3B10, symBinAddr: 0x1077B0, symSize: 0x1A0 }
  - { offset: 0x3CEEB, size: 0x8, addend: 0x0, symName: '__ZN4pyo34sync20GILOnceCell$LT$T$GT$4init17hdcafeb45c3dc4598E', symObjAddr: 0x3CB0, symBinAddr: 0x107950, symSize: 0x1A0 }
  - { offset: 0x3CFC2, size: 0x8, addend: 0x0, symName: '__ZN4pyo34sync20GILOnceCell$LT$T$GT$4init17hf670c6da0e309b2fE', symObjAddr: 0x3E50, symBinAddr: 0x107AF0, symSize: 0x1A0 }
  - { offset: 0x3D0CB, size: 0x8, addend: 0x0, symName: '__ZN75_$LT$usize$u20$as$u20$core..slice..index..SliceIndex$LT$$u5b$T$u5d$$GT$$GT$5index17h810b285e87bfc1f3E', symObjAddr: 0x0, symBinAddr: 0xE19C, symSize: 0x64 }
  - { offset: 0x3D0EC, size: 0x8, addend: 0x0, symName: '__ZN75_$LT$usize$u20$as$u20$core..slice..index..SliceIndex$LT$$u5b$T$u5d$$GT$$GT$5index17h810b285e87bfc1f3E', symObjAddr: 0x0, symBinAddr: 0xE19C, symSize: 0x64 }
  - { offset: 0x3D30D, size: 0x8, addend: 0x0, symName: __ZN5alloc5alloc15exchange_malloc17h98c84263df6f0d26E, symObjAddr: 0x0, symBinAddr: 0xE200, symSize: 0xB0 }
  - { offset: 0x3DCF2, size: 0x8, addend: 0x0, symName: __ZN5alloc5alloc15exchange_malloc17h98c84263df6f0d26E, symObjAddr: 0x0, symBinAddr: 0xE200, symSize: 0xB0 }
  - { offset: 0x3E029, size: 0x8, addend: 0x0, symName: __ZN5alloc5alloc6Global18alloc_impl_runtime17h4b48db3d724ccadaE, symObjAddr: 0xB0, symBinAddr: 0xE2B0, symSize: 0x194 }
  - { offset: 0x3E3DA, size: 0x8, addend: 0x0, symName: __ZN4pyo311type_object10PyTypeInfo10is_type_of17h116fab01488979d5E, symObjAddr: 0x0, symBinAddr: 0xE444, symSize: 0x50 }
  - { offset: 0x3EBEF, size: 0x8, addend: 0x0, symName: '__ZN50_$LT$T$u20$as$u20$core..convert..Into$LT$U$GT$$GT$4into17h2bf8e3a4ed08663cE', symObjAddr: 0x920, symBinAddr: 0xED64, symSize: 0x14 }
  - { offset: 0x3EC30, size: 0x8, addend: 0x0, symName: '__ZN50_$LT$T$u20$as$u20$core..convert..Into$LT$U$GT$$GT$4into17h41ae0a471fa53422E', symObjAddr: 0x934, symBinAddr: 0xED78, symSize: 0x14 }
  - { offset: 0x3EC71, size: 0x8, addend: 0x0, symName: '__ZN50_$LT$T$u20$as$u20$core..convert..Into$LT$U$GT$$GT$4into17h5535522f51d4512bE', symObjAddr: 0x948, symBinAddr: 0xED8C, symSize: 0x14 }
  - { offset: 0x3ECB2, size: 0x8, addend: 0x0, symName: '__ZN50_$LT$T$u20$as$u20$core..convert..Into$LT$U$GT$$GT$4into17h63a445f1e4181ebcE', symObjAddr: 0x95C, symBinAddr: 0xEDA0, symSize: 0x14 }
  - { offset: 0x3ECF3, size: 0x8, addend: 0x0, symName: '__ZN50_$LT$T$u20$as$u20$core..convert..Into$LT$U$GT$$GT$4into17h8f924adea40091d6E', symObjAddr: 0x970, symBinAddr: 0xEDB4, symSize: 0x14 }
  - { offset: 0x3ED34, size: 0x8, addend: 0x0, symName: '__ZN50_$LT$T$u20$as$u20$core..convert..Into$LT$U$GT$$GT$4into17h995a48615d5a298eE', symObjAddr: 0x984, symBinAddr: 0xEDC8, symSize: 0x14 }
  - { offset: 0x3ED75, size: 0x8, addend: 0x0, symName: '__ZN50_$LT$T$u20$as$u20$core..convert..Into$LT$U$GT$$GT$4into17ha5c6f59c0c0ea07bE', symObjAddr: 0x998, symBinAddr: 0xEDDC, symSize: 0x14 }
  - { offset: 0x3EDB6, size: 0x8, addend: 0x0, symName: '__ZN50_$LT$T$u20$as$u20$core..convert..Into$LT$U$GT$$GT$4into17hb4691de9057aef7aE', symObjAddr: 0x9AC, symBinAddr: 0xEDF0, symSize: 0x14 }
  - { offset: 0x3EDF7, size: 0x8, addend: 0x0, symName: '__ZN50_$LT$T$u20$as$u20$core..convert..Into$LT$U$GT$$GT$4into17hc11ac7cffbc2cabbE', symObjAddr: 0x9C0, symBinAddr: 0xEE04, symSize: 0x14 }
  - { offset: 0x3EE38, size: 0x8, addend: 0x0, symName: '__ZN50_$LT$T$u20$as$u20$core..convert..Into$LT$U$GT$$GT$4into17hdb563f8d1c1c159dE', symObjAddr: 0x9D4, symBinAddr: 0xEE18, symSize: 0x14 }
  - { offset: 0x3EE79, size: 0x8, addend: 0x0, symName: '__ZN50_$LT$T$u20$as$u20$core..convert..Into$LT$U$GT$$GT$4into17hded542db3bfbe067E', symObjAddr: 0x9E8, symBinAddr: 0xEE2C, symSize: 0x14 }
  - { offset: 0x3EEBA, size: 0x8, addend: 0x0, symName: '__ZN50_$LT$T$u20$as$u20$core..convert..Into$LT$U$GT$$GT$4into17hf724e7865108dc11E', symObjAddr: 0x9FC, symBinAddr: 0xEE40, symSize: 0x14 }
  - { offset: 0x407AF, size: 0x8, addend: 0x0, symName: __ZN4pyo311type_object10PyTypeInfo10is_type_of17h116fab01488979d5E, symObjAddr: 0x0, symBinAddr: 0xE444, symSize: 0x50 }
  - { offset: 0x407E4, size: 0x8, addend: 0x0, symName: __ZN4pyo311type_object10PyTypeInfo10is_type_of17h2eea1db70a06d897E, symObjAddr: 0x50, symBinAddr: 0xE494, symSize: 0x50 }
  - { offset: 0x40819, size: 0x8, addend: 0x0, symName: __ZN4pyo311type_object10PyTypeInfo10is_type_of17h5d0347da41f5e86eE, symObjAddr: 0xA0, symBinAddr: 0xE4E4, symSize: 0x50 }
  - { offset: 0x4084E, size: 0x8, addend: 0x0, symName: __ZN4pyo311type_object10PyTypeInfo10is_type_of17h5fd91b7da1a797caE, symObjAddr: 0xF0, symBinAddr: 0xE534, symSize: 0x50 }
  - { offset: 0x40883, size: 0x8, addend: 0x0, symName: __ZN4pyo311type_object10PyTypeInfo10is_type_of17h65f9eead27824449E, symObjAddr: 0x140, symBinAddr: 0xE584, symSize: 0x50 }
  - { offset: 0x408B8, size: 0x8, addend: 0x0, symName: __ZN4pyo311type_object10PyTypeInfo10is_type_of17h67a43c13a47b43d4E, symObjAddr: 0x190, symBinAddr: 0xE5D4, symSize: 0x50 }
  - { offset: 0x408ED, size: 0x8, addend: 0x0, symName: __ZN4pyo311type_object10PyTypeInfo10is_type_of17h6a5d5a60989f255dE, symObjAddr: 0x1E0, symBinAddr: 0xE624, symSize: 0x50 }
  - { offset: 0x40922, size: 0x8, addend: 0x0, symName: __ZN4pyo311type_object10PyTypeInfo10is_type_of17h6f3a5436fe4391e4E, symObjAddr: 0x230, symBinAddr: 0xE674, symSize: 0x50 }
  - { offset: 0x40957, size: 0x8, addend: 0x0, symName: __ZN4pyo311type_object10PyTypeInfo10is_type_of17h90ac723dde912f03E, symObjAddr: 0x280, symBinAddr: 0xE6C4, symSize: 0x50 }
  - { offset: 0x4098C, size: 0x8, addend: 0x0, symName: __ZN4pyo311type_object10PyTypeInfo10is_type_of17hb90d7b938370c1cfE, symObjAddr: 0x2D0, symBinAddr: 0xE714, symSize: 0x50 }
  - { offset: 0x409C1, size: 0x8, addend: 0x0, symName: __ZN4pyo311type_object10PyTypeInfo10is_type_of17hbbe2b2a218aec28eE, symObjAddr: 0x320, symBinAddr: 0xE764, symSize: 0x50 }
  - { offset: 0x409F6, size: 0x8, addend: 0x0, symName: __ZN4pyo311type_object10PyTypeInfo10is_type_of17hfeeb651b2b535a8cE, symObjAddr: 0x370, symBinAddr: 0xE7B4, symSize: 0x50 }
  - { offset: 0x40A31, size: 0x8, addend: 0x0, symName: '__ZN52_$LT$T$u20$as$u20$pyo3..type_object..PyTypeCheck$GT$10type_check17h03014a651195083bE', symObjAddr: 0xA10, symBinAddr: 0xEE54, symSize: 0x24 }
  - { offset: 0x40A66, size: 0x8, addend: 0x0, symName: '__ZN52_$LT$T$u20$as$u20$pyo3..type_object..PyTypeCheck$GT$10type_check17h1ecff05d36dcb54dE', symObjAddr: 0xA34, symBinAddr: 0xEE78, symSize: 0x24 }
  - { offset: 0x40A9B, size: 0x8, addend: 0x0, symName: '__ZN52_$LT$T$u20$as$u20$pyo3..type_object..PyTypeCheck$GT$10type_check17h2765c26654f9a45cE', symObjAddr: 0xA58, symBinAddr: 0xEE9C, symSize: 0x24 }
  - { offset: 0x40AD0, size: 0x8, addend: 0x0, symName: '__ZN52_$LT$T$u20$as$u20$pyo3..type_object..PyTypeCheck$GT$10type_check17h3badb0536cd8d117E', symObjAddr: 0xA7C, symBinAddr: 0xEEC0, symSize: 0x24 }
  - { offset: 0x40B05, size: 0x8, addend: 0x0, symName: '__ZN52_$LT$T$u20$as$u20$pyo3..type_object..PyTypeCheck$GT$10type_check17h3d87a51e5c4b0765E', symObjAddr: 0xAA0, symBinAddr: 0xEEE4, symSize: 0x24 }
  - { offset: 0x40B3A, size: 0x8, addend: 0x0, symName: '__ZN52_$LT$T$u20$as$u20$pyo3..type_object..PyTypeCheck$GT$10type_check17h4dd11ed0c4391d40E', symObjAddr: 0xAC4, symBinAddr: 0xEF08, symSize: 0x24 }
  - { offset: 0x40B6F, size: 0x8, addend: 0x0, symName: '__ZN52_$LT$T$u20$as$u20$pyo3..type_object..PyTypeCheck$GT$10type_check17h62b71654d5ae7026E', symObjAddr: 0xAE8, symBinAddr: 0xEF2C, symSize: 0x24 }
  - { offset: 0x40BA4, size: 0x8, addend: 0x0, symName: '__ZN52_$LT$T$u20$as$u20$pyo3..type_object..PyTypeCheck$GT$10type_check17h9292a0697bd2cf32E', symObjAddr: 0xB0C, symBinAddr: 0xEF50, symSize: 0x24 }
  - { offset: 0x40BD9, size: 0x8, addend: 0x0, symName: '__ZN52_$LT$T$u20$as$u20$pyo3..type_object..PyTypeCheck$GT$10type_check17h9bf743f6fde81b77E', symObjAddr: 0xB30, symBinAddr: 0xEF74, symSize: 0x24 }
  - { offset: 0x40C0E, size: 0x8, addend: 0x0, symName: '__ZN52_$LT$T$u20$as$u20$pyo3..type_object..PyTypeCheck$GT$10type_check17hc6b3be36b3c0bf57E', symObjAddr: 0xB54, symBinAddr: 0xEF98, symSize: 0x24 }
  - { offset: 0x40C43, size: 0x8, addend: 0x0, symName: '__ZN52_$LT$T$u20$as$u20$pyo3..type_object..PyTypeCheck$GT$10type_check17hd1d24732d93b7ffeE', symObjAddr: 0xB78, symBinAddr: 0xEFBC, symSize: 0x24 }
  - { offset: 0x40C78, size: 0x8, addend: 0x0, symName: '__ZN52_$LT$T$u20$as$u20$pyo3..type_object..PyTypeCheck$GT$10type_check17heda4231689665388E', symObjAddr: 0xB9C, symBinAddr: 0xEFE0, symSize: 0x24 }
  - { offset: 0x40CB9, size: 0x8, addend: 0x0, symName: '__ZN4pyo312pyclass_init130_$LT$impl$u20$pyo3..impl_..callback..IntoPyCallbackOutput$LT$pyo3..pyclass_init..PyClassInitializer$LT$T$GT$$GT$$u20$for$u20$U$GT$7convert17h1a928801b6fdd698E', symObjAddr: 0x3C0, symBinAddr: 0xE804, symSize: 0x68 }
  - { offset: 0x40D17, size: 0x8, addend: 0x0, symName: '__ZN4pyo312pyclass_init130_$LT$impl$u20$pyo3..impl_..callback..IntoPyCallbackOutput$LT$pyo3..pyclass_init..PyClassInitializer$LT$T$GT$$GT$$u20$for$u20$U$GT$7convert17h416142fce93a2964E', symObjAddr: 0x428, symBinAddr: 0xE86C, symSize: 0x60 }
  - { offset: 0x40D75, size: 0x8, addend: 0x0, symName: '__ZN4pyo312pyclass_init130_$LT$impl$u20$pyo3..impl_..callback..IntoPyCallbackOutput$LT$pyo3..pyclass_init..PyClassInitializer$LT$T$GT$$GT$$u20$for$u20$U$GT$7convert17h4b9adb3e1c6f9064E', symObjAddr: 0x488, symBinAddr: 0xE8CC, symSize: 0x60 }
  - { offset: 0x40DD3, size: 0x8, addend: 0x0, symName: '__ZN4pyo312pyclass_init130_$LT$impl$u20$pyo3..impl_..callback..IntoPyCallbackOutput$LT$pyo3..pyclass_init..PyClassInitializer$LT$T$GT$$GT$$u20$for$u20$U$GT$7convert17h71006aca69bf02edE', symObjAddr: 0x4E8, symBinAddr: 0xE92C, symSize: 0x60 }
  - { offset: 0x40E31, size: 0x8, addend: 0x0, symName: '__ZN4pyo312pyclass_init130_$LT$impl$u20$pyo3..impl_..callback..IntoPyCallbackOutput$LT$pyo3..pyclass_init..PyClassInitializer$LT$T$GT$$GT$$u20$for$u20$U$GT$7convert17h87fb902da249e640E', symObjAddr: 0x548, symBinAddr: 0xE98C, symSize: 0x60 }
  - { offset: 0x40E8F, size: 0x8, addend: 0x0, symName: '__ZN4pyo312pyclass_init130_$LT$impl$u20$pyo3..impl_..callback..IntoPyCallbackOutput$LT$pyo3..pyclass_init..PyClassInitializer$LT$T$GT$$GT$$u20$for$u20$U$GT$7convert17h8ef089a5386cbff9E', symObjAddr: 0x5A8, symBinAddr: 0xE9EC, symSize: 0x68 }
  - { offset: 0x40EED, size: 0x8, addend: 0x0, symName: '__ZN4pyo312pyclass_init130_$LT$impl$u20$pyo3..impl_..callback..IntoPyCallbackOutput$LT$pyo3..pyclass_init..PyClassInitializer$LT$T$GT$$GT$$u20$for$u20$U$GT$7convert17h99d72db2cc88f4e8E', symObjAddr: 0x610, symBinAddr: 0xEA54, symSize: 0x68 }
  - { offset: 0x40F4B, size: 0x8, addend: 0x0, symName: '__ZN4pyo312pyclass_init130_$LT$impl$u20$pyo3..impl_..callback..IntoPyCallbackOutput$LT$pyo3..pyclass_init..PyClassInitializer$LT$T$GT$$GT$$u20$for$u20$U$GT$7convert17ha775858130c46122E', symObjAddr: 0x678, symBinAddr: 0xEABC, symSize: 0x60 }
  - { offset: 0x40FA9, size: 0x8, addend: 0x0, symName: '__ZN4pyo312pyclass_init130_$LT$impl$u20$pyo3..impl_..callback..IntoPyCallbackOutput$LT$pyo3..pyclass_init..PyClassInitializer$LT$T$GT$$GT$$u20$for$u20$U$GT$7convert17hc6f7c57093fc75e0E', symObjAddr: 0x6D8, symBinAddr: 0xEB1C, symSize: 0x68 }
  - { offset: 0x41007, size: 0x8, addend: 0x0, symName: '__ZN4pyo312pyclass_init130_$LT$impl$u20$pyo3..impl_..callback..IntoPyCallbackOutput$LT$pyo3..pyclass_init..PyClassInitializer$LT$T$GT$$GT$$u20$for$u20$U$GT$7convert17hcf77a60a542f7ec8E', symObjAddr: 0x740, symBinAddr: 0xEB84, symSize: 0x60 }
  - { offset: 0x41065, size: 0x8, addend: 0x0, symName: '__ZN4pyo312pyclass_init130_$LT$impl$u20$pyo3..impl_..callback..IntoPyCallbackOutput$LT$pyo3..pyclass_init..PyClassInitializer$LT$T$GT$$GT$$u20$for$u20$U$GT$7convert17hd00c85ef16aab9e9E', symObjAddr: 0x7A0, symBinAddr: 0xEBE4, symSize: 0x60 }
  - { offset: 0x410C3, size: 0x8, addend: 0x0, symName: '__ZN4pyo312pyclass_init130_$LT$impl$u20$pyo3..impl_..callback..IntoPyCallbackOutput$LT$pyo3..pyclass_init..PyClassInitializer$LT$T$GT$$GT$$u20$for$u20$U$GT$7convert17he098fca224ca35ebE', symObjAddr: 0x800, symBinAddr: 0xEC44, symSize: 0x60 }
  - { offset: 0x4188C, size: 0x8, addend: 0x0, symName: __ZN4pyo35impl_7pyclass11PyClassImpl11dict_offset17h00f6b811a734b0afE, symObjAddr: 0x860, symBinAddr: 0xECA4, symSize: 0x8 }
  - { offset: 0x418B3, size: 0x8, addend: 0x0, symName: __ZN4pyo35impl_7pyclass11PyClassImpl11dict_offset17h0ca3f9de4afde002E, symObjAddr: 0x868, symBinAddr: 0xECAC, symSize: 0x8 }
  - { offset: 0x418DA, size: 0x8, addend: 0x0, symName: __ZN4pyo35impl_7pyclass11PyClassImpl11dict_offset17h1d479bf01314b359E, symObjAddr: 0x870, symBinAddr: 0xECB4, symSize: 0x8 }
  - { offset: 0x41901, size: 0x8, addend: 0x0, symName: __ZN4pyo35impl_7pyclass11PyClassImpl11dict_offset17h2182ecf87be8f016E, symObjAddr: 0x878, symBinAddr: 0xECBC, symSize: 0x8 }
  - { offset: 0x41928, size: 0x8, addend: 0x0, symName: __ZN4pyo35impl_7pyclass11PyClassImpl11dict_offset17h39954a123540d578E, symObjAddr: 0x880, symBinAddr: 0xECC4, symSize: 0x8 }
  - { offset: 0x4194F, size: 0x8, addend: 0x0, symName: __ZN4pyo35impl_7pyclass11PyClassImpl11dict_offset17h3d7e2ba73424b4b4E, symObjAddr: 0x888, symBinAddr: 0xECCC, symSize: 0x8 }
  - { offset: 0x41976, size: 0x8, addend: 0x0, symName: __ZN4pyo35impl_7pyclass11PyClassImpl11dict_offset17h3f832a7336b60153E, symObjAddr: 0x890, symBinAddr: 0xECD4, symSize: 0x8 }
  - { offset: 0x4199D, size: 0x8, addend: 0x0, symName: __ZN4pyo35impl_7pyclass11PyClassImpl11dict_offset17hbaa018c9fda45e2fE, symObjAddr: 0x898, symBinAddr: 0xECDC, symSize: 0x8 }
  - { offset: 0x419C4, size: 0x8, addend: 0x0, symName: __ZN4pyo35impl_7pyclass11PyClassImpl11dict_offset17hc6c3da8d6468c3c2E, symObjAddr: 0x8A0, symBinAddr: 0xECE4, symSize: 0x8 }
  - { offset: 0x419EB, size: 0x8, addend: 0x0, symName: __ZN4pyo35impl_7pyclass11PyClassImpl11dict_offset17hd52f5b4181d068f1E, symObjAddr: 0x8A8, symBinAddr: 0xECEC, symSize: 0x8 }
  - { offset: 0x41A12, size: 0x8, addend: 0x0, symName: __ZN4pyo35impl_7pyclass11PyClassImpl11dict_offset17hdad1909a2b3d1effE, symObjAddr: 0x8B0, symBinAddr: 0xECF4, symSize: 0x8 }
  - { offset: 0x41A39, size: 0x8, addend: 0x0, symName: __ZN4pyo35impl_7pyclass11PyClassImpl11dict_offset17hdbc0a6606d822897E, symObjAddr: 0x8B8, symBinAddr: 0xECFC, symSize: 0x8 }
  - { offset: 0x41A60, size: 0x8, addend: 0x0, symName: __ZN4pyo35impl_7pyclass11PyClassImpl15weaklist_offset17h032c66a1cbfb8285E, symObjAddr: 0x8C0, symBinAddr: 0xED04, symSize: 0x8 }
  - { offset: 0x41A87, size: 0x8, addend: 0x0, symName: __ZN4pyo35impl_7pyclass11PyClassImpl15weaklist_offset17h1c25a6cbe5bcfa93E, symObjAddr: 0x8C8, symBinAddr: 0xED0C, symSize: 0x8 }
  - { offset: 0x41AAE, size: 0x8, addend: 0x0, symName: __ZN4pyo35impl_7pyclass11PyClassImpl15weaklist_offset17h58526378b4b16163E, symObjAddr: 0x8D0, symBinAddr: 0xED14, symSize: 0x8 }
  - { offset: 0x41AD5, size: 0x8, addend: 0x0, symName: __ZN4pyo35impl_7pyclass11PyClassImpl15weaklist_offset17h7eff3b145a06bca2E, symObjAddr: 0x8D8, symBinAddr: 0xED1C, symSize: 0x8 }
  - { offset: 0x41AFC, size: 0x8, addend: 0x0, symName: __ZN4pyo35impl_7pyclass11PyClassImpl15weaklist_offset17h9f925ab46644cafbE, symObjAddr: 0x8E0, symBinAddr: 0xED24, symSize: 0x8 }
  - { offset: 0x41B23, size: 0x8, addend: 0x0, symName: __ZN4pyo35impl_7pyclass11PyClassImpl15weaklist_offset17hb39e84b3dcd9cfefE, symObjAddr: 0x8E8, symBinAddr: 0xED2C, symSize: 0x8 }
  - { offset: 0x41B4A, size: 0x8, addend: 0x0, symName: __ZN4pyo35impl_7pyclass11PyClassImpl15weaklist_offset17hb523f0496fe28fcdE, symObjAddr: 0x8F0, symBinAddr: 0xED34, symSize: 0x8 }
  - { offset: 0x41B71, size: 0x8, addend: 0x0, symName: __ZN4pyo35impl_7pyclass11PyClassImpl15weaklist_offset17hb8cb7f4921b70e4cE, symObjAddr: 0x8F8, symBinAddr: 0xED3C, symSize: 0x8 }
  - { offset: 0x41B98, size: 0x8, addend: 0x0, symName: __ZN4pyo35impl_7pyclass11PyClassImpl15weaklist_offset17he5dd09e188641105E, symObjAddr: 0x900, symBinAddr: 0xED44, symSize: 0x8 }
  - { offset: 0x41BBF, size: 0x8, addend: 0x0, symName: __ZN4pyo35impl_7pyclass11PyClassImpl15weaklist_offset17hebe0d7a7f63e3408E, symObjAddr: 0x908, symBinAddr: 0xED4C, symSize: 0x8 }
  - { offset: 0x41BE6, size: 0x8, addend: 0x0, symName: __ZN4pyo35impl_7pyclass11PyClassImpl15weaklist_offset17hf8f79d3d1557bfecE, symObjAddr: 0x910, symBinAddr: 0xED54, symSize: 0x8 }
  - { offset: 0x41C0D, size: 0x8, addend: 0x0, symName: __ZN4pyo35impl_7pyclass11PyClassImpl15weaklist_offset17hfd92ad3dc857568aE, symObjAddr: 0x918, symBinAddr: 0xED5C, symSize: 0x8 }
  - { offset: 0x421D8, size: 0x8, addend: 0x0, symName: '__ZN6_oryon8features3Adf20__pymethod___new____28_$u7b$$u7b$closure$u7d$$u7d$17h16b06e8850ebbe73E', symObjAddr: 0xBC0, symBinAddr: 0xF004, symSize: 0x24 }
  - { offset: 0x42200, size: 0x8, addend: 0x0, symName: '__ZN6_oryon8features3Adf20__pymethod___new____28_$u7b$$u7b$closure$u7d$$u7d$17h795e2f53602a6458E', symObjAddr: 0xBE4, symBinAddr: 0xF028, symSize: 0x20 }
  - { offset: 0x42242, size: 0x8, addend: 0x0, symName: '__ZN6_oryon8features4Kama20__pymethod___new____28_$u7b$$u7b$closure$u7d$$u7d$17h5a062c1bd833ba28E', symObjAddr: 0xC04, symBinAddr: 0xF048, symSize: 0x18 }
  - { offset: 0x4226C, size: 0x8, addend: 0x0, symName: '__ZN6_oryon8features4Kama20__pymethod___new____28_$u7b$$u7b$closure$u7d$$u7d$17h5c6c90332170caccE', symObjAddr: 0xC1C, symBinAddr: 0xF060, symSize: 0x18 }
  - { offset: 0x422B0, size: 0x8, addend: 0x0, symName: '__ZN75_$LT$_oryon..features..Adf$u20$as$u20$pyo3..impl_..pyclass..PyClassImpl$GT$3doc28_$u7b$$u7b$closure$u7d$$u7d$17h3342716dd07589feE', symObjAddr: 0xC34, symBinAddr: 0xF078, symSize: 0x54 }
  - { offset: 0x42308, size: 0x8, addend: 0x0, symName: '__ZN75_$LT$_oryon..features..Ema$u20$as$u20$pyo3..impl_..pyclass..PyClassImpl$GT$3doc28_$u7b$$u7b$closure$u7d$$u7d$17h010555b4e00a866cE', symObjAddr: 0xC88, symBinAddr: 0xF0CC, symSize: 0x54 }
  - { offset: 0x42360, size: 0x8, addend: 0x0, symName: '__ZN75_$LT$_oryon..features..Mma$u20$as$u20$pyo3..impl_..pyclass..PyClassImpl$GT$3doc28_$u7b$$u7b$closure$u7d$$u7d$17h038568bac71157f6E', symObjAddr: 0xCDC, symBinAddr: 0xF120, symSize: 0x54 }
  - { offset: 0x423B8, size: 0x8, addend: 0x0, symName: '__ZN75_$LT$_oryon..features..Sma$u20$as$u20$pyo3..impl_..pyclass..PyClassImpl$GT$3doc28_$u7b$$u7b$closure$u7d$$u7d$17h886d85e72ac9d477E', symObjAddr: 0xD30, symBinAddr: 0xF174, symSize: 0x54 }
  - { offset: 0x42410, size: 0x8, addend: 0x0, symName: '__ZN76_$LT$_oryon..features..Kama$u20$as$u20$pyo3..impl_..pyclass..PyClassImpl$GT$3doc28_$u7b$$u7b$closure$u7d$$u7d$17h59e6dd6d34b87e59E', symObjAddr: 0xD84, symBinAddr: 0xF1C8, symSize: 0x54 }
  - { offset: 0x4246B, size: 0x8, addend: 0x0, symName: '__ZN80_$LT$_oryon..features..Kurtosis$u20$as$u20$pyo3..impl_..pyclass..PyClassImpl$GT$3doc28_$u7b$$u7b$closure$u7d$$u7d$17h631ca342c3bfa318E', symObjAddr: 0xDD8, symBinAddr: 0xF21C, symSize: 0x54 }
  - { offset: 0x424C6, size: 0x8, addend: 0x0, symName: '__ZN80_$LT$_oryon..features..Skewness$u20$as$u20$pyo3..impl_..pyclass..PyClassImpl$GT$3doc28_$u7b$$u7b$closure$u7d$$u7d$17h228871a352d16961E', symObjAddr: 0xE2C, symBinAddr: 0xF270, symSize: 0x54 }
  - { offset: 0x42521, size: 0x8, addend: 0x0, symName: '__ZN81_$LT$_oryon..features..LogReturn$u20$as$u20$pyo3..impl_..pyclass..PyClassImpl$GT$3doc28_$u7b$$u7b$closure$u7d$$u7d$17h1bb058916f27f4e5E', symObjAddr: 0xE80, symBinAddr: 0xF2C4, symSize: 0x54 }
  - { offset: 0x4257C, size: 0x8, addend: 0x0, symName: '__ZN83_$LT$_oryon..features..LinearSlope$u20$as$u20$pyo3..impl_..pyclass..PyClassImpl$GT$3doc28_$u7b$$u7b$closure$u7d$$u7d$17h35dff8b2229e587dE', symObjAddr: 0xED4, symBinAddr: 0xF318, symSize: 0x54 }
  - { offset: 0x425D7, size: 0x8, addend: 0x0, symName: '__ZN84_$LT$_oryon..features..SimpleReturn$u20$as$u20$pyo3..impl_..pyclass..PyClassImpl$GT$3doc28_$u7b$$u7b$closure$u7d$$u7d$17h5a7b27ab0d59ba82E', symObjAddr: 0xF28, symBinAddr: 0xF36C, symSize: 0x54 }
  - { offset: 0x42632, size: 0x8, addend: 0x0, symName: '__ZN91_$LT$_oryon..features..ParkinsonVolatility$u20$as$u20$pyo3..impl_..pyclass..PyClassImpl$GT$3doc28_$u7b$$u7b$closure$u7d$$u7d$17h8c57566b681b3841E', symObjAddr: 0xF7C, symBinAddr: 0xF3C0, symSize: 0x54 }
  - { offset: 0x4268D, size: 0x8, addend: 0x0, symName: '__ZN96_$LT$_oryon..features..RogersSatchellVolatility$u20$as$u20$pyo3..impl_..pyclass..PyClassImpl$GT$3doc28_$u7b$$u7b$closure$u7d$$u7d$17hdc1557bb6bcbbcc0E', symObjAddr: 0xFD0, symBinAddr: 0xF414, symSize: 0x54 }
  - { offset: 0x431C6, size: 0x8, addend: 0x0, symName: '__ZN157_$LT$$LT$alloc..vec..into_iter..IntoIter$LT$T$C$A$GT$$u20$as$u20$core..ops..drop..Drop$GT$..drop..DropGuard$LT$T$C$A$GT$$u20$as$u20$core..ops..drop..Drop$GT$4drop17hd1655692837e23ecE', symObjAddr: 0x0, symBinAddr: 0xF468, symSize: 0x6C }
  - { offset: 0x43BBA, size: 0x8, addend: 0x0, symName: '__ZN4core3ptr100drop_in_place$LT$core..option..Option$LT$pyo3..pycell..PyRefMut$LT$_oryon..features..Adf$GT$$GT$$GT$17h723dcb7ea801c9ffE', symObjAddr: 0x918, symBinAddr: 0xFD5C, symSize: 0x44 }
  - { offset: 0x43BE9, size: 0x8, addend: 0x0, symName: '__ZN4core3ptr100drop_in_place$LT$core..option..Option$LT$pyo3..pycell..PyRefMut$LT$_oryon..features..Ema$GT$$GT$$GT$17ha655d35b643b1780E', symObjAddr: 0x95C, symBinAddr: 0xFDA0, symSize: 0x44 }
  - { offset: 0x43C18, size: 0x8, addend: 0x0, symName: '__ZN4core3ptr100drop_in_place$LT$core..option..Option$LT$pyo3..pycell..PyRefMut$LT$_oryon..features..Mma$GT$$GT$$GT$17hf72f9e06be8c3cfdE', symObjAddr: 0x9A0, symBinAddr: 0xFDE4, symSize: 0x44 }
  - { offset: 0x43C47, size: 0x8, addend: 0x0, symName: '__ZN4core3ptr100drop_in_place$LT$core..option..Option$LT$pyo3..pycell..PyRefMut$LT$_oryon..features..Sma$GT$$GT$$GT$17haf8ad2c359743b41E', symObjAddr: 0x9E4, symBinAddr: 0xFE28, symSize: 0x44 }
  - { offset: 0x43C76, size: 0x8, addend: 0x0, symName: '__ZN4core3ptr100drop_in_place$LT$pyo3..pyclass_init..PyClassInitializer$LT$_oryon..pipelines..TargetPipeline$GT$$GT$17h6a94a538720bb24aE', symObjAddr: 0xA28, symBinAddr: 0xFE6C, symSize: 0x24 }
  - { offset: 0x43CA5, size: 0x8, addend: 0x0, symName: '__ZN4core3ptr100drop_in_place$LT$pyo3..pyclass_init..PyClassInitializerImpl$LT$_oryon..features..LinearSlope$GT$$GT$17hec59520f738412c5E', symObjAddr: 0xA4C, symBinAddr: 0xFE90, symSize: 0x58 }
  - { offset: 0x43CD4, size: 0x8, addend: 0x0, symName: '__ZN4core3ptr100drop_in_place$LT$pyo3..pyclass_init..PyClassInitializerImpl$LT$_oryon..targets..FutureReturn$GT$$GT$17h3a199cfa5d5ab77cE', symObjAddr: 0xAA4, symBinAddr: 0xFEE8, symSize: 0x58 }
  - { offset: 0x43D03, size: 0x8, addend: 0x0, symName: '__ZN4core3ptr101drop_in_place$LT$core..option..Option$LT$pyo3..pycell..PyRef$LT$_oryon..operators..NegLog$GT$$GT$$GT$17h1396bd9c249ff17dE', symObjAddr: 0xB20, symBinAddr: 0xFF40, symSize: 0x44 }
  - { offset: 0x43D32, size: 0x8, addend: 0x0, symName: '__ZN4core3ptr101drop_in_place$LT$core..option..Option$LT$pyo3..pycell..PyRefMut$LT$_oryon..features..Kama$GT$$GT$$GT$17h1849674932f78c37E', symObjAddr: 0xB64, symBinAddr: 0xFF84, symSize: 0x44 }
  - { offset: 0x43D61, size: 0x8, addend: 0x0, symName: '__ZN4core3ptr101drop_in_place$LT$core..result..Result$LT$_oryon..pipelines..TargetPipeline$C$pyo3..err..PyErr$GT$$GT$17he49a086ee0073f58E', symObjAddr: 0xBA8, symBinAddr: 0xFFC8, symSize: 0x5C }
  - { offset: 0x43D90, size: 0x8, addend: 0x0, symName: '__ZN4core3ptr101drop_in_place$LT$pyo3..pyclass_init..PyClassInitializer$LT$_oryon..pipelines..FeaturePipeline$GT$$GT$17h3bc737d0dac95b2bE', symObjAddr: 0xC04, symBinAddr: 0x10024, symSize: 0x24 }
  - { offset: 0x43DBF, size: 0x8, addend: 0x0, symName: '__ZN4core3ptr101drop_in_place$LT$pyo3..pyclass_init..PyClassInitializer$LT$_oryon..targets..FutureLinearSlope$GT$$GT$17h08e5e4dd522b9679E', symObjAddr: 0xC28, symBinAddr: 0x10048, symSize: 0x24 }
  - { offset: 0x43DEE, size: 0x8, addend: 0x0, symName: '__ZN4core3ptr101drop_in_place$LT$pyo3..pyclass_init..PyClassInitializerImpl$LT$_oryon..features..SimpleReturn$GT$$GT$17h004ce751e8026d6dE', symObjAddr: 0xC4C, symBinAddr: 0x1006C, symSize: 0x58 }
  - { offset: 0x43E1D, size: 0x8, addend: 0x0, symName: '__ZN4core3ptr101drop_in_place$LT$pyo3..pyclass_init..PyClassInitializerImpl$LT$_oryon..scalers..RollingZScore$GT$$GT$17h05b667ca6af10d50E', symObjAddr: 0xCA4, symBinAddr: 0x100C4, symSize: 0x58 }
  - { offset: 0x43E4C, size: 0x8, addend: 0x0, symName: '__ZN4core3ptr102drop_in_place$LT$core..option..Option$LT$pyo3..pycell..PyRef$LT$_oryon..features..Kurtosis$GT$$GT$$GT$17hd08bdafefd2fca64E', symObjAddr: 0xCFC, symBinAddr: 0x1011C, symSize: 0x44 }
  - { offset: 0x43E7B, size: 0x8, addend: 0x0, symName: '__ZN4core3ptr102drop_in_place$LT$core..option..Option$LT$pyo3..pycell..PyRef$LT$_oryon..features..Skewness$GT$$GT$$GT$17h028c50d24b2f64eeE', symObjAddr: 0xD40, symBinAddr: 0x10160, symSize: 0x44 }
  - { offset: 0x43EAA, size: 0x8, addend: 0x0, symName: '__ZN4core3ptr102drop_in_place$LT$core..result..Result$LT$_oryon..pipelines..FeaturePipeline$C$pyo3..err..PyErr$GT$$GT$17hdb229807a244bf68E', symObjAddr: 0xD84, symBinAddr: 0x101A4, symSize: 0x5C }
  - { offset: 0x43ED9, size: 0x8, addend: 0x0, symName: '__ZN4core3ptr102drop_in_place$LT$core..result..Result$LT$_oryon..targets..FutureLinearSlope$C$pyo3..err..PyErr$GT$$GT$17h6ae608db55a7160bE', symObjAddr: 0xDE0, symBinAddr: 0x10200, symSize: 0x50 }
  - { offset: 0x43F08, size: 0x8, addend: 0x0, symName: '__ZN4core3ptr103drop_in_place$LT$alloc..raw_vec..RawVec$LT$pyo3..instance..Bound$LT$pyo3..types..any..PyAny$GT$$GT$$GT$17hc98f87b52e8d9c57E', symObjAddr: 0xE30, symBinAddr: 0x10250, symSize: 0x24 }
  - { offset: 0x43F37, size: 0x8, addend: 0x0, symName: '__ZN4core3ptr103drop_in_place$LT$core..option..Option$LT$pyo3..pycell..PyRef$LT$_oryon..features..LogReturn$GT$$GT$$GT$17hb3eda380b9547f47E', symObjAddr: 0xE54, symBinAddr: 0x10274, symSize: 0x44 }
  - { offset: 0x43F66, size: 0x8, addend: 0x0, symName: '__ZN4core3ptr103drop_in_place$LT$core..option..Option$LT$pyo3..pycell..PyRef$LT$_oryon..operators..Subtract$GT$$GT$$GT$17ha0ed7b2de938a754E', symObjAddr: 0xE98, symBinAddr: 0x102B8, symSize: 0x44 }
  - { offset: 0x43F95, size: 0x8, addend: 0x0, symName: '__ZN4core3ptr103drop_in_place$LT$pyo3..pyclass_init..PyClassInitializer$LT$_oryon..targets..FutureCTCVolatility$GT$$GT$17hf6636a96e8e9c04bE', symObjAddr: 0xEDC, symBinAddr: 0x102FC, symSize: 0x24 }
  - { offset: 0x43FC4, size: 0x8, addend: 0x0, symName: '__ZN4core3ptr104drop_in_place$LT$core..option..Option$LT$pyo3..pycell..PyRef$LT$_oryon..scalers..FixedZScore$GT$$GT$$GT$17hbcce2f6f3ac14c13E', symObjAddr: 0xF00, symBinAddr: 0x10320, symSize: 0x44 }
  - { offset: 0x43FF3, size: 0x8, addend: 0x0, symName: '__ZN4core3ptr104drop_in_place$LT$core..option..Option$LT$pyo3..pycell..PyRefMut$LT$_oryon..operators..NegLog$GT$$GT$$GT$17h1403931ec6f8bbecE', symObjAddr: 0xF44, symBinAddr: 0x10364, symSize: 0x44 }
  - { offset: 0x44022, size: 0x8, addend: 0x0, symName: '__ZN4core3ptr104drop_in_place$LT$core..result..Result$LT$_oryon..targets..FutureCTCVolatility$C$pyo3..err..PyErr$GT$$GT$17h7f7f47bd47ebb706E', symObjAddr: 0xF88, symBinAddr: 0x103A8, symSize: 0x50 }
  - { offset: 0x44051, size: 0x8, addend: 0x0, symName: '__ZN4core3ptr104drop_in_place$LT$pyo3..pyclass_init..PyClassInitializer$LT$_oryon..features..ParkinsonVolatility$GT$$GT$17h55daa6d41ab231b0E', symObjAddr: 0x1068, symBinAddr: 0x103F8, symSize: 0x24 }
  - { offset: 0x44080, size: 0x8, addend: 0x0, symName: '__ZN4core3ptr104drop_in_place$LT$pyo3..pyclass_init..PyClassInitializerImpl$LT$_oryon..pipelines..TargetPipeline$GT$$GT$17h58560747a7b3d49fE', symObjAddr: 0x108C, symBinAddr: 0x1041C, symSize: 0x58 }
  - { offset: 0x440AF, size: 0x8, addend: 0x0, symName: '__ZN4core3ptr105drop_in_place$LT$core..option..Option$LT$pyo3..pycell..PyRef$LT$_oryon..features..LinearSlope$GT$$GT$$GT$17h733f2e8e5693c668E', symObjAddr: 0x1108, symBinAddr: 0x10474, symSize: 0x44 }
  - { offset: 0x440DE, size: 0x8, addend: 0x0, symName: '__ZN4core3ptr105drop_in_place$LT$core..option..Option$LT$pyo3..pycell..PyRef$LT$_oryon..targets..FutureReturn$GT$$GT$$GT$17h4a04aa73074f25ffE', symObjAddr: 0x114C, symBinAddr: 0x104B8, symSize: 0x44 }
  - { offset: 0x4410D, size: 0x8, addend: 0x0, symName: '__ZN4core3ptr105drop_in_place$LT$core..option..Option$LT$pyo3..pycell..PyRefMut$LT$_oryon..features..Kurtosis$GT$$GT$$GT$17h9877822fbeb26539E', symObjAddr: 0x1190, symBinAddr: 0x104FC, symSize: 0x44 }
  - { offset: 0x4413C, size: 0x8, addend: 0x0, symName: '__ZN4core3ptr105drop_in_place$LT$core..option..Option$LT$pyo3..pycell..PyRefMut$LT$_oryon..features..Skewness$GT$$GT$$GT$17h4358492b1a871fa2E', symObjAddr: 0x11D4, symBinAddr: 0x10540, symSize: 0x44 }
  - { offset: 0x4416B, size: 0x8, addend: 0x0, symName: '__ZN4core3ptr105drop_in_place$LT$core..result..Result$LT$_oryon..features..ParkinsonVolatility$C$pyo3..err..PyErr$GT$$GT$17h23b27cc0dbaf1ea0E', symObjAddr: 0x1218, symBinAddr: 0x10584, symSize: 0x5C }
  - { offset: 0x4419A, size: 0x8, addend: 0x0, symName: '__ZN4core3ptr105drop_in_place$LT$pyo3..pyclass_init..PyClassInitializerImpl$LT$_oryon..pipelines..FeaturePipeline$GT$$GT$17hc5b9383618654192E', symObjAddr: 0x1298, symBinAddr: 0x105E0, symSize: 0x58 }
  - { offset: 0x441C9, size: 0x8, addend: 0x0, symName: '__ZN4core3ptr105drop_in_place$LT$pyo3..pyclass_init..PyClassInitializerImpl$LT$_oryon..targets..FutureLinearSlope$GT$$GT$17hc988363a65faf9d2E', symObjAddr: 0x12F0, symBinAddr: 0x10638, symSize: 0x58 }
  - { offset: 0x441F8, size: 0x8, addend: 0x0, symName: '__ZN4core3ptr106drop_in_place$LT$core..option..Option$LT$pyo3..pycell..PyRef$LT$_oryon..features..SimpleReturn$GT$$GT$$GT$17hca827870309982ecE', symObjAddr: 0x1348, symBinAddr: 0x10690, symSize: 0x44 }
  - { offset: 0x44227, size: 0x8, addend: 0x0, symName: '__ZN4core3ptr106drop_in_place$LT$core..option..Option$LT$pyo3..pycell..PyRef$LT$_oryon..scalers..RollingZScore$GT$$GT$$GT$17hf9cdd96a3581bf5eE', symObjAddr: 0x138C, symBinAddr: 0x106D4, symSize: 0x44 }
  - { offset: 0x44256, size: 0x8, addend: 0x0, symName: '__ZN4core3ptr106drop_in_place$LT$core..option..Option$LT$pyo3..pycell..PyRefMut$LT$_oryon..features..LogReturn$GT$$GT$$GT$17he15fe35d9fc6f1dbE', symObjAddr: 0x13D0, symBinAddr: 0x10718, symSize: 0x44 }
  - { offset: 0x44285, size: 0x8, addend: 0x0, symName: '__ZN4core3ptr106drop_in_place$LT$core..option..Option$LT$pyo3..pycell..PyRefMut$LT$_oryon..operators..Subtract$GT$$GT$$GT$17h5ee12dff4c36c1caE', symObjAddr: 0x1414, symBinAddr: 0x1075C, symSize: 0x44 }
  - { offset: 0x442B4, size: 0x8, addend: 0x0, symName: '__ZN4core3ptr107drop_in_place$LT$core..option..Option$LT$pyo3..pycell..PyRefMut$LT$_oryon..scalers..FixedZScore$GT$$GT$$GT$17h8270058ce30fd655E', symObjAddr: 0x1458, symBinAddr: 0x107A0, symSize: 0x44 }
  - { offset: 0x442E3, size: 0x8, addend: 0x0, symName: '__ZN4core3ptr107drop_in_place$LT$pyo3..pyclass_init..PyClassInitializerImpl$LT$_oryon..targets..FutureCTCVolatility$GT$$GT$17hd00bc483addf18d7E', symObjAddr: 0x149C, symBinAddr: 0x107E4, symSize: 0x58 }
  - { offset: 0x44312, size: 0x8, addend: 0x0, symName: '__ZN4core3ptr108drop_in_place$LT$core..option..Option$LT$pyo3..pycell..PyRefMut$LT$_oryon..features..LinearSlope$GT$$GT$$GT$17ha265fe6c6338cda3E', symObjAddr: 0x14F4, symBinAddr: 0x1083C, symSize: 0x44 }
  - { offset: 0x44341, size: 0x8, addend: 0x0, symName: '__ZN4core3ptr108drop_in_place$LT$core..result..Result$LT$$LP$$RP$$C$alloc..borrow..Cow$LT$core..ffi..c_str..CStr$GT$$GT$$GT$17hb25e99b336e5f889E', symObjAddr: 0x1538, symBinAddr: 0x10880, symSize: 0x44 }
  - { offset: 0x44370, size: 0x8, addend: 0x0, symName: '__ZN4core3ptr108drop_in_place$LT$pyo3..pyclass_init..PyClassInitializerImpl$LT$_oryon..features..ParkinsonVolatility$GT$$GT$17heade5d3ec79d9257E', symObjAddr: 0x15A0, symBinAddr: 0x108C4, symSize: 0x58 }
  - { offset: 0x4439F, size: 0x8, addend: 0x0, symName: '__ZN4core3ptr109drop_in_place$LT$core..option..Option$LT$pyo3..pycell..PyRef$LT$_oryon..pipelines..TargetPipeline$GT$$GT$$GT$17h79387036042edfe1E', symObjAddr: 0x1658, symBinAddr: 0x1091C, symSize: 0x44 }
  - { offset: 0x443CE, size: 0x8, addend: 0x0, symName: '__ZN4core3ptr109drop_in_place$LT$core..option..Option$LT$pyo3..pycell..PyRefMut$LT$_oryon..features..SimpleReturn$GT$$GT$$GT$17hf578a7f3244d4f91E', symObjAddr: 0x169C, symBinAddr: 0x10960, symSize: 0x44 }
  - { offset: 0x443FD, size: 0x8, addend: 0x0, symName: '__ZN4core3ptr109drop_in_place$LT$core..option..Option$LT$pyo3..pycell..PyRefMut$LT$_oryon..scalers..RollingZScore$GT$$GT$$GT$17h51045c631400adceE', symObjAddr: 0x16E0, symBinAddr: 0x109A4, symSize: 0x44 }
  - { offset: 0x4442C, size: 0x8, addend: 0x0, symName: '__ZN4core3ptr109drop_in_place$LT$pyo3..pyclass_init..PyClassInitializer$LT$_oryon..features..RogersSatchellVolatility$GT$$GT$17h022aa9bccfbe0edcE', symObjAddr: 0x176C, symBinAddr: 0x109E8, symSize: 0x24 }
  - { offset: 0x4445B, size: 0x8, addend: 0x0, symName: '__ZN4core3ptr110drop_in_place$LT$core..option..Option$LT$pyo3..pycell..PyRef$LT$_oryon..pipelines..FeaturePipeline$GT$$GT$$GT$17hfabeff29c83f100aE', symObjAddr: 0x1790, symBinAddr: 0x10A0C, symSize: 0x44 }
  - { offset: 0x4448A, size: 0x8, addend: 0x0, symName: '__ZN4core3ptr110drop_in_place$LT$core..option..Option$LT$pyo3..pycell..PyRef$LT$_oryon..targets..FutureLinearSlope$GT$$GT$$GT$17ha73ffe7eb76fb5f1E', symObjAddr: 0x17D4, symBinAddr: 0x10A50, symSize: 0x44 }
  - { offset: 0x444B9, size: 0x8, addend: 0x0, symName: '__ZN4core3ptr110drop_in_place$LT$core..result..Result$LT$_oryon..features..RogersSatchellVolatility$C$pyo3..err..PyErr$GT$$GT$17h32e3f5e618c675f3E', symObjAddr: 0x1818, symBinAddr: 0x10A94, symSize: 0x5C }
  - { offset: 0x444E8, size: 0x8, addend: 0x0, symName: '__ZN4core3ptr112drop_in_place$LT$core..option..Option$LT$pyo3..pycell..PyRef$LT$_oryon..targets..FutureCTCVolatility$GT$$GT$$GT$17he855e2706d94a952E', symObjAddr: 0x18E0, symBinAddr: 0x10AF0, symSize: 0x44 }
  - { offset: 0x44517, size: 0x8, addend: 0x0, symName: '__ZN4core3ptr112drop_in_place$LT$core..result..Result$LT$alloc..vec..Vec$LT$alloc..string..String$GT$$C$pyo3..err..PyErr$GT$$GT$17h7a539ccbfe488d9dE', symObjAddr: 0x1924, symBinAddr: 0x10B34, symSize: 0x50 }
  - { offset: 0x44546, size: 0x8, addend: 0x0, symName: '__ZN4core3ptr113drop_in_place$LT$core..option..Option$LT$pyo3..pycell..PyRef$LT$_oryon..features..ParkinsonVolatility$GT$$GT$$GT$17h1b011aed804107a6E', symObjAddr: 0x19BC, symBinAddr: 0x10B84, symSize: 0x44 }
  - { offset: 0x44575, size: 0x8, addend: 0x0, symName: '__ZN4core3ptr113drop_in_place$LT$core..option..Option$LT$pyo3..pycell..PyRefMut$LT$_oryon..pipelines..FeaturePipeline$GT$$GT$$GT$17h2180c7442a1e0179E', symObjAddr: 0x1A00, symBinAddr: 0x10BC8, symSize: 0x44 }
  - { offset: 0x445A4, size: 0x8, addend: 0x0, symName: '__ZN4core3ptr113drop_in_place$LT$pyo3..pyclass_init..PyClassInitializerImpl$LT$_oryon..features..RogersSatchellVolatility$GT$$GT$17haa4dae330689100fE', symObjAddr: 0x1A8C, symBinAddr: 0x10C0C, symSize: 0x58 }
  - { offset: 0x445D3, size: 0x8, addend: 0x0, symName: '__ZN4core3ptr116drop_in_place$LT$core..option..Option$LT$pyo3..pycell..PyRefMut$LT$_oryon..features..ParkinsonVolatility$GT$$GT$$GT$17he8c15649af45d5fbE', symObjAddr: 0x1AE4, symBinAddr: 0x10C64, symSize: 0x44 }
  - { offset: 0x44602, size: 0x8, addend: 0x0, symName: '__ZN4core3ptr116drop_in_place$LT$core..result..Result$LT$pyo3..pycell..PyRef$LT$_oryon..features..Adf$GT$$C$pyo3..err..PyErr$GT$$GT$17hd48523b65ebc9b98E', symObjAddr: 0x1B28, symBinAddr: 0x10CA8, symSize: 0x50 }
  - { offset: 0x44631, size: 0x8, addend: 0x0, symName: '__ZN4core3ptr116drop_in_place$LT$core..result..Result$LT$pyo3..pycell..PyRef$LT$_oryon..features..Ema$GT$$C$pyo3..err..PyErr$GT$$GT$17h84888ad541347947E', symObjAddr: 0x1B78, symBinAddr: 0x10CF8, symSize: 0x50 }
  - { offset: 0x44660, size: 0x8, addend: 0x0, symName: '__ZN4core3ptr116drop_in_place$LT$core..result..Result$LT$pyo3..pycell..PyRef$LT$_oryon..features..Mma$GT$$C$pyo3..err..PyErr$GT$$GT$17h827048f35c20c559E', symObjAddr: 0x1BC8, symBinAddr: 0x10D48, symSize: 0x50 }
  - { offset: 0x4468F, size: 0x8, addend: 0x0, symName: '__ZN4core3ptr116drop_in_place$LT$core..result..Result$LT$pyo3..pycell..PyRef$LT$_oryon..features..Sma$GT$$C$pyo3..err..PyErr$GT$$GT$17hc67208e7717bf737E', symObjAddr: 0x1C18, symBinAddr: 0x10D98, symSize: 0x50 }
  - { offset: 0x446BE, size: 0x8, addend: 0x0, symName: '__ZN4core3ptr117drop_in_place$LT$core..result..Result$LT$alloc..vec..Vec$LT$alloc..vec..Vec$LT$f64$GT$$GT$$C$pyo3..err..PyErr$GT$$GT$17h73bb7e9f1b8dd132E', symObjAddr: 0x1C8C, symBinAddr: 0x10DE8, symSize: 0x50 }
  - { offset: 0x446ED, size: 0x8, addend: 0x0, symName: '__ZN4core3ptr117drop_in_place$LT$core..result..Result$LT$pyo3..pycell..PyRef$LT$_oryon..features..Kama$GT$$C$pyo3..err..PyErr$GT$$GT$17heddce4c750520794E', symObjAddr: 0x1CDC, symBinAddr: 0x10E38, symSize: 0x50 }
  - { offset: 0x4471C, size: 0x8, addend: 0x0, symName: '__ZN4core3ptr118drop_in_place$LT$core..option..Option$LT$pyo3..pycell..PyRef$LT$_oryon..features..RogersSatchellVolatility$GT$$GT$$GT$17hc0ca8e0a9d5aa549E', symObjAddr: 0x1D74, symBinAddr: 0x10E88, symSize: 0x44 }
  - { offset: 0x4474B, size: 0x8, addend: 0x0, symName: '__ZN4core3ptr119drop_in_place$LT$core..ops..control_flow..ControlFlow$LT$alloc..boxed..Box$LT$dyn$u20$oryon..traits..Target$GT$$GT$$GT$17h0fe3f29e4289d3d5E', symObjAddr: 0x1DB8, symBinAddr: 0x10ECC, symSize: 0x44 }
  - { offset: 0x4477A, size: 0x8, addend: 0x0, symName: '__ZN4core3ptr120drop_in_place$LT$core..result..Result$LT$pyo3..pycell..PyRef$LT$_oryon..operators..NegLog$GT$$C$pyo3..err..PyErr$GT$$GT$17h46eb79a12508a418E', symObjAddr: 0x1E20, symBinAddr: 0x10F10, symSize: 0x50 }
  - { offset: 0x447A9, size: 0x8, addend: 0x0, symName: '__ZN4core3ptr121drop_in_place$LT$core..option..Option$LT$core..result..Result$LT$core..convert..Infallible$C$pyo3..err..PyErr$GT$$GT$$GT$17hcfd4469e990a60a4E', symObjAddr: 0x1E94, symBinAddr: 0x10F60, symSize: 0x40 }
  - { offset: 0x447D8, size: 0x8, addend: 0x0, symName: '__ZN4core3ptr121drop_in_place$LT$core..option..Option$LT$pyo3..pycell..PyRefMut$LT$_oryon..features..RogersSatchellVolatility$GT$$GT$$GT$17hce06e8dee0888f36E', symObjAddr: 0x1ED4, symBinAddr: 0x10FA0, symSize: 0x44 }
  - { offset: 0x44807, size: 0x8, addend: 0x0, symName: '__ZN4core3ptr121drop_in_place$LT$core..result..Result$LT$pyo3..pycell..PyRef$LT$_oryon..features..Kurtosis$GT$$C$pyo3..err..PyErr$GT$$GT$17h1f85b669c3f11ff5E', symObjAddr: 0x1F18, symBinAddr: 0x10FE4, symSize: 0x50 }
  - { offset: 0x44836, size: 0x8, addend: 0x0, symName: '__ZN4core3ptr121drop_in_place$LT$core..result..Result$LT$pyo3..pycell..PyRef$LT$_oryon..features..Skewness$GT$$C$pyo3..err..PyErr$GT$$GT$17h694c8de85c9244b7E', symObjAddr: 0x1F68, symBinAddr: 0x11034, symSize: 0x50 }
  - { offset: 0x44865, size: 0x8, addend: 0x0, symName: '__ZN4core3ptr122drop_in_place$LT$core..result..Result$LT$pyo3..pycell..PyRef$LT$_oryon..features..LogReturn$GT$$C$pyo3..err..PyErr$GT$$GT$17h9a2417d5f4db0350E', symObjAddr: 0x1FB8, symBinAddr: 0x11084, symSize: 0x50 }
  - { offset: 0x44894, size: 0x8, addend: 0x0, symName: '__ZN4core3ptr122drop_in_place$LT$core..result..Result$LT$pyo3..pycell..PyRef$LT$_oryon..operators..Subtract$GT$$C$pyo3..err..PyErr$GT$$GT$17h0a1269342459615fE', symObjAddr: 0x2008, symBinAddr: 0x110D4, symSize: 0x50 }
  - { offset: 0x448C3, size: 0x8, addend: 0x0, symName: '__ZN4core3ptr123drop_in_place$LT$core..result..Result$LT$pyo3..pycell..PyRef$LT$_oryon..scalers..FixedZScore$GT$$C$pyo3..err..PyErr$GT$$GT$17h4530618dce61fc5aE', symObjAddr: 0x2058, symBinAddr: 0x11124, symSize: 0x50 }
  - { offset: 0x448F2, size: 0x8, addend: 0x0, symName: '__ZN4core3ptr124drop_in_place$LT$core..result..Result$LT$pyo3..pycell..PyRef$LT$_oryon..features..LinearSlope$GT$$C$pyo3..err..PyErr$GT$$GT$17h49fb5b105bc94438E', symObjAddr: 0x20A8, symBinAddr: 0x11174, symSize: 0x50 }
  - { offset: 0x44921, size: 0x8, addend: 0x0, symName: '__ZN4core3ptr124drop_in_place$LT$core..result..Result$LT$pyo3..pycell..PyRef$LT$_oryon..targets..FutureReturn$GT$$C$pyo3..err..PyErr$GT$$GT$17h5fbcf1861fdfd09eE', symObjAddr: 0x20F8, symBinAddr: 0x111C4, symSize: 0x50 }
  - { offset: 0x44950, size: 0x8, addend: 0x0, symName: '__ZN4core3ptr125drop_in_place$LT$core..result..Result$LT$pyo3..pycell..PyRef$LT$_oryon..features..SimpleReturn$GT$$C$pyo3..err..PyErr$GT$$GT$17h97babe5315286643E', symObjAddr: 0x2148, symBinAddr: 0x11214, symSize: 0x50 }
  - { offset: 0x4497F, size: 0x8, addend: 0x0, symName: '__ZN4core3ptr125drop_in_place$LT$core..result..Result$LT$pyo3..pycell..PyRef$LT$_oryon..scalers..RollingZScore$GT$$C$pyo3..err..PyErr$GT$$GT$17h58085a475f26465aE', symObjAddr: 0x2198, symBinAddr: 0x11264, symSize: 0x50 }
  - { offset: 0x449AE, size: 0x8, addend: 0x0, symName: '__ZN4core3ptr128drop_in_place$LT$pyo3..err..PyErr..new$LT$_oryon..InvalidInputError$C$alloc..string..String$GT$..$u7b$$u7b$closure$u7d$$u7d$$GT$17had9216c379712c54E', symObjAddr: 0x220C, symBinAddr: 0x112B4, symSize: 0x24 }
  - { offset: 0x449DD, size: 0x8, addend: 0x0, symName: '__ZN4core3ptr129drop_in_place$LT$core..result..Result$LT$pyo3..pycell..PyRef$LT$_oryon..targets..FutureLinearSlope$GT$$C$pyo3..err..PyErr$GT$$GT$17h315ffdf88b2e6a47E', symObjAddr: 0x2230, symBinAddr: 0x112D8, symSize: 0x50 }
  - { offset: 0x44A0C, size: 0x8, addend: 0x0, symName: '__ZN4core3ptr129drop_in_place$LT$pyo3..err..PyErr..new$LT$_oryon..InvalidConfigError$C$alloc..string..String$GT$..$u7b$$u7b$closure$u7d$$u7d$$GT$17he42207f8d3ec74eaE', symObjAddr: 0x2280, symBinAddr: 0x11328, symSize: 0x24 }
  - { offset: 0x44A3B, size: 0x8, addend: 0x0, symName: '__ZN4core3ptr131drop_in_place$LT$core..ops..control_flow..ControlFlow$LT$alloc..boxed..Box$LT$dyn$u20$oryon..traits..StreamingTransform$GT$$GT$$GT$17h305147682a1d0dcbE', symObjAddr: 0x22A4, symBinAddr: 0x1134C, symSize: 0x44 }
  - { offset: 0x44A6A, size: 0x8, addend: 0x0, symName: '__ZN4core3ptr131drop_in_place$LT$core..result..Result$LT$pyo3..pycell..PyRef$LT$_oryon..targets..FutureCTCVolatility$GT$$C$pyo3..err..PyErr$GT$$GT$17hd512bb1d2f7357a1E', symObjAddr: 0x22E8, symBinAddr: 0x11390, symSize: 0x50 }
  - { offset: 0x44A99, size: 0x8, addend: 0x0, symName: '__ZN4core3ptr132drop_in_place$LT$core..result..Result$LT$pyo3..pycell..PyRef$LT$_oryon..features..ParkinsonVolatility$GT$$C$pyo3..err..PyErr$GT$$GT$17h57064ca8dbba08e4E', symObjAddr: 0x2338, symBinAddr: 0x113E0, symSize: 0x50 }
  - { offset: 0x44AC8, size: 0x8, addend: 0x0, symName: '__ZN4core3ptr134drop_in_place$LT$pyo3..err..PyErr..new$LT$_oryon..DuplicateOutputKeyError$C$alloc..string..String$GT$..$u7b$$u7b$closure$u7d$$u7d$$GT$17h35ded9b5d98a8956E', symObjAddr: 0x2388, symBinAddr: 0x11430, symSize: 0x24 }
  - { offset: 0x44AF7, size: 0x8, addend: 0x0, symName: '__ZN4core3ptr134drop_in_place$LT$pyo3..err..PyErr..new$LT$_oryon..MissingInputColumnError$C$alloc..string..String$GT$..$u7b$$u7b$closure$u7d$$u7d$$GT$17hcd8e3d5073536bc6E', symObjAddr: 0x23AC, symBinAddr: 0x11454, symSize: 0x24 }
  - { offset: 0x44B26, size: 0x8, addend: 0x0, symName: '__ZN4core3ptr137drop_in_place$LT$core..result..Result$LT$pyo3..pycell..PyRef$LT$_oryon..features..RogersSatchellVolatility$GT$$C$pyo3..err..PyErr$GT$$GT$17h232557427a248cc8E', symObjAddr: 0x23D0, symBinAddr: 0x11478, symSize: 0x50 }
  - { offset: 0x44B55, size: 0x8, addend: 0x0, symName: '__ZN4core3ptr157drop_in_place$LT$$LT$alloc..vec..into_iter..IntoIter$LT$T$C$A$GT$$u20$as$u20$core..ops..drop..Drop$GT$..drop..DropGuard$LT$f64$C$alloc..alloc..Global$GT$$GT$17h5b860e5802f36668E', symObjAddr: 0x2420, symBinAddr: 0x114C8, symSize: 0x24 }
  - { offset: 0x44B84, size: 0x8, addend: 0x0, symName: '__ZN4core3ptr180drop_in_place$LT$$LT$alloc..vec..into_iter..IntoIter$LT$T$C$A$GT$$u20$as$u20$core..ops..drop..Drop$GT$..drop..DropGuard$LT$alloc..vec..Vec$LT$f64$GT$$C$alloc..alloc..Global$GT$$GT$17h5809c5b78fda7059E', symObjAddr: 0x2444, symBinAddr: 0x114EC, symSize: 0x24 }
  - { offset: 0x44BB3, size: 0x8, addend: 0x0, symName: '__ZN4core3ptr247drop_in_place$LT$alloc..vec..Vec$LT$core..option..Option$LT$f64$GT$$GT$..extend_trusted$LT$core..iter..adapters..map..Map$LT$core..slice..iter..Iter$LT$f64$GT$$C$_oryon..to_rust..$u7b$$u7b$closure$u7d$$u7d$$GT$$GT$..$u7b$$u7b$closure$u7d$$u7d$$GT$17hb95e3ff0e237ecd8E', symObjAddr: 0x2468, symBinAddr: 0x11510, symSize: 0x24 }
  - { offset: 0x44BE2, size: 0x8, addend: 0x0, symName: '__ZN4core3ptr249drop_in_place$LT$alloc..vec..Vec$LT$f64$GT$..extend_trusted$LT$core..iter..adapters..map..Map$LT$core..slice..iter..Iter$LT$core..option..Option$LT$f64$GT$$GT$$C$_oryon..to_python..$u7b$$u7b$closure$u7d$$u7d$$GT$$GT$..$u7b$$u7b$closure$u7d$$u7d$$GT$17hb7142de5eb8f5093E', symObjAddr: 0x248C, symBinAddr: 0x11534, symSize: 0x24 }
  - { offset: 0x44C11, size: 0x8, addend: 0x0, symName: '__ZN4core3ptr250drop_in_place$LT$core..iter..adapters..map..Map$LT$alloc..vec..into_iter..IntoIter$LT$f64$GT$$C$$LT$f64$u20$as$u20$pyo3..conversion..IntoPyObject$GT$..owned_sequence_into_pyobject$LT$alloc..vec..Vec$LT$f64$GT$$GT$..$u7b$$u7b$closure$u7d$$u7d$$GT$$GT$17h3596dba57788b136E', symObjAddr: 0x24B0, symBinAddr: 0x11558, symSize: 0x24 }
  - { offset: 0x44C40, size: 0x8, addend: 0x0, symName: '__ZN4core3ptr304drop_in_place$LT$core..iter..adapters..map..Map$LT$alloc..vec..into_iter..IntoIter$LT$alloc..string..String$GT$$C$$LT$alloc..string..String$u20$as$u20$pyo3..conversion..IntoPyObject$GT$..owned_sequence_into_pyobject$LT$alloc..vec..Vec$LT$alloc..string..String$GT$$GT$..$u7b$$u7b$closure$u7d$$u7d$$GT$$GT$17h364c9795b147abb2E', symObjAddr: 0x24D4, symBinAddr: 0x1157C, symSize: 0x24 }
  - { offset: 0x44C6F, size: 0x8, addend: 0x0, symName: '__ZN4core3ptr319drop_in_place$LT$core..iter..adapters..map..Map$LT$alloc..vec..into_iter..IntoIter$LT$alloc..vec..Vec$LT$f64$GT$$GT$$C$$LT$alloc..vec..Vec$LT$f64$GT$$u20$as$u20$pyo3..conversion..IntoPyObject$GT$..owned_sequence_into_pyobject$LT$alloc..vec..Vec$LT$alloc..vec..Vec$LT$f64$GT$$GT$$GT$..$u7b$$u7b$closure$u7d$$u7d$$GT$$GT$17h95ae941025467314E', symObjAddr: 0x24F8, symBinAddr: 0x115A0, symSize: 0x24 }
  - { offset: 0x44C9E, size: 0x8, addend: 0x0, symName: '__ZN4core3ptr325drop_in_place$LT$alloc..vec..Vec$LT$alloc..vec..Vec$LT$core..option..Option$LT$f64$GT$$GT$$GT$..extend_trusted$LT$core..iter..adapters..map..Map$LT$core..slice..iter..Iter$LT$alloc..vec..Vec$LT$f64$GT$$GT$$C$_oryon..pipelines..TargetPipeline..run_research..$u7b$$u7b$closure$u7d$$u7d$$GT$$GT$..$u7b$$u7b$closure$u7d$$u7d$$GT$17h0b52bd80134d4a91E', symObjAddr: 0x251C, symBinAddr: 0x115C4, symSize: 0x24 }
  - { offset: 0x44CCD, size: 0x8, addend: 0x0, symName: '__ZN4core3ptr326drop_in_place$LT$alloc..vec..Vec$LT$alloc..vec..Vec$LT$core..option..Option$LT$f64$GT$$GT$$GT$..extend_trusted$LT$core..iter..adapters..map..Map$LT$core..slice..iter..Iter$LT$alloc..vec..Vec$LT$f64$GT$$GT$$C$_oryon..pipelines..FeaturePipeline..run_research..$u7b$$u7b$closure$u7d$$u7d$$GT$$GT$..$u7b$$u7b$closure$u7d$$u7d$$GT$17h95d72ff3037b2598E', symObjAddr: 0x2540, symBinAddr: 0x115E8, symSize: 0x24 }
  - { offset: 0x44CFC, size: 0x8, addend: 0x0, symName: '__ZN4core3ptr344drop_in_place$LT$alloc..vec..Vec$LT$$RF$$u5b$core..option..Option$LT$f64$GT$$u5d$$GT$..extend_trusted$LT$core..iter..adapters..map..Map$LT$core..slice..iter..Iter$LT$alloc..vec..Vec$LT$core..option..Option$LT$f64$GT$$GT$$GT$$C$_oryon..pipelines..TargetPipeline..run_research..$u7b$$u7b$closure$u7d$$u7d$$GT$$GT$..$u7b$$u7b$closure$u7d$$u7d$$GT$17h18faf329a196735cE', symObjAddr: 0x2564, symBinAddr: 0x1160C, symSize: 0x24 }
  - { offset: 0x44D2B, size: 0x8, addend: 0x0, symName: '__ZN4core3ptr346drop_in_place$LT$core..iter..traits..iterator..Iterator..for_each..call$LT$f64$C$alloc..vec..Vec$LT$f64$GT$..extend_trusted$LT$core..iter..adapters..map..Map$LT$core..slice..iter..Iter$LT$core..option..Option$LT$f64$GT$$GT$$C$_oryon..to_python..$u7b$$u7b$closure$u7d$$u7d$$GT$$GT$..$u7b$$u7b$closure$u7d$$u7d$$GT$..$u7b$$u7b$closure$u7d$$u7d$$GT$17hf2aa19a2bf68079cE', symObjAddr: 0x2588, symBinAddr: 0x11630, symSize: 0x24 }
  - { offset: 0x44D5A, size: 0x8, addend: 0x0, symName: '__ZN4core3ptr354drop_in_place$LT$alloc..vec..Vec$LT$alloc..vec..Vec$LT$f64$GT$$GT$..extend_trusted$LT$core..iter..adapters..map..Map$LT$core..slice..iter..Iter$LT$alloc..vec..Vec$LT$core..option..Option$LT$f64$GT$$GT$$GT$$C$_oryon..pipelines..TargetPipeline..run_research..$u7b$$u7b$closure$u7d$$u7d$..$u7b$$u7b$closure$u7d$$u7d$$GT$$GT$..$u7b$$u7b$closure$u7d$$u7d$$GT$17h8a3f536183ae9da3E', symObjAddr: 0x25AC, symBinAddr: 0x11654, symSize: 0x24 }
  - { offset: 0x44D89, size: 0x8, addend: 0x0, symName: '__ZN4core3ptr355drop_in_place$LT$alloc..vec..Vec$LT$alloc..vec..Vec$LT$f64$GT$$GT$..extend_trusted$LT$core..iter..adapters..map..Map$LT$core..slice..iter..Iter$LT$alloc..vec..Vec$LT$core..option..Option$LT$f64$GT$$GT$$GT$$C$_oryon..pipelines..FeaturePipeline..run_research..$u7b$$u7b$closure$u7d$$u7d$..$u7b$$u7b$closure$u7d$$u7d$$GT$$GT$..$u7b$$u7b$closure$u7d$$u7d$$GT$17h423cdb75c03094d3E', symObjAddr: 0x25D0, symBinAddr: 0x11678, symSize: 0x24 }
  - { offset: 0x44DB8, size: 0x8, addend: 0x0, symName: '__ZN4core3ptr372drop_in_place$LT$core..iter..traits..iterator..Iterator..for_each..call$LT$core..option..Option$LT$f64$GT$$C$alloc..vec..Vec$LT$core..option..Option$LT$f64$GT$$GT$..extend_trusted$LT$core..iter..adapters..map..Map$LT$core..slice..iter..Iter$LT$f64$GT$$C$_oryon..to_rust..$u7b$$u7b$closure$u7d$$u7d$$GT$$GT$..$u7b$$u7b$closure$u7d$$u7d$$GT$..$u7b$$u7b$closure$u7d$$u7d$$GT$17h54ec36f09af9b541E', symObjAddr: 0x25F4, symBinAddr: 0x1169C, symSize: 0x24 }
  - { offset: 0x44DE7, size: 0x8, addend: 0x0, symName: '__ZN4core3ptr42drop_in_place$LT$_oryon..features..Adf$GT$17hb9d0a5a3f480e697E', symObjAddr: 0x2618, symBinAddr: 0x116C0, symSize: 0x60 }
  - { offset: 0x44E16, size: 0x8, addend: 0x0, symName: '__ZN4core3ptr42drop_in_place$LT$_oryon..features..Ema$GT$17h7add45660189c26dE', symObjAddr: 0x2678, symBinAddr: 0x11720, symSize: 0x24 }
  - { offset: 0x44E45, size: 0x8, addend: 0x0, symName: '__ZN4core3ptr42drop_in_place$LT$_oryon..features..Mma$GT$17hd2065a5e82623882E', symObjAddr: 0x269C, symBinAddr: 0x11744, symSize: 0x24 }
  - { offset: 0x44E74, size: 0x8, addend: 0x0, symName: '__ZN4core3ptr42drop_in_place$LT$_oryon..features..Sma$GT$17he61b6395cc5a71d3E', symObjAddr: 0x26C0, symBinAddr: 0x11768, symSize: 0x24 }
  - { offset: 0x44EA3, size: 0x8, addend: 0x0, symName: '__ZN4core3ptr43drop_in_place$LT$_oryon..features..Kama$GT$17haff311867be318d7E', symObjAddr: 0x26E4, symBinAddr: 0x1178C, symSize: 0x24 }
  - { offset: 0x44ED2, size: 0x8, addend: 0x0, symName: '__ZN4core3ptr46drop_in_place$LT$_oryon..operators..NegLog$GT$17h8710bdec23d35a3bE', symObjAddr: 0x2708, symBinAddr: 0x117B0, symSize: 0x24 }
  - { offset: 0x44F01, size: 0x8, addend: 0x0, symName: '__ZN4core3ptr473drop_in_place$LT$core..iter..traits..iterator..Iterator..for_each..call$LT$alloc..vec..Vec$LT$core..option..Option$LT$f64$GT$$GT$$C$alloc..vec..Vec$LT$alloc..vec..Vec$LT$core..option..Option$LT$f64$GT$$GT$$GT$..extend_trusted$LT$core..iter..adapters..map..Map$LT$core..slice..iter..Iter$LT$alloc..vec..Vec$LT$f64$GT$$GT$$C$_oryon..pipelines..TargetPipeline..run_research..$u7b$$u7b$closure$u7d$$u7d$$GT$$GT$..$u7b$$u7b$closure$u7d$$u7d$$GT$..$u7b$$u7b$closure$u7d$$u7d$$GT$17hbfa78b517da0e98dE', symObjAddr: 0x272C, symBinAddr: 0x117D4, symSize: 0x24 }
  - { offset: 0x44F30, size: 0x8, addend: 0x0, symName: '__ZN4core3ptr474drop_in_place$LT$core..iter..traits..iterator..Iterator..for_each..call$LT$alloc..vec..Vec$LT$core..option..Option$LT$f64$GT$$GT$$C$alloc..vec..Vec$LT$alloc..vec..Vec$LT$core..option..Option$LT$f64$GT$$GT$$GT$..extend_trusted$LT$core..iter..adapters..map..Map$LT$core..slice..iter..Iter$LT$alloc..vec..Vec$LT$f64$GT$$GT$$C$_oryon..pipelines..FeaturePipeline..run_research..$u7b$$u7b$closure$u7d$$u7d$$GT$$GT$..$u7b$$u7b$closure$u7d$$u7d$$GT$..$u7b$$u7b$closure$u7d$$u7d$$GT$17hc1e19bc0747c0708E', symObjAddr: 0x2750, symBinAddr: 0x117F8, symSize: 0x24 }
  - { offset: 0x44F5F, size: 0x8, addend: 0x0, symName: '__ZN4core3ptr474drop_in_place$LT$core..iter..traits..iterator..Iterator..for_each..call$LT$alloc..vec..Vec$LT$f64$GT$$C$alloc..vec..Vec$LT$alloc..vec..Vec$LT$f64$GT$$GT$..extend_trusted$LT$core..iter..adapters..map..Map$LT$core..slice..iter..Iter$LT$alloc..vec..Vec$LT$core..option..Option$LT$f64$GT$$GT$$GT$$C$_oryon..pipelines..TargetPipeline..run_research..$u7b$$u7b$closure$u7d$$u7d$..$u7b$$u7b$closure$u7d$$u7d$$GT$$GT$..$u7b$$u7b$closure$u7d$$u7d$$GT$..$u7b$$u7b$closure$u7d$$u7d$$GT$17h230a710aca0bc1d9E', symObjAddr: 0x2774, symBinAddr: 0x1181C, symSize: 0x24 }
  - { offset: 0x44F8E, size: 0x8, addend: 0x0, symName: '__ZN4core3ptr475drop_in_place$LT$core..iter..traits..iterator..Iterator..for_each..call$LT$alloc..vec..Vec$LT$f64$GT$$C$alloc..vec..Vec$LT$alloc..vec..Vec$LT$f64$GT$$GT$..extend_trusted$LT$core..iter..adapters..map..Map$LT$core..slice..iter..Iter$LT$alloc..vec..Vec$LT$core..option..Option$LT$f64$GT$$GT$$GT$$C$_oryon..pipelines..FeaturePipeline..run_research..$u7b$$u7b$closure$u7d$$u7d$..$u7b$$u7b$closure$u7d$$u7d$$GT$$GT$..$u7b$$u7b$closure$u7d$$u7d$$GT$..$u7b$$u7b$closure$u7d$$u7d$$GT$17h11d3b4e674d518f2E', symObjAddr: 0x2798, symBinAddr: 0x11840, symSize: 0x24 }
  - { offset: 0x44FBD, size: 0x8, addend: 0x0, symName: '__ZN4core3ptr47drop_in_place$LT$_oryon..features..Kurtosis$GT$17ha16edc92d4b24729E', symObjAddr: 0x27BC, symBinAddr: 0x11864, symSize: 0x24 }
  - { offset: 0x44FEC, size: 0x8, addend: 0x0, symName: '__ZN4core3ptr47drop_in_place$LT$_oryon..features..Skewness$GT$17he1263f40d623ea95E', symObjAddr: 0x27E0, symBinAddr: 0x11888, symSize: 0x24 }
  - { offset: 0x4501B, size: 0x8, addend: 0x0, symName: '__ZN4core3ptr483drop_in_place$LT$core..iter..traits..iterator..Iterator..for_each..call$LT$$RF$$u5b$core..option..Option$LT$f64$GT$$u5d$$C$alloc..vec..Vec$LT$$RF$$u5b$core..option..Option$LT$f64$GT$$u5d$$GT$..extend_trusted$LT$core..iter..adapters..map..Map$LT$core..slice..iter..Iter$LT$alloc..vec..Vec$LT$core..option..Option$LT$f64$GT$$GT$$GT$$C$_oryon..pipelines..TargetPipeline..run_research..$u7b$$u7b$closure$u7d$$u7d$$GT$$GT$..$u7b$$u7b$closure$u7d$$u7d$$GT$..$u7b$$u7b$closure$u7d$$u7d$$GT$17heeccdc756e54cd5aE', symObjAddr: 0x2804, symBinAddr: 0x118AC, symSize: 0x24 }
  - { offset: 0x4504A, size: 0x8, addend: 0x0, symName: '__ZN4core3ptr48drop_in_place$LT$_oryon..features..LogReturn$GT$17hdacd0ea407232db0E', symObjAddr: 0x2828, symBinAddr: 0x118D0, symSize: 0x24 }
  - { offset: 0x45079, size: 0x8, addend: 0x0, symName: '__ZN4core3ptr48drop_in_place$LT$_oryon..operators..Subtract$GT$17hd275927bb47f4135E', symObjAddr: 0x284C, symBinAddr: 0x118F4, symSize: 0x24 }
  - { offset: 0x450A8, size: 0x8, addend: 0x0, symName: '__ZN4core3ptr49drop_in_place$LT$_oryon..scalers..FixedZScore$GT$17hb92b226b94d5d231E', symObjAddr: 0x2870, symBinAddr: 0x11918, symSize: 0x24 }
  - { offset: 0x450D7, size: 0x8, addend: 0x0, symName: '__ZN4core3ptr50drop_in_place$LT$_oryon..features..LinearSlope$GT$17hd8a74cb4a08bddd4E', symObjAddr: 0x2894, symBinAddr: 0x1193C, symSize: 0x24 }
  - { offset: 0x45106, size: 0x8, addend: 0x0, symName: '__ZN4core3ptr50drop_in_place$LT$_oryon..targets..FutureReturn$GT$17h6f64d6a1b698b129E', symObjAddr: 0x28B8, symBinAddr: 0x11960, symSize: 0x60 }
  - { offset: 0x45135, size: 0x8, addend: 0x0, symName: '__ZN4core3ptr51drop_in_place$LT$_oryon..features..SimpleReturn$GT$17h1687d55e23e43dcbE', symObjAddr: 0x2918, symBinAddr: 0x119C0, symSize: 0x24 }
  - { offset: 0x45164, size: 0x8, addend: 0x0, symName: '__ZN4core3ptr51drop_in_place$LT$_oryon..scalers..RollingZScore$GT$17h39b6836419a41325E', symObjAddr: 0x293C, symBinAddr: 0x119E4, symSize: 0x24 }
  - { offset: 0x45193, size: 0x8, addend: 0x0, symName: '__ZN4core3ptr522drop_in_place$LT$core..iter..adapters..map..map_fold$LT$$RF$core..option..Option$LT$f64$GT$$C$f64$C$$LP$$RP$$C$_oryon..to_python..$u7b$$u7b$closure$u7d$$u7d$$C$core..iter..traits..iterator..Iterator..for_each..call$LT$f64$C$alloc..vec..Vec$LT$f64$GT$..extend_trusted$LT$core..iter..adapters..map..Map$LT$core..slice..iter..Iter$LT$core..option..Option$LT$f64$GT$$GT$$C$_oryon..to_python..$u7b$$u7b$closure$u7d$$u7d$$GT$$GT$..$u7b$$u7b$closure$u7d$$u7d$$GT$..$u7b$$u7b$closure$u7d$$u7d$$GT$..$u7b$$u7b$closure$u7d$$u7d$$GT$17h925184cf598fb086E', symObjAddr: 0x2960, symBinAddr: 0x11A08, symSize: 0x24 }
  - { offset: 0x451C2, size: 0x8, addend: 0x0, symName: '__ZN4core3ptr546drop_in_place$LT$core..iter..adapters..map..map_fold$LT$$RF$f64$C$core..option..Option$LT$f64$GT$$C$$LP$$RP$$C$_oryon..to_rust..$u7b$$u7b$closure$u7d$$u7d$$C$core..iter..traits..iterator..Iterator..for_each..call$LT$core..option..Option$LT$f64$GT$$C$alloc..vec..Vec$LT$core..option..Option$LT$f64$GT$$GT$..extend_trusted$LT$core..iter..adapters..map..Map$LT$core..slice..iter..Iter$LT$f64$GT$$C$_oryon..to_rust..$u7b$$u7b$closure$u7d$$u7d$$GT$$GT$..$u7b$$u7b$closure$u7d$$u7d$$GT$..$u7b$$u7b$closure$u7d$$u7d$$GT$..$u7b$$u7b$closure$u7d$$u7d$$GT$17h1e2349602c2d5a5eE', symObjAddr: 0x29A8, symBinAddr: 0x11A2C, symSize: 0x24 }
  - { offset: 0x451F1, size: 0x8, addend: 0x0, symName: '__ZN4core3ptr54drop_in_place$LT$_oryon..pipelines..TargetPipeline$GT$17h0b170cf8faf537efE', symObjAddr: 0x29CC, symBinAddr: 0x11A50, symSize: 0x24 }
  - { offset: 0x45220, size: 0x8, addend: 0x0, symName: '__ZN4core3ptr55drop_in_place$LT$_oryon..pipelines..FeaturePipeline$GT$17h9541c9df55fb2165E', symObjAddr: 0x29F0, symBinAddr: 0x11A74, symSize: 0x24 }
  - { offset: 0x4524F, size: 0x8, addend: 0x0, symName: '__ZN4core3ptr55drop_in_place$LT$_oryon..targets..FutureLinearSlope$GT$17h874b8eaf7ee1e082E', symObjAddr: 0x2A14, symBinAddr: 0x11A98, symSize: 0x60 }
  - { offset: 0x4527E, size: 0x8, addend: 0x0, symName: '__ZN4core3ptr57drop_in_place$LT$$u5b$alloc..vec..Vec$LT$f64$GT$$u5d$$GT$17h1e3a69742666c006E', symObjAddr: 0x2A74, symBinAddr: 0x11AF8, symSize: 0xC4 }
  - { offset: 0x452AD, size: 0x8, addend: 0x0, symName: '__ZN4core3ptr57drop_in_place$LT$_oryon..targets..FutureCTCVolatility$GT$17h2c10a5392b1177f9E', symObjAddr: 0x2B38, symBinAddr: 0x11BBC, symSize: 0x60 }
  - { offset: 0x452DC, size: 0x8, addend: 0x0, symName: '__ZN4core3ptr58drop_in_place$LT$_oryon..features..ParkinsonVolatility$GT$17he3ac9af88f261cbeE', symObjAddr: 0x2B98, symBinAddr: 0x11C1C, symSize: 0x24 }
  - { offset: 0x4530B, size: 0x8, addend: 0x0, symName: '__ZN4core3ptr63drop_in_place$LT$_oryon..features..RogersSatchellVolatility$GT$17h143087b74ba1f46bE', symObjAddr: 0x2BE0, symBinAddr: 0x11C40, symSize: 0x24 }
  - { offset: 0x4533A, size: 0x8, addend: 0x0, symName: '__ZN4core3ptr63drop_in_place$LT$alloc..vec..into_iter..IntoIter$LT$f64$GT$$GT$17h95449bfec9651bb6E', symObjAddr: 0x2C04, symBinAddr: 0x11C64, symSize: 0x24 }
  - { offset: 0x45369, size: 0x8, addend: 0x0, symName: '__ZN4core3ptr64drop_in_place$LT$oryon..targets..future_return..FutureReturn$GT$17hd716aa6a1770dfa1E', symObjAddr: 0x2C28, symBinAddr: 0x11C88, symSize: 0x60 }
  - { offset: 0x45398, size: 0x8, addend: 0x0, symName: '__ZN4core3ptr68drop_in_place$LT$pyo3..instance..Py$LT$_oryon..features..Adf$GT$$GT$17h70570dd79ad8c938E', symObjAddr: 0x2C88, symBinAddr: 0x11CE8, symSize: 0x2C }
  - { offset: 0x453C7, size: 0x8, addend: 0x0, symName: '__ZN4core3ptr68drop_in_place$LT$pyo3..instance..Py$LT$_oryon..features..Ema$GT$$GT$17h7e17ec1b6d7be111E', symObjAddr: 0x2CB4, symBinAddr: 0x11D14, symSize: 0x2C }
  - { offset: 0x453F6, size: 0x8, addend: 0x0, symName: '__ZN4core3ptr68drop_in_place$LT$pyo3..instance..Py$LT$_oryon..features..Mma$GT$$GT$17h6fb26d00550e7d45E', symObjAddr: 0x2CE0, symBinAddr: 0x11D40, symSize: 0x2C }
  - { offset: 0x45425, size: 0x8, addend: 0x0, symName: '__ZN4core3ptr68drop_in_place$LT$pyo3..instance..Py$LT$_oryon..features..Sma$GT$$GT$17ha5a53a80a8530faaE', symObjAddr: 0x2D0C, symBinAddr: 0x11D6C, symSize: 0x2C }
  - { offset: 0x45454, size: 0x8, addend: 0x0, symName: '__ZN4core3ptr69drop_in_place$LT$alloc..borrow..Cow$LT$core..ffi..c_str..CStr$GT$$GT$17h35f0c963ea4c41e3E', symObjAddr: 0x2D38, symBinAddr: 0x11D98, symSize: 0x40 }
  - { offset: 0x45483, size: 0x8, addend: 0x0, symName: '__ZN4core3ptr69drop_in_place$LT$oryon..pipeline..target_pipeline..TargetPipeline$GT$17h9154b4180c120901E', symObjAddr: 0x2DD4, symBinAddr: 0x11DD8, symSize: 0xC0 }
  - { offset: 0x454B2, size: 0x8, addend: 0x0, symName: '__ZN4core3ptr69drop_in_place$LT$pyo3..instance..Py$LT$_oryon..features..Kama$GT$$GT$17hfbde48c4613d96d5E', symObjAddr: 0x2E94, symBinAddr: 0x11E98, symSize: 0x2C }
  - { offset: 0x454E1, size: 0x8, addend: 0x0, symName: '__ZN4core3ptr69drop_in_place$LT$pyo3..pycell..PyRef$LT$_oryon..features..Adf$GT$$GT$17he76553c576faf200E', symObjAddr: 0x2EC0, symBinAddr: 0x11EC4, symSize: 0x5C }
  - { offset: 0x45510, size: 0x8, addend: 0x0, symName: '__ZN4core3ptr69drop_in_place$LT$pyo3..pycell..PyRef$LT$_oryon..features..Ema$GT$$GT$17hc0941bb129a970dbE', symObjAddr: 0x2F1C, symBinAddr: 0x11F20, symSize: 0x5C }
  - { offset: 0x4553F, size: 0x8, addend: 0x0, symName: '__ZN4core3ptr69drop_in_place$LT$pyo3..pycell..PyRef$LT$_oryon..features..Mma$GT$$GT$17h854b3906c264e374E', symObjAddr: 0x2F78, symBinAddr: 0x11F7C, symSize: 0x5C }
  - { offset: 0x4556E, size: 0x8, addend: 0x0, symName: '__ZN4core3ptr69drop_in_place$LT$pyo3..pycell..PyRef$LT$_oryon..features..Sma$GT$$GT$17hd834de046a9a939bE', symObjAddr: 0x2FD4, symBinAddr: 0x11FD8, symSize: 0x5C }
  - { offset: 0x4559D, size: 0x8, addend: 0x0, symName: '__ZN4core3ptr70drop_in_place$LT$alloc..vec..Vec$LT$alloc..vec..Vec$LT$f64$GT$$GT$$GT$17h4c081f92952ac1acE', symObjAddr: 0x3030, symBinAddr: 0x12034, symSize: 0x5C }
  - { offset: 0x455CC, size: 0x8, addend: 0x0, symName: '__ZN4core3ptr70drop_in_place$LT$pyo3..pycell..PyRef$LT$_oryon..features..Kama$GT$$GT$17h09cdd2d143884c47E', symObjAddr: 0x308C, symBinAddr: 0x12090, symSize: 0x5C }
  - { offset: 0x455FB, size: 0x8, addend: 0x0, symName: '__ZN4core3ptr71drop_in_place$LT$oryon..pipeline..feature_pipeline..FeaturePipeline$GT$17h1f64b79c5b6f722dE', symObjAddr: 0x30E8, symBinAddr: 0x120EC, symSize: 0x90 }
  - { offset: 0x4562A, size: 0x8, addend: 0x0, symName: '__ZN4core3ptr71drop_in_place$LT$pyo3..instance..Bound$LT$_oryon..features..Adf$GT$$GT$17h412eea9f37705b7fE', symObjAddr: 0x3178, symBinAddr: 0x1217C, symSize: 0x24 }
  - { offset: 0x45659, size: 0x8, addend: 0x0, symName: '__ZN4core3ptr71drop_in_place$LT$pyo3..instance..Bound$LT$_oryon..features..Ema$GT$$GT$17h86365ce68231f244E', symObjAddr: 0x319C, symBinAddr: 0x121A0, symSize: 0x24 }
  - { offset: 0x45688, size: 0x8, addend: 0x0, symName: '__ZN4core3ptr71drop_in_place$LT$pyo3..instance..Bound$LT$_oryon..features..Mma$GT$$GT$17he2c9e8fb368739f5E', symObjAddr: 0x31C0, symBinAddr: 0x121C4, symSize: 0x24 }
  - { offset: 0x456B7, size: 0x8, addend: 0x0, symName: '__ZN4core3ptr71drop_in_place$LT$pyo3..instance..Bound$LT$_oryon..features..Sma$GT$$GT$17hde6dc5f1704f4af5E', symObjAddr: 0x31E4, symBinAddr: 0x121E8, symSize: 0x24 }
  - { offset: 0x456E6, size: 0x8, addend: 0x0, symName: '__ZN4core3ptr725drop_in_place$LT$core..iter..adapters..map..map_fold$LT$$RF$alloc..vec..Vec$LT$f64$GT$$C$alloc..vec..Vec$LT$core..option..Option$LT$f64$GT$$GT$$C$$LP$$RP$$C$_oryon..pipelines..TargetPipeline..run_research..$u7b$$u7b$closure$u7d$$u7d$$C$core..iter..traits..iterator..Iterator..for_each..call$LT$alloc..vec..Vec$LT$core..option..Option$LT$f64$GT$$GT$$C$alloc..vec..Vec$LT$alloc..vec..Vec$LT$core..option..Option$LT$f64$GT$$GT$$GT$..extend_trusted$LT$core..iter..adapters..map..Map$LT$core..slice..iter..Iter$LT$alloc..vec..Vec$LT$f64$GT$$GT$$C$_oryon..pipelines..TargetPipeline..run_research..$u7b$$u7b$closure$u7d$$u7d$$GT$$GT$..$u7b$$u7b$closure$u7d$$u7d$$GT$..$u7b$$u7b$closure$u7d$$u7d$$GT$..$u7b$$u7b$closure$u7d$$u7d$$GT$17ha3e867621d87970aE', symObjAddr: 0x3208, symBinAddr: 0x1220C, symSize: 0x24 }
  - { offset: 0x45715, size: 0x8, addend: 0x0, symName: '__ZN4core3ptr727drop_in_place$LT$core..iter..adapters..map..map_fold$LT$$RF$alloc..vec..Vec$LT$f64$GT$$C$alloc..vec..Vec$LT$core..option..Option$LT$f64$GT$$GT$$C$$LP$$RP$$C$_oryon..pipelines..FeaturePipeline..run_research..$u7b$$u7b$closure$u7d$$u7d$$C$core..iter..traits..iterator..Iterator..for_each..call$LT$alloc..vec..Vec$LT$core..option..Option$LT$f64$GT$$GT$$C$alloc..vec..Vec$LT$alloc..vec..Vec$LT$core..option..Option$LT$f64$GT$$GT$$GT$..extend_trusted$LT$core..iter..adapters..map..Map$LT$core..slice..iter..Iter$LT$alloc..vec..Vec$LT$f64$GT$$GT$$C$_oryon..pipelines..FeaturePipeline..run_research..$u7b$$u7b$closure$u7d$$u7d$$GT$$GT$..$u7b$$u7b$closure$u7d$$u7d$$GT$..$u7b$$u7b$closure$u7d$$u7d$$GT$..$u7b$$u7b$closure$u7d$$u7d$$GT$17h9274d1c2cc709d86E', symObjAddr: 0x322C, symBinAddr: 0x12230, symSize: 0x24 }
  - { offset: 0x45744, size: 0x8, addend: 0x0, symName: '__ZN4core3ptr72drop_in_place$LT$core..cell..UnsafeCell$LT$_oryon..features..Adf$GT$$GT$17hd8bcbdb29d3a9046E', symObjAddr: 0x3250, symBinAddr: 0x12254, symSize: 0x24 }
  - { offset: 0x45773, size: 0x8, addend: 0x0, symName: '__ZN4core3ptr72drop_in_place$LT$core..cell..UnsafeCell$LT$_oryon..features..Ema$GT$$GT$17h9deacc2d6c83a6adE', symObjAddr: 0x3274, symBinAddr: 0x12278, symSize: 0x24 }
  - { offset: 0x457A2, size: 0x8, addend: 0x0, symName: '__ZN4core3ptr72drop_in_place$LT$core..cell..UnsafeCell$LT$_oryon..features..Mma$GT$$GT$17he79bb32805178f98E', symObjAddr: 0x3298, symBinAddr: 0x1229C, symSize: 0x24 }
  - { offset: 0x457D1, size: 0x8, addend: 0x0, symName: '__ZN4core3ptr72drop_in_place$LT$core..cell..UnsafeCell$LT$_oryon..features..Sma$GT$$GT$17h9b95e362dbcba752E', symObjAddr: 0x32BC, symBinAddr: 0x122C0, symSize: 0x24 }
  - { offset: 0x45800, size: 0x8, addend: 0x0, symName: '__ZN4core3ptr72drop_in_place$LT$pyo3..instance..Bound$LT$_oryon..features..Kama$GT$$GT$17hadc46701b3a2493bE', symObjAddr: 0x32E0, symBinAddr: 0x122E4, symSize: 0x24 }
  - { offset: 0x4582F, size: 0x8, addend: 0x0, symName: '__ZN4core3ptr72drop_in_place$LT$pyo3..instance..Py$LT$_oryon..operators..NegLog$GT$$GT$17hd52dbcacbc955a29E', symObjAddr: 0x3304, symBinAddr: 0x12308, symSize: 0x2C }
  - { offset: 0x4585E, size: 0x8, addend: 0x0, symName: '__ZN4core3ptr72drop_in_place$LT$pyo3..pycell..PyRefMut$LT$_oryon..features..Adf$GT$$GT$17h6ce128114cbe1884E', symObjAddr: 0x3330, symBinAddr: 0x12334, symSize: 0x5C }
  - { offset: 0x4588D, size: 0x8, addend: 0x0, symName: '__ZN4core3ptr72drop_in_place$LT$pyo3..pycell..PyRefMut$LT$_oryon..features..Ema$GT$$GT$17h203ad00635e2f8cdE', symObjAddr: 0x338C, symBinAddr: 0x12390, symSize: 0x5C }
  - { offset: 0x458BC, size: 0x8, addend: 0x0, symName: '__ZN4core3ptr72drop_in_place$LT$pyo3..pycell..PyRefMut$LT$_oryon..features..Mma$GT$$GT$17h9870f3192d59f5daE', symObjAddr: 0x33E8, symBinAddr: 0x123EC, symSize: 0x5C }
  - { offset: 0x458EB, size: 0x8, addend: 0x0, symName: '__ZN4core3ptr72drop_in_place$LT$pyo3..pycell..PyRefMut$LT$_oryon..features..Sma$GT$$GT$17h4981e0391b178565E', symObjAddr: 0x3444, symBinAddr: 0x12448, symSize: 0x5C }
  - { offset: 0x4591A, size: 0x8, addend: 0x0, symName: '__ZN4core3ptr73drop_in_place$LT$core..cell..UnsafeCell$LT$_oryon..features..Kama$GT$$GT$17h8fe7ee2373367c00E', symObjAddr: 0x34A0, symBinAddr: 0x124A4, symSize: 0x24 }
  - { offset: 0x45949, size: 0x8, addend: 0x0, symName: '__ZN4core3ptr73drop_in_place$LT$core..result..Result$LT$usize$C$pyo3..err..PyErr$GT$$GT$17h815e6ae942233ccbE', symObjAddr: 0x34C4, symBinAddr: 0x124C8, symSize: 0x40 }
  - { offset: 0x45978, size: 0x8, addend: 0x0, symName: '__ZN4core3ptr73drop_in_place$LT$pyo3..instance..Py$LT$_oryon..features..Kurtosis$GT$$GT$17h78e9270976e82c45E', symObjAddr: 0x3504, symBinAddr: 0x12508, symSize: 0x2C }
  - { offset: 0x459A7, size: 0x8, addend: 0x0, symName: '__ZN4core3ptr73drop_in_place$LT$pyo3..instance..Py$LT$_oryon..features..Skewness$GT$$GT$17h2d247bbeb4009de4E', symObjAddr: 0x3530, symBinAddr: 0x12534, symSize: 0x2C }
  - { offset: 0x459D6, size: 0x8, addend: 0x0, symName: '__ZN4core3ptr73drop_in_place$LT$pyo3..pycell..PyRef$LT$_oryon..operators..NegLog$GT$$GT$17hf1f1efb0a54bc833E', symObjAddr: 0x355C, symBinAddr: 0x12560, symSize: 0x5C }
  - { offset: 0x45A05, size: 0x8, addend: 0x0, symName: '__ZN4core3ptr73drop_in_place$LT$pyo3..pycell..PyRefMut$LT$_oryon..features..Kama$GT$$GT$17h2aa9541591ebfd83E', symObjAddr: 0x35B8, symBinAddr: 0x125BC, symSize: 0x5C }
  - { offset: 0x45A34, size: 0x8, addend: 0x0, symName: '__ZN4core3ptr74drop_in_place$LT$pyo3..instance..Py$LT$_oryon..features..LogReturn$GT$$GT$17hf4cf5de27c705356E', symObjAddr: 0x3614, symBinAddr: 0x12618, symSize: 0x2C }
  - { offset: 0x45A63, size: 0x8, addend: 0x0, symName: '__ZN4core3ptr74drop_in_place$LT$pyo3..instance..Py$LT$_oryon..operators..Subtract$GT$$GT$17h30aee5c73d4a7bfaE', symObjAddr: 0x3640, symBinAddr: 0x12644, symSize: 0x2C }
  - { offset: 0x45A92, size: 0x8, addend: 0x0, symName: '__ZN4core3ptr74drop_in_place$LT$pyo3..pycell..PyRef$LT$_oryon..features..Kurtosis$GT$$GT$17h8e604f8b5de3b7cfE', symObjAddr: 0x366C, symBinAddr: 0x12670, symSize: 0x5C }
  - { offset: 0x45AC1, size: 0x8, addend: 0x0, symName: '__ZN4core3ptr74drop_in_place$LT$pyo3..pycell..PyRef$LT$_oryon..features..Skewness$GT$$GT$17h3c8974f21e8c7c3bE', symObjAddr: 0x36C8, symBinAddr: 0x126CC, symSize: 0x5C }
  - { offset: 0x45AF0, size: 0x8, addend: 0x0, symName: '__ZN4core3ptr754drop_in_place$LT$core..iter..adapters..map..map_fold$LT$$RF$alloc..vec..Vec$LT$core..option..Option$LT$f64$GT$$GT$$C$$RF$$u5b$core..option..Option$LT$f64$GT$$u5d$$C$$LP$$RP$$C$_oryon..pipelines..TargetPipeline..run_research..$u7b$$u7b$closure$u7d$$u7d$$C$core..iter..traits..iterator..Iterator..for_each..call$LT$$RF$$u5b$core..option..Option$LT$f64$GT$$u5d$$C$alloc..vec..Vec$LT$$RF$$u5b$core..option..Option$LT$f64$GT$$u5d$$GT$..extend_trusted$LT$core..iter..adapters..map..Map$LT$core..slice..iter..Iter$LT$alloc..vec..Vec$LT$core..option..Option$LT$f64$GT$$GT$$GT$$C$_oryon..pipelines..TargetPipeline..run_research..$u7b$$u7b$closure$u7d$$u7d$$GT$$GT$..$u7b$$u7b$closure$u7d$$u7d$$GT$..$u7b$$u7b$closure$u7d$$u7d$$GT$..$u7b$$u7b$closure$u7d$$u7d$$GT$17h3f2c034a199b75baE', symObjAddr: 0x3724, symBinAddr: 0x12728, symSize: 0x24 }
  - { offset: 0x45B1F, size: 0x8, addend: 0x0, symName: '__ZN4core3ptr755drop_in_place$LT$core..iter..adapters..map..map_fold$LT$$RF$alloc..vec..Vec$LT$core..option..Option$LT$f64$GT$$GT$$C$alloc..vec..Vec$LT$f64$GT$$C$$LP$$RP$$C$_oryon..pipelines..TargetPipeline..run_research..$u7b$$u7b$closure$u7d$$u7d$..$u7b$$u7b$closure$u7d$$u7d$$C$core..iter..traits..iterator..Iterator..for_each..call$LT$alloc..vec..Vec$LT$f64$GT$$C$alloc..vec..Vec$LT$alloc..vec..Vec$LT$f64$GT$$GT$..extend_trusted$LT$core..iter..adapters..map..Map$LT$core..slice..iter..Iter$LT$alloc..vec..Vec$LT$core..option..Option$LT$f64$GT$$GT$$GT$$C$_oryon..pipelines..TargetPipeline..run_research..$u7b$$u7b$closure$u7d$$u7d$..$u7b$$u7b$closure$u7d$$u7d$$GT$$GT$..$u7b$$u7b$closure$u7d$$u7d$$GT$..$u7b$$u7b$closure$u7d$$u7d$$GT$..$u7b$$u7b$closure$u7d$$u7d$$GT$17hbc71050fccd31f88E', symObjAddr: 0x3748, symBinAddr: 0x1274C, symSize: 0x24 }
  - { offset: 0x45B4E, size: 0x8, addend: 0x0, symName: '__ZN4core3ptr757drop_in_place$LT$core..iter..adapters..map..map_fold$LT$$RF$alloc..vec..Vec$LT$core..option..Option$LT$f64$GT$$GT$$C$alloc..vec..Vec$LT$f64$GT$$C$$LP$$RP$$C$_oryon..pipelines..FeaturePipeline..run_research..$u7b$$u7b$closure$u7d$$u7d$..$u7b$$u7b$closure$u7d$$u7d$$C$core..iter..traits..iterator..Iterator..for_each..call$LT$alloc..vec..Vec$LT$f64$GT$$C$alloc..vec..Vec$LT$alloc..vec..Vec$LT$f64$GT$$GT$..extend_trusted$LT$core..iter..adapters..map..Map$LT$core..slice..iter..Iter$LT$alloc..vec..Vec$LT$core..option..Option$LT$f64$GT$$GT$$GT$$C$_oryon..pipelines..FeaturePipeline..run_research..$u7b$$u7b$closure$u7d$$u7d$..$u7b$$u7b$closure$u7d$$u7d$$GT$$GT$..$u7b$$u7b$closure$u7d$$u7d$$GT$..$u7b$$u7b$closure$u7d$$u7d$$GT$..$u7b$$u7b$closure$u7d$$u7d$$GT$17h613657bd638c4fdaE', symObjAddr: 0x376C, symBinAddr: 0x12770, symSize: 0x24 }
  - { offset: 0x45B7D, size: 0x8, addend: 0x0, symName: '__ZN4core3ptr75drop_in_place$LT$oryon..targets..future_linear_slope..FutureLinearSlope$GT$17h4a32b06b83867736E', symObjAddr: 0x3790, symBinAddr: 0x12794, symSize: 0x60 }
  - { offset: 0x45BAC, size: 0x8, addend: 0x0, symName: '__ZN4core3ptr75drop_in_place$LT$pyo3..instance..Bound$LT$_oryon..operators..NegLog$GT$$GT$17h54cbd10685f77947E', symObjAddr: 0x37F0, symBinAddr: 0x127F4, symSize: 0x24 }
  - { offset: 0x45BDB, size: 0x8, addend: 0x0, symName: '__ZN4core3ptr75drop_in_place$LT$pyo3..instance..Py$LT$_oryon..scalers..FixedZScore$GT$$GT$17h9bf54ef007f6a323E', symObjAddr: 0x3814, symBinAddr: 0x12818, symSize: 0x2C }
  - { offset: 0x45C0A, size: 0x8, addend: 0x0, symName: '__ZN4core3ptr75drop_in_place$LT$pyo3..pycell..PyRef$LT$_oryon..features..LogReturn$GT$$GT$17hc5c590d7179ddafbE', symObjAddr: 0x3840, symBinAddr: 0x12844, symSize: 0x5C }
  - { offset: 0x45C39, size: 0x8, addend: 0x0, symName: '__ZN4core3ptr75drop_in_place$LT$pyo3..pycell..PyRef$LT$_oryon..operators..Subtract$GT$$GT$17hcb0a90a22bc52b91E', symObjAddr: 0x389C, symBinAddr: 0x128A0, symSize: 0x5C }
  - { offset: 0x45C68, size: 0x8, addend: 0x0, symName: '__ZN4core3ptr76drop_in_place$LT$core..cell..UnsafeCell$LT$_oryon..operators..NegLog$GT$$GT$17h4b2cae4e542a9f3dE', symObjAddr: 0x391C, symBinAddr: 0x128FC, symSize: 0x24 }
  - { offset: 0x45C97, size: 0x8, addend: 0x0, symName: '__ZN4core3ptr76drop_in_place$LT$pyo3..instance..Bound$LT$_oryon..features..Kurtosis$GT$$GT$17h8fefcb69ea750ad0E', symObjAddr: 0x3940, symBinAddr: 0x12920, symSize: 0x24 }
  - { offset: 0x45CC6, size: 0x8, addend: 0x0, symName: '__ZN4core3ptr76drop_in_place$LT$pyo3..instance..Bound$LT$_oryon..features..Skewness$GT$$GT$17hb70c0ebb01c654d8E', symObjAddr: 0x3964, symBinAddr: 0x12944, symSize: 0x24 }
  - { offset: 0x45CF5, size: 0x8, addend: 0x0, symName: '__ZN4core3ptr76drop_in_place$LT$pyo3..instance..Py$LT$_oryon..features..LinearSlope$GT$$GT$17hb1ce7dc3fbe66aa7E', symObjAddr: 0x3988, symBinAddr: 0x12968, symSize: 0x2C }
  - { offset: 0x45D24, size: 0x8, addend: 0x0, symName: '__ZN4core3ptr76drop_in_place$LT$pyo3..instance..Py$LT$_oryon..targets..FutureReturn$GT$$GT$17h2605b2afddc0e9adE', symObjAddr: 0x39B4, symBinAddr: 0x12994, symSize: 0x2C }
  - { offset: 0x45D53, size: 0x8, addend: 0x0, symName: '__ZN4core3ptr76drop_in_place$LT$pyo3..pycell..PyRef$LT$_oryon..scalers..FixedZScore$GT$$GT$17hb280dabfdcec6ab2E', symObjAddr: 0x39E0, symBinAddr: 0x129C0, symSize: 0x5C }
  - { offset: 0x45D82, size: 0x8, addend: 0x0, symName: '__ZN4core3ptr76drop_in_place$LT$pyo3..pycell..PyRefMut$LT$_oryon..operators..NegLog$GT$$GT$17h3c417d3e981c6312E', symObjAddr: 0x3A3C, symBinAddr: 0x12A1C, symSize: 0x5C }
  - { offset: 0x45DB1, size: 0x8, addend: 0x0, symName: '__ZN4core3ptr77drop_in_place$LT$alloc..raw_vec..RawVec$LT$alloc..vec..Vec$LT$f64$GT$$GT$$GT$17h019819e3e7f7244cE', symObjAddr: 0x3A98, symBinAddr: 0x12A78, symSize: 0x24 }
  - { offset: 0x45DE0, size: 0x8, addend: 0x0, symName: '__ZN4core3ptr77drop_in_place$LT$core..cell..UnsafeCell$LT$_oryon..features..Kurtosis$GT$$GT$17h0964c14c56df0d4cE', symObjAddr: 0x3ABC, symBinAddr: 0x12A9C, symSize: 0x24 }
  - { offset: 0x45E0F, size: 0x8, addend: 0x0, symName: '__ZN4core3ptr77drop_in_place$LT$core..cell..UnsafeCell$LT$_oryon..features..Skewness$GT$$GT$17h8950211d9eee7990E', symObjAddr: 0x3AE0, symBinAddr: 0x12AC0, symSize: 0x24 }
  - { offset: 0x45E3E, size: 0x8, addend: 0x0, symName: '__ZN4core3ptr77drop_in_place$LT$pyo3..instance..Bound$LT$_oryon..features..LogReturn$GT$$GT$17h3b403acffc690f59E', symObjAddr: 0x3B04, symBinAddr: 0x12AE4, symSize: 0x24 }
  - { offset: 0x45E6D, size: 0x8, addend: 0x0, symName: '__ZN4core3ptr77drop_in_place$LT$pyo3..instance..Bound$LT$_oryon..operators..Subtract$GT$$GT$17h1cf9d07ac767c64cE', symObjAddr: 0x3B28, symBinAddr: 0x12B08, symSize: 0x24 }
  - { offset: 0x45E9C, size: 0x8, addend: 0x0, symName: '__ZN4core3ptr77drop_in_place$LT$pyo3..instance..Py$LT$_oryon..features..SimpleReturn$GT$$GT$17h4e4a72481103e806E', symObjAddr: 0x3B4C, symBinAddr: 0x12B2C, symSize: 0x2C }
  - { offset: 0x45ECB, size: 0x8, addend: 0x0, symName: '__ZN4core3ptr77drop_in_place$LT$pyo3..instance..Py$LT$_oryon..scalers..RollingZScore$GT$$GT$17h24b9aa8904551d17E', symObjAddr: 0x3B78, symBinAddr: 0x12B58, symSize: 0x2C }
  - { offset: 0x45EFA, size: 0x8, addend: 0x0, symName: '__ZN4core3ptr77drop_in_place$LT$pyo3..pycell..PyRef$LT$_oryon..features..LinearSlope$GT$$GT$17h7e41bbc1ff1373cfE', symObjAddr: 0x3BA4, symBinAddr: 0x12B84, symSize: 0x5C }
  - { offset: 0x45F29, size: 0x8, addend: 0x0, symName: '__ZN4core3ptr77drop_in_place$LT$pyo3..pycell..PyRef$LT$_oryon..targets..FutureReturn$GT$$GT$17hfe539b4274aec774E', symObjAddr: 0x3C00, symBinAddr: 0x12BE0, symSize: 0x5C }
  - { offset: 0x45F58, size: 0x8, addend: 0x0, symName: '__ZN4core3ptr77drop_in_place$LT$pyo3..pycell..PyRefMut$LT$_oryon..features..Kurtosis$GT$$GT$17hb3792f1c4009a714E', symObjAddr: 0x3C5C, symBinAddr: 0x12C3C, symSize: 0x5C }
  - { offset: 0x45F87, size: 0x8, addend: 0x0, symName: '__ZN4core3ptr77drop_in_place$LT$pyo3..pycell..PyRefMut$LT$_oryon..features..Skewness$GT$$GT$17h0e9de29ca77edc42E', symObjAddr: 0x3CB8, symBinAddr: 0x12C98, symSize: 0x5C }
  - { offset: 0x45FB6, size: 0x8, addend: 0x0, symName: '__ZN4core3ptr78drop_in_place$LT$core..cell..UnsafeCell$LT$_oryon..features..LogReturn$GT$$GT$17hdca66e9ee94fa205E', symObjAddr: 0x3D14, symBinAddr: 0x12CF4, symSize: 0x24 }
  - { offset: 0x45FE5, size: 0x8, addend: 0x0, symName: '__ZN4core3ptr78drop_in_place$LT$core..cell..UnsafeCell$LT$_oryon..operators..Subtract$GT$$GT$17h9a08014605a19df2E', symObjAddr: 0x3D38, symBinAddr: 0x12D18, symSize: 0x24 }
  - { offset: 0x46014, size: 0x8, addend: 0x0, symName: '__ZN4core3ptr78drop_in_place$LT$pyo3..instance..Bound$LT$_oryon..scalers..FixedZScore$GT$$GT$17h43f13e09c08fcfa4E', symObjAddr: 0x3D5C, symBinAddr: 0x12D3C, symSize: 0x24 }
  - { offset: 0x46043, size: 0x8, addend: 0x0, symName: '__ZN4core3ptr78drop_in_place$LT$pyo3..pycell..PyRef$LT$_oryon..features..SimpleReturn$GT$$GT$17h16d5cd399e9ed8cfE', symObjAddr: 0x3D80, symBinAddr: 0x12D60, symSize: 0x5C }
  - { offset: 0x46072, size: 0x8, addend: 0x0, symName: '__ZN4core3ptr78drop_in_place$LT$pyo3..pycell..PyRef$LT$_oryon..scalers..RollingZScore$GT$$GT$17hdb7ec17ea657dd55E', symObjAddr: 0x3DDC, symBinAddr: 0x12DBC, symSize: 0x5C }
  - { offset: 0x460A1, size: 0x8, addend: 0x0, symName: '__ZN4core3ptr78drop_in_place$LT$pyo3..pycell..PyRefMut$LT$_oryon..features..LogReturn$GT$$GT$17h2101495e9d6ca528E', symObjAddr: 0x3E38, symBinAddr: 0x12E18, symSize: 0x5C }
  - { offset: 0x460D0, size: 0x8, addend: 0x0, symName: '__ZN4core3ptr78drop_in_place$LT$pyo3..pycell..PyRefMut$LT$_oryon..operators..Subtract$GT$$GT$17h384fd7a630c13d35E', symObjAddr: 0x3E94, symBinAddr: 0x12E74, symSize: 0x5C }
  - { offset: 0x460FF, size: 0x8, addend: 0x0, symName: '__ZN4core3ptr79drop_in_place$LT$core..cell..UnsafeCell$LT$_oryon..scalers..FixedZScore$GT$$GT$17hb61d952744f69c08E', symObjAddr: 0x3EF0, symBinAddr: 0x12ED0, symSize: 0x24 }
  - { offset: 0x4612E, size: 0x8, addend: 0x0, symName: '__ZN4core3ptr79drop_in_place$LT$oryon..targets..future_ctc_volatility..FutureCTCVolatility$GT$17h419f2d7ce4e82e0cE', symObjAddr: 0x3F14, symBinAddr: 0x12EF4, symSize: 0x60 }
  - { offset: 0x4615D, size: 0x8, addend: 0x0, symName: '__ZN4core3ptr79drop_in_place$LT$pyo3..instance..Bound$LT$_oryon..features..LinearSlope$GT$$GT$17h502c82b694f57338E', symObjAddr: 0x3F74, symBinAddr: 0x12F54, symSize: 0x24 }
  - { offset: 0x4618C, size: 0x8, addend: 0x0, symName: '__ZN4core3ptr79drop_in_place$LT$pyo3..instance..Bound$LT$_oryon..targets..FutureReturn$GT$$GT$17h50885b1ddf1fc6b4E', symObjAddr: 0x3F98, symBinAddr: 0x12F78, symSize: 0x24 }
  - { offset: 0x461BB, size: 0x8, addend: 0x0, symName: '__ZN4core3ptr79drop_in_place$LT$pyo3..pycell..PyRefMut$LT$_oryon..scalers..FixedZScore$GT$$GT$17h4667ffb600200d58E', symObjAddr: 0x3FBC, symBinAddr: 0x12F9C, symSize: 0x5C }
  - { offset: 0x461EA, size: 0x8, addend: 0x0, symName: '__ZN4core3ptr80drop_in_place$LT$core..cell..UnsafeCell$LT$_oryon..features..LinearSlope$GT$$GT$17h94ee5ffb1b2e7a18E', symObjAddr: 0x4018, symBinAddr: 0x12FF8, symSize: 0x24 }
  - { offset: 0x46219, size: 0x8, addend: 0x0, symName: '__ZN4core3ptr80drop_in_place$LT$core..cell..UnsafeCell$LT$_oryon..targets..FutureReturn$GT$$GT$17hb56ed8c12d472200E', symObjAddr: 0x403C, symBinAddr: 0x1301C, symSize: 0x24 }
  - { offset: 0x46248, size: 0x8, addend: 0x0, symName: '__ZN4core3ptr80drop_in_place$LT$pyo3..instance..Bound$LT$_oryon..features..SimpleReturn$GT$$GT$17ha67b0f92a5c7ca60E', symObjAddr: 0x40F0, symBinAddr: 0x13040, symSize: 0x24 }
  - { offset: 0x46277, size: 0x8, addend: 0x0, symName: '__ZN4core3ptr80drop_in_place$LT$pyo3..instance..Bound$LT$_oryon..scalers..RollingZScore$GT$$GT$17h68947f81dec5b187E', symObjAddr: 0x4114, symBinAddr: 0x13064, symSize: 0x24 }
  - { offset: 0x462A6, size: 0x8, addend: 0x0, symName: '__ZN4core3ptr80drop_in_place$LT$pyo3..instance..Py$LT$_oryon..pipelines..TargetPipeline$GT$$GT$17h898221d6533232bbE', symObjAddr: 0x4138, symBinAddr: 0x13088, symSize: 0x2C }
  - { offset: 0x462D5, size: 0x8, addend: 0x0, symName: '__ZN4core3ptr80drop_in_place$LT$pyo3..pycell..PyRefMut$LT$_oryon..features..LinearSlope$GT$$GT$17h9b51d7b30bd39973E', symObjAddr: 0x4164, symBinAddr: 0x130B4, symSize: 0x5C }
  - { offset: 0x46304, size: 0x8, addend: 0x0, symName: '__ZN4core3ptr81drop_in_place$LT$core..cell..UnsafeCell$LT$_oryon..features..SimpleReturn$GT$$GT$17h7f036bf179ff25d3E', symObjAddr: 0x41C0, symBinAddr: 0x13110, symSize: 0x24 }
  - { offset: 0x46333, size: 0x8, addend: 0x0, symName: '__ZN4core3ptr81drop_in_place$LT$core..cell..UnsafeCell$LT$_oryon..scalers..RollingZScore$GT$$GT$17h7a6638d0734c5d49E', symObjAddr: 0x41E4, symBinAddr: 0x13134, symSize: 0x24 }
  - { offset: 0x46362, size: 0x8, addend: 0x0, symName: '__ZN4core3ptr81drop_in_place$LT$pyo3..instance..Py$LT$_oryon..pipelines..FeaturePipeline$GT$$GT$17h4de52ae033e38f0aE', symObjAddr: 0x4208, symBinAddr: 0x13158, symSize: 0x2C }
  - { offset: 0x46391, size: 0x8, addend: 0x0, symName: '__ZN4core3ptr81drop_in_place$LT$pyo3..instance..Py$LT$_oryon..targets..FutureLinearSlope$GT$$GT$17h95d53ce1559d1985E', symObjAddr: 0x4234, symBinAddr: 0x13184, symSize: 0x2C }
  - { offset: 0x463C0, size: 0x8, addend: 0x0, symName: '__ZN4core3ptr81drop_in_place$LT$pyo3..pycell..PyRef$LT$_oryon..pipelines..TargetPipeline$GT$$GT$17h8a2507028000d3c1E', symObjAddr: 0x4260, symBinAddr: 0x131B0, symSize: 0x5C }
  - { offset: 0x463EF, size: 0x8, addend: 0x0, symName: '__ZN4core3ptr81drop_in_place$LT$pyo3..pycell..PyRefMut$LT$_oryon..features..SimpleReturn$GT$$GT$17h9cddcc62ced5fb93E', symObjAddr: 0x42BC, symBinAddr: 0x1320C, symSize: 0x5C }
  - { offset: 0x4641E, size: 0x8, addend: 0x0, symName: '__ZN4core3ptr81drop_in_place$LT$pyo3..pycell..PyRefMut$LT$_oryon..scalers..RollingZScore$GT$$GT$17hb17f9b39a59c85a1E', symObjAddr: 0x4318, symBinAddr: 0x13268, symSize: 0x5C }
  - { offset: 0x4644D, size: 0x8, addend: 0x0, symName: '__ZN4core3ptr82drop_in_place$LT$pyo3..pycell..PyRef$LT$_oryon..pipelines..FeaturePipeline$GT$$GT$17hcd88489779c518a1E', symObjAddr: 0x4374, symBinAddr: 0x132C4, symSize: 0x5C }
  - { offset: 0x4647C, size: 0x8, addend: 0x0, symName: '__ZN4core3ptr82drop_in_place$LT$pyo3..pycell..PyRef$LT$_oryon..targets..FutureLinearSlope$GT$$GT$17hdf3ddf1827021d4aE', symObjAddr: 0x43D0, symBinAddr: 0x13320, symSize: 0x5C }
  - { offset: 0x464AB, size: 0x8, addend: 0x0, symName: '__ZN4core3ptr83drop_in_place$LT$pyo3..instance..Bound$LT$_oryon..pipelines..TargetPipeline$GT$$GT$17hd1c944ec650b78c0E', symObjAddr: 0x442C, symBinAddr: 0x1337C, symSize: 0x24 }
  - { offset: 0x464DA, size: 0x8, addend: 0x0, symName: '__ZN4core3ptr83drop_in_place$LT$pyo3..instance..Py$LT$_oryon..targets..FutureCTCVolatility$GT$$GT$17he78b93533a75e279E', symObjAddr: 0x4450, symBinAddr: 0x133A0, symSize: 0x2C }
  - { offset: 0x46509, size: 0x8, addend: 0x0, symName: '__ZN4core3ptr84drop_in_place$LT$core..cell..UnsafeCell$LT$_oryon..pipelines..TargetPipeline$GT$$GT$17h805cb0c36d25e980E', symObjAddr: 0x447C, symBinAddr: 0x133CC, symSize: 0x24 }
  - { offset: 0x46538, size: 0x8, addend: 0x0, symName: '__ZN4core3ptr84drop_in_place$LT$pyo3..instance..Bound$LT$_oryon..pipelines..FeaturePipeline$GT$$GT$17ha3b6c6d73d4efd85E', symObjAddr: 0x44A0, symBinAddr: 0x133F0, symSize: 0x24 }
  - { offset: 0x46567, size: 0x8, addend: 0x0, symName: '__ZN4core3ptr84drop_in_place$LT$pyo3..instance..Bound$LT$_oryon..targets..FutureLinearSlope$GT$$GT$17haa0a46b19e9a0678E', symObjAddr: 0x44C4, symBinAddr: 0x13414, symSize: 0x24 }
  - { offset: 0x46596, size: 0x8, addend: 0x0, symName: '__ZN4core3ptr84drop_in_place$LT$pyo3..instance..Py$LT$_oryon..features..ParkinsonVolatility$GT$$GT$17h097a3359ef1ce432E', symObjAddr: 0x44E8, symBinAddr: 0x13438, symSize: 0x2C }
  - { offset: 0x465C5, size: 0x8, addend: 0x0, symName: '__ZN4core3ptr84drop_in_place$LT$pyo3..pycell..PyRef$LT$_oryon..targets..FutureCTCVolatility$GT$$GT$17hefbb1a2d7d0aaad5E', symObjAddr: 0x4514, symBinAddr: 0x13464, symSize: 0x5C }
  - { offset: 0x465F4, size: 0x8, addend: 0x0, symName: '__ZN4core3ptr85drop_in_place$LT$core..cell..UnsafeCell$LT$_oryon..pipelines..FeaturePipeline$GT$$GT$17hf5c691153027f3bdE', symObjAddr: 0x4570, symBinAddr: 0x134C0, symSize: 0x24 }
  - { offset: 0x46623, size: 0x8, addend: 0x0, symName: '__ZN4core3ptr85drop_in_place$LT$core..cell..UnsafeCell$LT$_oryon..targets..FutureLinearSlope$GT$$GT$17hab6a9bd805668dffE', symObjAddr: 0x4594, symBinAddr: 0x134E4, symSize: 0x24 }
  - { offset: 0x46652, size: 0x8, addend: 0x0, symName: '__ZN4core3ptr85drop_in_place$LT$core..result..Result$LT$$LP$f64$C$f64$RP$$C$pyo3..err..PyErr$GT$$GT$17h97052be7224f4badE', symObjAddr: 0x45B8, symBinAddr: 0x13508, symSize: 0x40 }
  - { offset: 0x46681, size: 0x8, addend: 0x0, symName: '__ZN4core3ptr85drop_in_place$LT$pyo3..pycell..PyRef$LT$_oryon..features..ParkinsonVolatility$GT$$GT$17hd6494fd3bc2e2991E', symObjAddr: 0x45F8, symBinAddr: 0x13548, symSize: 0x5C }
  - { offset: 0x466B0, size: 0x8, addend: 0x0, symName: '__ZN4core3ptr85drop_in_place$LT$pyo3..pycell..PyRefMut$LT$_oryon..pipelines..FeaturePipeline$GT$$GT$17h7d4c11e4ca61b5d8E', symObjAddr: 0x4654, symBinAddr: 0x135A4, symSize: 0x5C }
  - { offset: 0x466DF, size: 0x8, addend: 0x0, symName: '__ZN4core3ptr86drop_in_place$LT$alloc..vec..into_iter..IntoIter$LT$alloc..vec..Vec$LT$f64$GT$$GT$$GT$17he5f0352737c3928dE', symObjAddr: 0x46B0, symBinAddr: 0x13600, symSize: 0x24 }
  - { offset: 0x4670E, size: 0x8, addend: 0x0, symName: '__ZN4core3ptr86drop_in_place$LT$pyo3..instance..Bound$LT$_oryon..targets..FutureCTCVolatility$GT$$GT$17h6abff038c969af82E', symObjAddr: 0x46D4, symBinAddr: 0x13624, symSize: 0x24 }
  - { offset: 0x4673D, size: 0x8, addend: 0x0, symName: '__ZN4core3ptr87drop_in_place$LT$core..cell..UnsafeCell$LT$_oryon..targets..FutureCTCVolatility$GT$$GT$17hc0505ae31e8783bbE', symObjAddr: 0x46F8, symBinAddr: 0x13648, symSize: 0x24 }
  - { offset: 0x4676C, size: 0x8, addend: 0x0, symName: '__ZN4core3ptr87drop_in_place$LT$pyo3..instance..Bound$LT$_oryon..features..ParkinsonVolatility$GT$$GT$17h29c0e95f5e6cbd2eE', symObjAddr: 0x471C, symBinAddr: 0x1366C, symSize: 0x24 }
  - { offset: 0x4679B, size: 0x8, addend: 0x0, symName: '__ZN4core3ptr88drop_in_place$LT$core..cell..UnsafeCell$LT$_oryon..features..ParkinsonVolatility$GT$$GT$17ha91f89049957f143E', symObjAddr: 0x4740, symBinAddr: 0x13690, symSize: 0x24 }
  - { offset: 0x467CA, size: 0x8, addend: 0x0, symName: '__ZN4core3ptr88drop_in_place$LT$pyo3..pycell..PyRefMut$LT$_oryon..features..ParkinsonVolatility$GT$$GT$17hf63777f38b22d6caE', symObjAddr: 0x4764, symBinAddr: 0x136B4, symSize: 0x5C }
  - { offset: 0x467F9, size: 0x8, addend: 0x0, symName: '__ZN4core3ptr88drop_in_place$LT$pyo3..pyclass_init..PyClassInitializer$LT$_oryon..features..Adf$GT$$GT$17h480ec15db715bfe1E', symObjAddr: 0x47C0, symBinAddr: 0x13710, symSize: 0x24 }
  - { offset: 0x46828, size: 0x8, addend: 0x0, symName: '__ZN4core3ptr88drop_in_place$LT$pyo3..pyclass_init..PyClassInitializer$LT$_oryon..features..Ema$GT$$GT$17hfb74a3c7fabb147eE', symObjAddr: 0x47E4, symBinAddr: 0x13734, symSize: 0x24 }
  - { offset: 0x46857, size: 0x8, addend: 0x0, symName: '__ZN4core3ptr88drop_in_place$LT$pyo3..pyclass_init..PyClassInitializer$LT$_oryon..features..Mma$GT$$GT$17hbd7ec55d00b0cf9aE', symObjAddr: 0x4808, symBinAddr: 0x13758, symSize: 0x24 }
  - { offset: 0x46886, size: 0x8, addend: 0x0, symName: '__ZN4core3ptr88drop_in_place$LT$pyo3..pyclass_init..PyClassInitializer$LT$_oryon..features..Sma$GT$$GT$17h4b3be907bde57bebE', symObjAddr: 0x482C, symBinAddr: 0x1377C, symSize: 0x24 }
  - { offset: 0x468B5, size: 0x8, addend: 0x0, symName: '__ZN4core3ptr89drop_in_place$LT$core..result..Result$LT$_oryon..features..Adf$C$pyo3..err..PyErr$GT$$GT$17ha4c08b17c9894416E', symObjAddr: 0x4850, symBinAddr: 0x137A0, symSize: 0x5C }
  - { offset: 0x468E4, size: 0x8, addend: 0x0, symName: '__ZN4core3ptr89drop_in_place$LT$core..result..Result$LT$_oryon..features..Ema$C$pyo3..err..PyErr$GT$$GT$17hd885637a0ee80cceE', symObjAddr: 0x48AC, symBinAddr: 0x137FC, symSize: 0x58 }
  - { offset: 0x46913, size: 0x8, addend: 0x0, symName: '__ZN4core3ptr89drop_in_place$LT$core..result..Result$LT$_oryon..features..Mma$C$pyo3..err..PyErr$GT$$GT$17h4e611eab8adb340eE', symObjAddr: 0x4904, symBinAddr: 0x13854, symSize: 0x5C }
  - { offset: 0x46942, size: 0x8, addend: 0x0, symName: '__ZN4core3ptr89drop_in_place$LT$core..result..Result$LT$_oryon..features..Sma$C$pyo3..err..PyErr$GT$$GT$17h80c3371531b021a8E', symObjAddr: 0x4960, symBinAddr: 0x138B0, symSize: 0x5C }
  - { offset: 0x46971, size: 0x8, addend: 0x0, symName: '__ZN4core3ptr89drop_in_place$LT$pyo3..instance..Py$LT$_oryon..features..RogersSatchellVolatility$GT$$GT$17h51f6cb003fbce07fE', symObjAddr: 0x49BC, symBinAddr: 0x1390C, symSize: 0x2C }
  - { offset: 0x469A0, size: 0x8, addend: 0x0, symName: '__ZN4core3ptr89drop_in_place$LT$pyo3..pyclass_init..PyClassInitializer$LT$_oryon..features..Kama$GT$$GT$17hce66f9bcb48fa245E', symObjAddr: 0x49E8, symBinAddr: 0x13938, symSize: 0x24 }
  - { offset: 0x469CF, size: 0x8, addend: 0x0, symName: '__ZN4core3ptr90drop_in_place$LT$core..result..Result$LT$_oryon..features..Kama$C$pyo3..err..PyErr$GT$$GT$17h95138a6e1b42ed1eE', symObjAddr: 0x4A0C, symBinAddr: 0x1395C, symSize: 0x58 }
  - { offset: 0x469FE, size: 0x8, addend: 0x0, symName: '__ZN4core3ptr90drop_in_place$LT$pyo3..pycell..PyRef$LT$_oryon..features..RogersSatchellVolatility$GT$$GT$17ha2e39096a201cac6E', symObjAddr: 0x4A64, symBinAddr: 0x139B4, symSize: 0x5C }
  - { offset: 0x46A2D, size: 0x8, addend: 0x0, symName: '__ZN4core3ptr92drop_in_place$LT$pyo3..instance..Bound$LT$_oryon..features..RogersSatchellVolatility$GT$$GT$17h8256834c3e13b130E', symObjAddr: 0x4AC0, symBinAddr: 0x13A10, symSize: 0x24 }
  - { offset: 0x46A5C, size: 0x8, addend: 0x0, symName: '__ZN4core3ptr92drop_in_place$LT$pyo3..pyclass_init..PyClassInitializer$LT$_oryon..operators..NegLog$GT$$GT$17h136ba89a1b9c9593E', symObjAddr: 0x4AE4, symBinAddr: 0x13A34, symSize: 0x24 }
  - { offset: 0x46A8B, size: 0x8, addend: 0x0, symName: '__ZN4core3ptr92drop_in_place$LT$pyo3..pyclass_init..PyClassInitializerImpl$LT$_oryon..features..Adf$GT$$GT$17h5077ec658694182aE', symObjAddr: 0x4B08, symBinAddr: 0x13A58, symSize: 0x58 }
  - { offset: 0x46ABA, size: 0x8, addend: 0x0, symName: '__ZN4core3ptr92drop_in_place$LT$pyo3..pyclass_init..PyClassInitializerImpl$LT$_oryon..features..Ema$GT$$GT$17h72ca0d006852b83cE', symObjAddr: 0x4B60, symBinAddr: 0x13AB0, symSize: 0x54 }
  - { offset: 0x46AE9, size: 0x8, addend: 0x0, symName: '__ZN4core3ptr92drop_in_place$LT$pyo3..pyclass_init..PyClassInitializerImpl$LT$_oryon..features..Mma$GT$$GT$17h5f642fef12d37368E', symObjAddr: 0x4BB4, symBinAddr: 0x13B04, symSize: 0x58 }
  - { offset: 0x46B18, size: 0x8, addend: 0x0, symName: '__ZN4core3ptr92drop_in_place$LT$pyo3..pyclass_init..PyClassInitializerImpl$LT$_oryon..features..Sma$GT$$GT$17h29d0f2f62d3761d4E', symObjAddr: 0x4C0C, symBinAddr: 0x13B5C, symSize: 0x58 }
  - { offset: 0x46B47, size: 0x8, addend: 0x0, symName: '__ZN4core3ptr93drop_in_place$LT$core..cell..UnsafeCell$LT$_oryon..features..RogersSatchellVolatility$GT$$GT$17h4e520e5008137eb5E', symObjAddr: 0x4C64, symBinAddr: 0x13BB4, symSize: 0x24 }
  - { offset: 0x46B76, size: 0x8, addend: 0x0, symName: '__ZN4core3ptr93drop_in_place$LT$core..result..Result$LT$_oryon..operators..NegLog$C$pyo3..err..PyErr$GT$$GT$17ha456684996db129eE', symObjAddr: 0x4C88, symBinAddr: 0x13BD8, symSize: 0x50 }
  - { offset: 0x46BA5, size: 0x8, addend: 0x0, symName: '__ZN4core3ptr93drop_in_place$LT$core..result..Result$LT$core..convert..Infallible$C$pyo3..err..PyErr$GT$$GT$17hcc204ce4b0b1577eE', symObjAddr: 0x4CD8, symBinAddr: 0x13C28, symSize: 0x30 }
  - { offset: 0x46BD4, size: 0x8, addend: 0x0, symName: '__ZN4core3ptr93drop_in_place$LT$pyo3..pycell..PyRefMut$LT$_oryon..features..RogersSatchellVolatility$GT$$GT$17h07e081ee6db196beE', symObjAddr: 0x4D08, symBinAddr: 0x13C58, symSize: 0x5C }
  - { offset: 0x46C03, size: 0x8, addend: 0x0, symName: '__ZN4core3ptr93drop_in_place$LT$pyo3..pyclass_init..PyClassInitializer$LT$_oryon..features..Kurtosis$GT$$GT$17h08c109ed3a477a74E', symObjAddr: 0x4D64, symBinAddr: 0x13CB4, symSize: 0x24 }
  - { offset: 0x46C32, size: 0x8, addend: 0x0, symName: '__ZN4core3ptr93drop_in_place$LT$pyo3..pyclass_init..PyClassInitializer$LT$_oryon..features..Skewness$GT$$GT$17h240232ee24e0ba94E', symObjAddr: 0x4D88, symBinAddr: 0x13CD8, symSize: 0x24 }
  - { offset: 0x46C61, size: 0x8, addend: 0x0, symName: '__ZN4core3ptr93drop_in_place$LT$pyo3..pyclass_init..PyClassInitializerImpl$LT$_oryon..features..Kama$GT$$GT$17hc7d6ed9014cce023E', symObjAddr: 0x4DAC, symBinAddr: 0x13CFC, symSize: 0x54 }
  - { offset: 0x46C90, size: 0x8, addend: 0x0, symName: '__ZN4core3ptr94drop_in_place$LT$core..result..Result$LT$_oryon..features..Kurtosis$C$pyo3..err..PyErr$GT$$GT$17h4bc5a62339364485E', symObjAddr: 0x4E00, symBinAddr: 0x13D50, symSize: 0x5C }
  - { offset: 0x46CBF, size: 0x8, addend: 0x0, symName: '__ZN4core3ptr94drop_in_place$LT$core..result..Result$LT$_oryon..features..Skewness$C$pyo3..err..PyErr$GT$$GT$17h8b3afa75193ad7ddE', symObjAddr: 0x4E5C, symBinAddr: 0x13DAC, symSize: 0x5C }
  - { offset: 0x46CEE, size: 0x8, addend: 0x0, symName: '__ZN4core3ptr94drop_in_place$LT$core..result..Result$LT$alloc..vec..Vec$LT$f64$GT$$C$pyo3..err..PyErr$GT$$GT$17he0b79116caa38d39E', symObjAddr: 0x4EB8, symBinAddr: 0x13E08, symSize: 0x50 }
  - { offset: 0x46D1D, size: 0x8, addend: 0x0, symName: '__ZN4core3ptr94drop_in_place$LT$pyo3..pyclass_init..PyClassInitializer$LT$_oryon..features..LogReturn$GT$$GT$17h4fea7be08bb52a1bE', symObjAddr: 0x4F08, symBinAddr: 0x13E58, symSize: 0x24 }
  - { offset: 0x46D4C, size: 0x8, addend: 0x0, symName: '__ZN4core3ptr94drop_in_place$LT$pyo3..pyclass_init..PyClassInitializer$LT$_oryon..operators..Subtract$GT$$GT$17h815ff9335e3cca2aE', symObjAddr: 0x4F2C, symBinAddr: 0x13E7C, symSize: 0x24 }
  - { offset: 0x46D7B, size: 0x8, addend: 0x0, symName: '__ZN4core3ptr95drop_in_place$LT$core..result..Result$LT$_oryon..features..LogReturn$C$pyo3..err..PyErr$GT$$GT$17h864fd731287598ecE', symObjAddr: 0x4F50, symBinAddr: 0x13EA0, symSize: 0x5C }
  - { offset: 0x46DAA, size: 0x8, addend: 0x0, symName: '__ZN4core3ptr95drop_in_place$LT$core..result..Result$LT$_oryon..operators..Subtract$C$pyo3..err..PyErr$GT$$GT$17hdc3b86a0a41608a8E', symObjAddr: 0x4FAC, symBinAddr: 0x13EFC, symSize: 0x50 }
  - { offset: 0x46DD9, size: 0x8, addend: 0x0, symName: '__ZN4core3ptr95drop_in_place$LT$pyo3..pyclass_init..PyClassInitializer$LT$_oryon..scalers..FixedZScore$GT$$GT$17ha1be4e4e6313d27cE', symObjAddr: 0x4FFC, symBinAddr: 0x13F4C, symSize: 0x24 }
  - { offset: 0x46E08, size: 0x8, addend: 0x0, symName: '__ZN4core3ptr96drop_in_place$LT$alloc..vec..Vec$LT$pyo3..instance..Bound$LT$pyo3..types..any..PyAny$GT$$GT$$GT$17hc87cab5894fac2b8E', symObjAddr: 0x5020, symBinAddr: 0x13F70, symSize: 0x5C }
  - { offset: 0x46E37, size: 0x8, addend: 0x0, symName: '__ZN4core3ptr96drop_in_place$LT$core..result..Result$LT$_oryon..scalers..FixedZScore$C$pyo3..err..PyErr$GT$$GT$17h23183095c485c6fdE', symObjAddr: 0x507C, symBinAddr: 0x13FCC, symSize: 0x5C }
  - { offset: 0x46E66, size: 0x8, addend: 0x0, symName: '__ZN4core3ptr96drop_in_place$LT$pyo3..pyclass_init..PyClassInitializer$LT$_oryon..features..LinearSlope$GT$$GT$17h661cedfa748bd57eE', symObjAddr: 0x50D8, symBinAddr: 0x14028, symSize: 0x24 }
  - { offset: 0x46E95, size: 0x8, addend: 0x0, symName: '__ZN4core3ptr96drop_in_place$LT$pyo3..pyclass_init..PyClassInitializer$LT$_oryon..targets..FutureReturn$GT$$GT$17h2c6351fc66a078ebE', symObjAddr: 0x50FC, symBinAddr: 0x1404C, symSize: 0x24 }
  - { offset: 0x46EC4, size: 0x8, addend: 0x0, symName: '__ZN4core3ptr96drop_in_place$LT$pyo3..pyclass_init..PyClassInitializerImpl$LT$_oryon..operators..NegLog$GT$$GT$17h91b9ec888216d12aE', symObjAddr: 0x5120, symBinAddr: 0x14070, symSize: 0x58 }
  - { offset: 0x46EF3, size: 0x8, addend: 0x0, symName: '__ZN4core3ptr97drop_in_place$LT$core..option..Option$LT$alloc..borrow..Cow$LT$core..ffi..c_str..CStr$GT$$GT$$GT$17h4c8b6ecd550e987eE', symObjAddr: 0x5178, symBinAddr: 0x140C8, symSize: 0x44 }
  - { offset: 0x46F22, size: 0x8, addend: 0x0, symName: '__ZN4core3ptr97drop_in_place$LT$core..option..Option$LT$pyo3..pycell..PyRef$LT$_oryon..features..Adf$GT$$GT$$GT$17he930ac65906c41deE', symObjAddr: 0x51BC, symBinAddr: 0x1410C, symSize: 0x44 }
  - { offset: 0x46F51, size: 0x8, addend: 0x0, symName: '__ZN4core3ptr97drop_in_place$LT$core..option..Option$LT$pyo3..pycell..PyRef$LT$_oryon..features..Ema$GT$$GT$$GT$17h613a06ee0abf2df7E', symObjAddr: 0x5200, symBinAddr: 0x14150, symSize: 0x44 }
  - { offset: 0x46F80, size: 0x8, addend: 0x0, symName: '__ZN4core3ptr97drop_in_place$LT$core..option..Option$LT$pyo3..pycell..PyRef$LT$_oryon..features..Mma$GT$$GT$$GT$17h7cd96a625cad1f1cE', symObjAddr: 0x5244, symBinAddr: 0x14194, symSize: 0x44 }
  - { offset: 0x46FAF, size: 0x8, addend: 0x0, symName: '__ZN4core3ptr97drop_in_place$LT$core..option..Option$LT$pyo3..pycell..PyRef$LT$_oryon..features..Sma$GT$$GT$$GT$17h966a2f9e12fed809E', symObjAddr: 0x5288, symBinAddr: 0x141D8, symSize: 0x44 }
  - { offset: 0x46FDE, size: 0x8, addend: 0x0, symName: '__ZN4core3ptr97drop_in_place$LT$core..result..Result$LT$_oryon..features..LinearSlope$C$pyo3..err..PyErr$GT$$GT$17h96cccb1838ac28e0E', symObjAddr: 0x52CC, symBinAddr: 0x1421C, symSize: 0x5C }
  - { offset: 0x4700D, size: 0x8, addend: 0x0, symName: '__ZN4core3ptr97drop_in_place$LT$core..result..Result$LT$_oryon..targets..FutureReturn$C$pyo3..err..PyErr$GT$$GT$17h955cf4920957842eE', symObjAddr: 0x5328, symBinAddr: 0x14278, symSize: 0x50 }
  - { offset: 0x4703C, size: 0x8, addend: 0x0, symName: '__ZN4core3ptr97drop_in_place$LT$pyo3..pyclass_init..PyClassInitializer$LT$_oryon..features..SimpleReturn$GT$$GT$17hc9fde46e22cf6638E', symObjAddr: 0x5378, symBinAddr: 0x142C8, symSize: 0x24 }
  - { offset: 0x4706B, size: 0x8, addend: 0x0, symName: '__ZN4core3ptr97drop_in_place$LT$pyo3..pyclass_init..PyClassInitializer$LT$_oryon..scalers..RollingZScore$GT$$GT$17h50a5e758253c756fE', symObjAddr: 0x539C, symBinAddr: 0x142EC, symSize: 0x24 }
  - { offset: 0x4709A, size: 0x8, addend: 0x0, symName: '__ZN4core3ptr97drop_in_place$LT$pyo3..pyclass_init..PyClassInitializerImpl$LT$_oryon..features..Kurtosis$GT$$GT$17h04fb935890b25179E', symObjAddr: 0x53C0, symBinAddr: 0x14310, symSize: 0x58 }
  - { offset: 0x470C9, size: 0x8, addend: 0x0, symName: '__ZN4core3ptr97drop_in_place$LT$pyo3..pyclass_init..PyClassInitializerImpl$LT$_oryon..features..Skewness$GT$$GT$17h87d597f6388c9b59E', symObjAddr: 0x5418, symBinAddr: 0x14368, symSize: 0x58 }
  - { offset: 0x470F8, size: 0x8, addend: 0x0, symName: '__ZN4core3ptr98drop_in_place$LT$core..option..Option$LT$pyo3..pycell..PyRef$LT$_oryon..features..Kama$GT$$GT$$GT$17h8a42999562417b35E', symObjAddr: 0x5470, symBinAddr: 0x143C0, symSize: 0x44 }
  - { offset: 0x47127, size: 0x8, addend: 0x0, symName: '__ZN4core3ptr98drop_in_place$LT$core..result..Result$LT$_oryon..features..SimpleReturn$C$pyo3..err..PyErr$GT$$GT$17h2be1a9b7723c5a5aE', symObjAddr: 0x54B4, symBinAddr: 0x14404, symSize: 0x5C }
  - { offset: 0x47156, size: 0x8, addend: 0x0, symName: '__ZN4core3ptr98drop_in_place$LT$core..result..Result$LT$_oryon..scalers..RollingZScore$C$pyo3..err..PyErr$GT$$GT$17h85b960dde6b6f663E', symObjAddr: 0x5510, symBinAddr: 0x14460, symSize: 0x5C }
  - { offset: 0x47185, size: 0x8, addend: 0x0, symName: '__ZN4core3ptr98drop_in_place$LT$pyo3..pyclass_init..PyClassInitializerImpl$LT$_oryon..features..LogReturn$GT$$GT$17h2f738d1fab84e12aE', symObjAddr: 0x556C, symBinAddr: 0x144BC, symSize: 0x58 }
  - { offset: 0x471B4, size: 0x8, addend: 0x0, symName: '__ZN4core3ptr98drop_in_place$LT$pyo3..pyclass_init..PyClassInitializerImpl$LT$_oryon..operators..Subtract$GT$$GT$17h603dd2306ab1a119E', symObjAddr: 0x55C4, symBinAddr: 0x14514, symSize: 0x58 }
  - { offset: 0x471E3, size: 0x8, addend: 0x0, symName: '__ZN4core3ptr99drop_in_place$LT$pyo3..pyclass_init..PyClassInitializerImpl$LT$_oryon..scalers..FixedZScore$GT$$GT$17he717fa36d39b56a1E', symObjAddr: 0x5640, symBinAddr: 0x1456C, symSize: 0x58 }
  - { offset: 0x47567, size: 0x8, addend: 0x0, symName: __ZN4core3ops8function5FnMut8call_mut17h286a0db5342c9c18E, symObjAddr: 0xD8, symBinAddr: 0xF540, symSize: 0x30 }
  - { offset: 0x475AB, size: 0x8, addend: 0x0, symName: __ZN4core3ops8function5FnMut8call_mut17h2b15d53e1deafc24E, symObjAddr: 0x108, symBinAddr: 0xF570, symSize: 0x28 }
  - { offset: 0x475EF, size: 0x8, addend: 0x0, symName: __ZN4core3ops8function5FnMut8call_mut17h3c97db274796a9bcE, symObjAddr: 0x130, symBinAddr: 0xF598, symSize: 0x30 }
  - { offset: 0x47633, size: 0x8, addend: 0x0, symName: __ZN4core3ops8function5FnMut8call_mut17h5361d9561c0d6dc6E, symObjAddr: 0x160, symBinAddr: 0xF5C8, symSize: 0x28 }
  - { offset: 0x4767D, size: 0x8, addend: 0x0, symName: '__ZN4core3ops8function6FnOnce40call_once$u7b$$u7b$vtable.shim$u7d$$u7d$17h142bc628f9b5846eE', symObjAddr: 0x188, symBinAddr: 0xF5F0, symSize: 0x30 }
  - { offset: 0x476BD, size: 0x8, addend: 0x0, symName: '__ZN4core3ops8function6FnOnce40call_once$u7b$$u7b$vtable.shim$u7d$$u7d$17h4299ee885367ab25E', symObjAddr: 0x1B8, symBinAddr: 0xF620, symSize: 0x24 }
  - { offset: 0x47701, size: 0x8, addend: 0x0, symName: '__ZN4core3ops8function6FnOnce40call_once$u7b$$u7b$vtable.shim$u7d$$u7d$17h6040d5531873dca1E', symObjAddr: 0x1DC, symBinAddr: 0xF644, symSize: 0x30 }
  - { offset: 0x47745, size: 0x8, addend: 0x0, symName: '__ZN4core3ops8function6FnOnce40call_once$u7b$$u7b$vtable.shim$u7d$$u7d$17h7db62dd5cbaa828aE', symObjAddr: 0x20C, symBinAddr: 0xF674, symSize: 0x24 }
  - { offset: 0x47789, size: 0x8, addend: 0x0, symName: '__ZN4core3ops8function6FnOnce40call_once$u7b$$u7b$vtable.shim$u7d$$u7d$17hcdde2de94f3b007cE', symObjAddr: 0x230, symBinAddr: 0xF698, symSize: 0x20 }
  - { offset: 0x477CD, size: 0x8, addend: 0x0, symName: '__ZN4core3ops8function6FnOnce40call_once$u7b$$u7b$vtable.shim$u7d$$u7d$17hf077040cc686f02eE', symObjAddr: 0x250, symBinAddr: 0xF6B8, symSize: 0x24 }
  - { offset: 0x47811, size: 0x8, addend: 0x0, symName: '__ZN4core3ops8function6FnOnce40call_once$u7b$$u7b$vtable.shim$u7d$$u7d$17hf161e194fd28a704E', symObjAddr: 0x274, symBinAddr: 0xF6DC, symSize: 0x24 }
  - { offset: 0x47855, size: 0x8, addend: 0x0, symName: __ZN4core3ops8function6FnOnce9call_once17h0e1efbd7211222cfE, symObjAddr: 0x298, symBinAddr: 0xF700, symSize: 0x24 }
  - { offset: 0x47899, size: 0x8, addend: 0x0, symName: __ZN4core3ops8function6FnOnce9call_once17h12ae5c81005d9b93E, symObjAddr: 0x2BC, symBinAddr: 0xF724, symSize: 0x24 }
  - { offset: 0x478DD, size: 0x8, addend: 0x0, symName: __ZN4core3ops8function6FnOnce9call_once17h14b6155f63cb2edcE, symObjAddr: 0x2E0, symBinAddr: 0xF748, symSize: 0x44 }
  - { offset: 0x47921, size: 0x8, addend: 0x0, symName: __ZN4core3ops8function6FnOnce9call_once17h1a928adce2a5cd2cE, symObjAddr: 0x324, symBinAddr: 0xF78C, symSize: 0x4C }
  - { offset: 0x47961, size: 0x8, addend: 0x0, symName: __ZN4core3ops8function6FnOnce9call_once17h2036fea36d08afafE, symObjAddr: 0x370, symBinAddr: 0xF7D8, symSize: 0x24 }
  - { offset: 0x479A5, size: 0x8, addend: 0x0, symName: __ZN4core3ops8function6FnOnce9call_once17h24a0f34d8466c0e9E, symObjAddr: 0x394, symBinAddr: 0xF7FC, symSize: 0x24 }
  - { offset: 0x479E9, size: 0x8, addend: 0x0, symName: __ZN4core3ops8function6FnOnce9call_once17h2d400c95fb4b0373E, symObjAddr: 0x3B8, symBinAddr: 0xF820, symSize: 0x24 }
  - { offset: 0x47A2D, size: 0x8, addend: 0x0, symName: __ZN4core3ops8function6FnOnce9call_once17h498ed250e7032f4aE, symObjAddr: 0x3DC, symBinAddr: 0xF844, symSize: 0x24 }
  - { offset: 0x47A71, size: 0x8, addend: 0x0, symName: __ZN4core3ops8function6FnOnce9call_once17h4a9652a15e28dbbcE, symObjAddr: 0x400, symBinAddr: 0xF868, symSize: 0x24 }
  - { offset: 0x47AB5, size: 0x8, addend: 0x0, symName: __ZN4core3ops8function6FnOnce9call_once17h50269d29fcfa42d6E, symObjAddr: 0x424, symBinAddr: 0xF88C, symSize: 0x24 }
  - { offset: 0x47AF9, size: 0x8, addend: 0x0, symName: __ZN4core3ops8function6FnOnce9call_once17h5ac8a35151100cc5E, symObjAddr: 0x448, symBinAddr: 0xF8B0, symSize: 0x3C }
  - { offset: 0x47B3D, size: 0x8, addend: 0x0, symName: __ZN4core3ops8function6FnOnce9call_once17h5e5b50e0df36a1ddE, symObjAddr: 0x484, symBinAddr: 0xF8EC, symSize: 0x24 }
  - { offset: 0x47B81, size: 0x8, addend: 0x0, symName: __ZN4core3ops8function6FnOnce9call_once17h60bedc96d6a31119E, symObjAddr: 0x4A8, symBinAddr: 0xF910, symSize: 0x24 }
  - { offset: 0x47BC5, size: 0x8, addend: 0x0, symName: __ZN4core3ops8function6FnOnce9call_once17h6220be9008d21e08E, symObjAddr: 0x4CC, symBinAddr: 0xF934, symSize: 0x24 }
  - { offset: 0x47C09, size: 0x8, addend: 0x0, symName: __ZN4core3ops8function6FnOnce9call_once17h6313f662cc0ecb3aE, symObjAddr: 0x4F0, symBinAddr: 0xF958, symSize: 0x24 }
  - { offset: 0x47C4D, size: 0x8, addend: 0x0, symName: __ZN4core3ops8function6FnOnce9call_once17h643596d4026346fcE, symObjAddr: 0x514, symBinAddr: 0xF97C, symSize: 0x24 }
  - { offset: 0x47C91, size: 0x8, addend: 0x0, symName: __ZN4core3ops8function6FnOnce9call_once17h6ed3f786b198656fE, symObjAddr: 0x55C, symBinAddr: 0xF9A0, symSize: 0x24 }
  - { offset: 0x47CD5, size: 0x8, addend: 0x0, symName: __ZN4core3ops8function6FnOnce9call_once17h7053df161c759ad7E, symObjAddr: 0x580, symBinAddr: 0xF9C4, symSize: 0x24 }
  - { offset: 0x47D19, size: 0x8, addend: 0x0, symName: __ZN4core3ops8function6FnOnce9call_once17h77466b3ba5956634E, symObjAddr: 0x5A4, symBinAddr: 0xF9E8, symSize: 0x24 }
  - { offset: 0x47D5D, size: 0x8, addend: 0x0, symName: __ZN4core3ops8function6FnOnce9call_once17h883b57a69eafe524E, symObjAddr: 0x5C8, symBinAddr: 0xFA0C, symSize: 0x24 }
  - { offset: 0x47DA1, size: 0x8, addend: 0x0, symName: __ZN4core3ops8function6FnOnce9call_once17h896a86288acfc8d2E, symObjAddr: 0x5EC, symBinAddr: 0xFA30, symSize: 0x4C }
  - { offset: 0x47DE5, size: 0x8, addend: 0x0, symName: __ZN4core3ops8function6FnOnce9call_once17h953ea3cc8e71aadeE, symObjAddr: 0x638, symBinAddr: 0xFA7C, symSize: 0x24 }
  - { offset: 0x47E29, size: 0x8, addend: 0x0, symName: __ZN4core3ops8function6FnOnce9call_once17hadd2814b2bbac29bE, symObjAddr: 0x65C, symBinAddr: 0xFAA0, symSize: 0x4C }
  - { offset: 0x47E6D, size: 0x8, addend: 0x0, symName: __ZN4core3ops8function6FnOnce9call_once17hafb7ce9e14857d9aE, symObjAddr: 0x6A8, symBinAddr: 0xFAEC, symSize: 0x48 }
  - { offset: 0x47EB1, size: 0x8, addend: 0x0, symName: __ZN4core3ops8function6FnOnce9call_once17hb25b17fbdd54dc2fE, symObjAddr: 0x6F0, symBinAddr: 0xFB34, symSize: 0x24 }
  - { offset: 0x47EF5, size: 0x8, addend: 0x0, symName: __ZN4core3ops8function6FnOnce9call_once17hb868eb7fddcad3fcE, symObjAddr: 0x714, symBinAddr: 0xFB58, symSize: 0x24 }
  - { offset: 0x47F39, size: 0x8, addend: 0x0, symName: __ZN4core3ops8function6FnOnce9call_once17hc526aeed5470ef3cE, symObjAddr: 0x738, symBinAddr: 0xFB7C, symSize: 0x3C }
  - { offset: 0x47F7D, size: 0x8, addend: 0x0, symName: __ZN4core3ops8function6FnOnce9call_once17hccd50d2063bf69c7E, symObjAddr: 0x774, symBinAddr: 0xFBB8, symSize: 0x24 }
  - { offset: 0x47FC1, size: 0x8, addend: 0x0, symName: __ZN4core3ops8function6FnOnce9call_once17hd8bfe7ed2fc8b0f1E, symObjAddr: 0x798, symBinAddr: 0xFBDC, symSize: 0x24 }
  - { offset: 0x48005, size: 0x8, addend: 0x0, symName: __ZN4core3ops8function6FnOnce9call_once17hde94521f9e8378e0E, symObjAddr: 0x7BC, symBinAddr: 0xFC00, symSize: 0x44 }
  - { offset: 0x48049, size: 0x8, addend: 0x0, symName: __ZN4core3ops8function6FnOnce9call_once17he22e3d89be82ea20E, symObjAddr: 0x800, symBinAddr: 0xFC44, symSize: 0x24 }
  - { offset: 0x4808D, size: 0x8, addend: 0x0, symName: __ZN4core3ops8function6FnOnce9call_once17he277186e3a7ceab2E, symObjAddr: 0x824, symBinAddr: 0xFC68, symSize: 0x24 }
  - { offset: 0x480D1, size: 0x8, addend: 0x0, symName: __ZN4core3ops8function6FnOnce9call_once17he3ea92a1b5de0fc8E, symObjAddr: 0x848, symBinAddr: 0xFC8C, symSize: 0x40 }
  - { offset: 0x48115, size: 0x8, addend: 0x0, symName: __ZN4core3ops8function6FnOnce9call_once17hef1ac62b2cb1cd90E, symObjAddr: 0x888, symBinAddr: 0xFCCC, symSize: 0x24 }
  - { offset: 0x48159, size: 0x8, addend: 0x0, symName: __ZN4core3ops8function6FnOnce9call_once17hf0c5c448da5fa7c0E, symObjAddr: 0x8AC, symBinAddr: 0xFCF0, symSize: 0x24 }
  - { offset: 0x4819D, size: 0x8, addend: 0x0, symName: __ZN4core3ops8function6FnOnce9call_once17hf45f4867bab168f3E, symObjAddr: 0x8D0, symBinAddr: 0xFD14, symSize: 0x24 }
  - { offset: 0x481E1, size: 0x8, addend: 0x0, symName: __ZN4core3ops8function6FnOnce9call_once17hf73035ded3f6f92fE, symObjAddr: 0x8F4, symBinAddr: 0xFD38, symSize: 0x24 }
  - { offset: 0x4CCBA, size: 0x8, addend: 0x0, symName: '__ZN77_$LT$alloc..raw_vec..RawVec$LT$T$C$A$GT$$u20$as$u20$core..ops..drop..Drop$GT$4drop17h1c0314813d452605E', symObjAddr: 0x83E4, symBinAddr: 0x17224, symSize: 0x34 }
  - { offset: 0x4CCF6, size: 0x8, addend: 0x0, symName: '__ZN77_$LT$alloc..raw_vec..RawVec$LT$T$C$A$GT$$u20$as$u20$core..ops..drop..Drop$GT$4drop17haa8a6492aca49561E', symObjAddr: 0x8448, symBinAddr: 0x17258, symSize: 0x30 }
  - { offset: 0x4CE8D, size: 0x8, addend: 0x0, symName: '__ZN157_$LT$$LT$alloc..vec..into_iter..IntoIter$LT$T$C$A$GT$$u20$as$u20$core..ops..drop..Drop$GT$..drop..DropGuard$LT$T$C$A$GT$$u20$as$u20$core..ops..drop..Drop$GT$4drop17hd1655692837e23ecE', symObjAddr: 0x0, symBinAddr: 0xF468, symSize: 0x6C }
  - { offset: 0x4CFD0, size: 0x8, addend: 0x0, symName: '__ZN157_$LT$$LT$alloc..vec..into_iter..IntoIter$LT$T$C$A$GT$$u20$as$u20$core..ops..drop..Drop$GT$..drop..DropGuard$LT$T$C$A$GT$$u20$as$u20$core..ops..drop..Drop$GT$4drop17hd6d7c5a574da9deeE', symObjAddr: 0x6C, symBinAddr: 0xF4D4, symSize: 0x6C }
  - { offset: 0x4D163, size: 0x8, addend: 0x0, symName: '__ZN86_$LT$alloc..vec..into_iter..IntoIter$LT$T$C$A$GT$$u20$as$u20$core..ops..drop..Drop$GT$4drop17h2b3241f193e6cd6bE', symObjAddr: 0x8478, symBinAddr: 0x17288, symSize: 0x64 }
  - { offset: 0x4D1B5, size: 0x8, addend: 0x0, symName: '__ZN86_$LT$alloc..vec..into_iter..IntoIter$LT$T$C$A$GT$$u20$as$u20$core..ops..drop..Drop$GT$4drop17h7ebc2d70cebf55b3E', symObjAddr: 0x84DC, symBinAddr: 0x172EC, symSize: 0x78 }
  - { offset: 0x4D3C5, size: 0x8, addend: 0x0, symName: '__ZN70_$LT$alloc..vec..Vec$LT$T$C$A$GT$$u20$as$u20$core..ops..drop..Drop$GT$4drop17h3f41c65eb9b1f2dcE', symObjAddr: 0x59E0, symBinAddr: 0x1490C, symSize: 0x38 }
  - { offset: 0x4D475, size: 0x8, addend: 0x0, symName: '__ZN70_$LT$alloc..vec..Vec$LT$T$C$A$GT$$u20$as$u20$core..ops..drop..Drop$GT$4drop17h7d3d0f533d2e3372E', symObjAddr: 0x5A18, symBinAddr: 0x14944, symSize: 0x38 }
  - { offset: 0x4DAB3, size: 0x8, addend: 0x0, symName: '__ZN69_$LT$pyo3..instance..Py$LT$T$GT$$u20$as$u20$core..ops..drop..Drop$GT$4drop17h0c238b6fb4b1890bE', symObjAddr: 0x5698, symBinAddr: 0x145C4, symSize: 0x28 }
  - { offset: 0x4DAE6, size: 0x8, addend: 0x0, symName: '__ZN69_$LT$pyo3..instance..Py$LT$T$GT$$u20$as$u20$core..ops..drop..Drop$GT$4drop17h104108894b49fc81E', symObjAddr: 0x56C0, symBinAddr: 0x145EC, symSize: 0x28 }
  - { offset: 0x4DB19, size: 0x8, addend: 0x0, symName: '__ZN69_$LT$pyo3..instance..Py$LT$T$GT$$u20$as$u20$core..ops..drop..Drop$GT$4drop17h186ac1cffc716563E', symObjAddr: 0x56E8, symBinAddr: 0x14614, symSize: 0x28 }
  - { offset: 0x4DB4C, size: 0x8, addend: 0x0, symName: '__ZN69_$LT$pyo3..instance..Py$LT$T$GT$$u20$as$u20$core..ops..drop..Drop$GT$4drop17h2c9d1254f7d190b7E', symObjAddr: 0x5710, symBinAddr: 0x1463C, symSize: 0x28 }
  - { offset: 0x4DB7F, size: 0x8, addend: 0x0, symName: '__ZN69_$LT$pyo3..instance..Py$LT$T$GT$$u20$as$u20$core..ops..drop..Drop$GT$4drop17h31cc874d6490e0f9E', symObjAddr: 0x5738, symBinAddr: 0x14664, symSize: 0x28 }
  - { offset: 0x4DBB2, size: 0x8, addend: 0x0, symName: '__ZN69_$LT$pyo3..instance..Py$LT$T$GT$$u20$as$u20$core..ops..drop..Drop$GT$4drop17h32e784e2f84f6c3fE', symObjAddr: 0x5760, symBinAddr: 0x1468C, symSize: 0x28 }
  - { offset: 0x4DBE5, size: 0x8, addend: 0x0, symName: '__ZN69_$LT$pyo3..instance..Py$LT$T$GT$$u20$as$u20$core..ops..drop..Drop$GT$4drop17h34fa79aa4cc0e876E', symObjAddr: 0x5788, symBinAddr: 0x146B4, symSize: 0x28 }
  - { offset: 0x4DC18, size: 0x8, addend: 0x0, symName: '__ZN69_$LT$pyo3..instance..Py$LT$T$GT$$u20$as$u20$core..ops..drop..Drop$GT$4drop17h3a9463fd5f468eb9E', symObjAddr: 0x57B0, symBinAddr: 0x146DC, symSize: 0x28 }
  - { offset: 0x4DC4B, size: 0x8, addend: 0x0, symName: '__ZN69_$LT$pyo3..instance..Py$LT$T$GT$$u20$as$u20$core..ops..drop..Drop$GT$4drop17h45299f9c1081ee70E', symObjAddr: 0x57D8, symBinAddr: 0x14704, symSize: 0x28 }
  - { offset: 0x4DC7E, size: 0x8, addend: 0x0, symName: '__ZN69_$LT$pyo3..instance..Py$LT$T$GT$$u20$as$u20$core..ops..drop..Drop$GT$4drop17h47692211728ae190E', symObjAddr: 0x5800, symBinAddr: 0x1472C, symSize: 0x28 }
  - { offset: 0x4DCB1, size: 0x8, addend: 0x0, symName: '__ZN69_$LT$pyo3..instance..Py$LT$T$GT$$u20$as$u20$core..ops..drop..Drop$GT$4drop17h4a973d8fe03fdc3dE', symObjAddr: 0x5828, symBinAddr: 0x14754, symSize: 0x28 }
  - { offset: 0x4DCE4, size: 0x8, addend: 0x0, symName: '__ZN69_$LT$pyo3..instance..Py$LT$T$GT$$u20$as$u20$core..ops..drop..Drop$GT$4drop17h6d2aff7fe4c799bcE', symObjAddr: 0x5850, symBinAddr: 0x1477C, symSize: 0x28 }
  - { offset: 0x4DD17, size: 0x8, addend: 0x0, symName: '__ZN69_$LT$pyo3..instance..Py$LT$T$GT$$u20$as$u20$core..ops..drop..Drop$GT$4drop17h6e3da2d7b39066bfE', symObjAddr: 0x5878, symBinAddr: 0x147A4, symSize: 0x28 }
  - { offset: 0x4DD4A, size: 0x8, addend: 0x0, symName: '__ZN69_$LT$pyo3..instance..Py$LT$T$GT$$u20$as$u20$core..ops..drop..Drop$GT$4drop17h7499b35ffd835cd7E', symObjAddr: 0x58A0, symBinAddr: 0x147CC, symSize: 0x28 }
  - { offset: 0x4DD7D, size: 0x8, addend: 0x0, symName: '__ZN69_$LT$pyo3..instance..Py$LT$T$GT$$u20$as$u20$core..ops..drop..Drop$GT$4drop17h9015844065d001fbE', symObjAddr: 0x58C8, symBinAddr: 0x147F4, symSize: 0x28 }
  - { offset: 0x4DDB0, size: 0x8, addend: 0x0, symName: '__ZN69_$LT$pyo3..instance..Py$LT$T$GT$$u20$as$u20$core..ops..drop..Drop$GT$4drop17h96de1099be0cbabaE', symObjAddr: 0x58F0, symBinAddr: 0x1481C, symSize: 0x28 }
  - { offset: 0x4DDE3, size: 0x8, addend: 0x0, symName: '__ZN69_$LT$pyo3..instance..Py$LT$T$GT$$u20$as$u20$core..ops..drop..Drop$GT$4drop17ha2431ae9636e6463E', symObjAddr: 0x5918, symBinAddr: 0x14844, symSize: 0x28 }
  - { offset: 0x4DE16, size: 0x8, addend: 0x0, symName: '__ZN69_$LT$pyo3..instance..Py$LT$T$GT$$u20$as$u20$core..ops..drop..Drop$GT$4drop17haa1dde00cdda1ae2E', symObjAddr: 0x5940, symBinAddr: 0x1486C, symSize: 0x28 }
  - { offset: 0x4DE49, size: 0x8, addend: 0x0, symName: '__ZN69_$LT$pyo3..instance..Py$LT$T$GT$$u20$as$u20$core..ops..drop..Drop$GT$4drop17hbe88761d58bb4a86E', symObjAddr: 0x5968, symBinAddr: 0x14894, symSize: 0x28 }
  - { offset: 0x4DE7C, size: 0x8, addend: 0x0, symName: '__ZN69_$LT$pyo3..instance..Py$LT$T$GT$$u20$as$u20$core..ops..drop..Drop$GT$4drop17he036225414da1dd6E', symObjAddr: 0x5990, symBinAddr: 0x148BC, symSize: 0x28 }
  - { offset: 0x4DEAF, size: 0x8, addend: 0x0, symName: '__ZN69_$LT$pyo3..instance..Py$LT$T$GT$$u20$as$u20$core..ops..drop..Drop$GT$4drop17hf75f641e3efbd044E', symObjAddr: 0x59B8, symBinAddr: 0x148E4, symSize: 0x28 }
  - { offset: 0x4DF3C, size: 0x8, addend: 0x0, symName: '__ZN72_$LT$pyo3..instance..Bound$LT$T$GT$$u20$as$u20$core..ops..drop..Drop$GT$4drop17h0fde3bb6680f0486E', symObjAddr: 0x5E10, symBinAddr: 0x14D18, symSize: 0x1A0 }
  - { offset: 0x4DFAB, size: 0x8, addend: 0x0, symName: '__ZN72_$LT$pyo3..instance..Bound$LT$T$GT$$u20$as$u20$core..ops..drop..Drop$GT$4drop17h11084ff98864029aE', symObjAddr: 0x5FB0, symBinAddr: 0x14EB8, symSize: 0x1A0 }
  - { offset: 0x4E01A, size: 0x8, addend: 0x0, symName: '__ZN72_$LT$pyo3..instance..Bound$LT$T$GT$$u20$as$u20$core..ops..drop..Drop$GT$4drop17h1f968ddf9d34c464E', symObjAddr: 0x6150, symBinAddr: 0x15058, symSize: 0x1A0 }
  - { offset: 0x4E089, size: 0x8, addend: 0x0, symName: '__ZN72_$LT$pyo3..instance..Bound$LT$T$GT$$u20$as$u20$core..ops..drop..Drop$GT$4drop17h2c539cfdd3f069f7E', symObjAddr: 0x62F0, symBinAddr: 0x151F8, symSize: 0x1A0 }
  - { offset: 0x4E0F8, size: 0x8, addend: 0x0, symName: '__ZN72_$LT$pyo3..instance..Bound$LT$T$GT$$u20$as$u20$core..ops..drop..Drop$GT$4drop17h4662e0991560f284E', symObjAddr: 0x6490, symBinAddr: 0x15398, symSize: 0x1A0 }
  - { offset: 0x4E167, size: 0x8, addend: 0x0, symName: '__ZN72_$LT$pyo3..instance..Bound$LT$T$GT$$u20$as$u20$core..ops..drop..Drop$GT$4drop17h4a82e10ffb68f60eE', symObjAddr: 0x6630, symBinAddr: 0x15538, symSize: 0x1A0 }
  - { offset: 0x4E1D6, size: 0x8, addend: 0x0, symName: '__ZN72_$LT$pyo3..instance..Bound$LT$T$GT$$u20$as$u20$core..ops..drop..Drop$GT$4drop17h5359fb7ead6f0fefE', symObjAddr: 0x67D0, symBinAddr: 0x156D8, symSize: 0x1A0 }
  - { offset: 0x4E245, size: 0x8, addend: 0x0, symName: '__ZN72_$LT$pyo3..instance..Bound$LT$T$GT$$u20$as$u20$core..ops..drop..Drop$GT$4drop17h58999642bbaf569fE', symObjAddr: 0x6970, symBinAddr: 0x15878, symSize: 0x1A0 }
  - { offset: 0x4E2B4, size: 0x8, addend: 0x0, symName: '__ZN72_$LT$pyo3..instance..Bound$LT$T$GT$$u20$as$u20$core..ops..drop..Drop$GT$4drop17h604fd164aef121ecE', symObjAddr: 0x6B10, symBinAddr: 0x15A18, symSize: 0x1A0 }
  - { offset: 0x4E323, size: 0x8, addend: 0x0, symName: '__ZN72_$LT$pyo3..instance..Bound$LT$T$GT$$u20$as$u20$core..ops..drop..Drop$GT$4drop17h7e68ed31e3e24090E', symObjAddr: 0x6CB0, symBinAddr: 0x15BB8, symSize: 0x1A0 }
  - { offset: 0x4E392, size: 0x8, addend: 0x0, symName: '__ZN72_$LT$pyo3..instance..Bound$LT$T$GT$$u20$as$u20$core..ops..drop..Drop$GT$4drop17h8328a99cf193ce63E', symObjAddr: 0x6E50, symBinAddr: 0x15D58, symSize: 0x1A0 }
  - { offset: 0x4E401, size: 0x8, addend: 0x0, symName: '__ZN72_$LT$pyo3..instance..Bound$LT$T$GT$$u20$as$u20$core..ops..drop..Drop$GT$4drop17h86e17f1660d86b09E', symObjAddr: 0x6FF0, symBinAddr: 0x15EF8, symSize: 0x1A0 }
  - { offset: 0x4E470, size: 0x8, addend: 0x0, symName: '__ZN72_$LT$pyo3..instance..Bound$LT$T$GT$$u20$as$u20$core..ops..drop..Drop$GT$4drop17h929b8233c72532a3E', symObjAddr: 0x7190, symBinAddr: 0x16098, symSize: 0x1A0 }
  - { offset: 0x4E4DF, size: 0x8, addend: 0x0, symName: '__ZN72_$LT$pyo3..instance..Bound$LT$T$GT$$u20$as$u20$core..ops..drop..Drop$GT$4drop17h9a16b3b1d25c1b72E', symObjAddr: 0x7330, symBinAddr: 0x16238, symSize: 0x1A0 }
  - { offset: 0x4E54E, size: 0x8, addend: 0x0, symName: '__ZN72_$LT$pyo3..instance..Bound$LT$T$GT$$u20$as$u20$core..ops..drop..Drop$GT$4drop17haa1d6318b214d023E', symObjAddr: 0x74D0, symBinAddr: 0x163D8, symSize: 0x1A0 }
  - { offset: 0x4E5BD, size: 0x8, addend: 0x0, symName: '__ZN72_$LT$pyo3..instance..Bound$LT$T$GT$$u20$as$u20$core..ops..drop..Drop$GT$4drop17hc39da4e5cd6bdd11E', symObjAddr: 0x7670, symBinAddr: 0x16578, symSize: 0x1A0 }
  - { offset: 0x4E62C, size: 0x8, addend: 0x0, symName: '__ZN72_$LT$pyo3..instance..Bound$LT$T$GT$$u20$as$u20$core..ops..drop..Drop$GT$4drop17hc65fde0f4fb828cbE', symObjAddr: 0x7810, symBinAddr: 0x16718, symSize: 0x1A0 }
  - { offset: 0x4E69B, size: 0x8, addend: 0x0, symName: '__ZN72_$LT$pyo3..instance..Bound$LT$T$GT$$u20$as$u20$core..ops..drop..Drop$GT$4drop17hd5a77448f48218ffE', symObjAddr: 0x79B0, symBinAddr: 0x168B8, symSize: 0x1A0 }
  - { offset: 0x4E70A, size: 0x8, addend: 0x0, symName: '__ZN72_$LT$pyo3..instance..Bound$LT$T$GT$$u20$as$u20$core..ops..drop..Drop$GT$4drop17he86e1c98124aa77aE', symObjAddr: 0x7B50, symBinAddr: 0x16A58, symSize: 0x1A0 }
  - { offset: 0x4E779, size: 0x8, addend: 0x0, symName: '__ZN72_$LT$pyo3..instance..Bound$LT$T$GT$$u20$as$u20$core..ops..drop..Drop$GT$4drop17he88f657906615da3E', symObjAddr: 0x7CF0, symBinAddr: 0x16BF8, symSize: 0x1A0 }
  - { offset: 0x4E7E8, size: 0x8, addend: 0x0, symName: '__ZN72_$LT$pyo3..instance..Bound$LT$T$GT$$u20$as$u20$core..ops..drop..Drop$GT$4drop17hfb7b63ce3d4dc659E', symObjAddr: 0x7E90, symBinAddr: 0x16D98, symSize: 0x1A0 }
  - { offset: 0x4F19F, size: 0x8, addend: 0x0, symName: '__ZN70_$LT$pyo3..pycell..PyRef$LT$T$GT$$u20$as$u20$core..ops..drop..Drop$GT$4drop17h1941efdbb37147eaE', symObjAddr: 0x5A74, symBinAddr: 0x1497C, symSize: 0x2C }
  - { offset: 0x4F1D2, size: 0x8, addend: 0x0, symName: '__ZN70_$LT$pyo3..pycell..PyRef$LT$T$GT$$u20$as$u20$core..ops..drop..Drop$GT$4drop17h209edca33cdb2476E', symObjAddr: 0x5AA0, symBinAddr: 0x149A8, symSize: 0x2C }
  - { offset: 0x4F205, size: 0x8, addend: 0x0, symName: '__ZN70_$LT$pyo3..pycell..PyRef$LT$T$GT$$u20$as$u20$core..ops..drop..Drop$GT$4drop17h25cab2534f53b835E', symObjAddr: 0x5ACC, symBinAddr: 0x149D4, symSize: 0x2C }
  - { offset: 0x4F238, size: 0x8, addend: 0x0, symName: '__ZN70_$LT$pyo3..pycell..PyRef$LT$T$GT$$u20$as$u20$core..ops..drop..Drop$GT$4drop17h2e33cb595aafb086E', symObjAddr: 0x5AF8, symBinAddr: 0x14A00, symSize: 0x2C }
  - { offset: 0x4F26B, size: 0x8, addend: 0x0, symName: '__ZN70_$LT$pyo3..pycell..PyRef$LT$T$GT$$u20$as$u20$core..ops..drop..Drop$GT$4drop17h35e025e7f8e6b220E', symObjAddr: 0x5B24, symBinAddr: 0x14A2C, symSize: 0x2C }
  - { offset: 0x4F29E, size: 0x8, addend: 0x0, symName: '__ZN70_$LT$pyo3..pycell..PyRef$LT$T$GT$$u20$as$u20$core..ops..drop..Drop$GT$4drop17h3a0c01d63aab7866E', symObjAddr: 0x5B50, symBinAddr: 0x14A58, symSize: 0x2C }
  - { offset: 0x4F2D1, size: 0x8, addend: 0x0, symName: '__ZN70_$LT$pyo3..pycell..PyRef$LT$T$GT$$u20$as$u20$core..ops..drop..Drop$GT$4drop17h52abc78dee7147d4E', symObjAddr: 0x5B7C, symBinAddr: 0x14A84, symSize: 0x2C }
  - { offset: 0x4F304, size: 0x8, addend: 0x0, symName: '__ZN70_$LT$pyo3..pycell..PyRef$LT$T$GT$$u20$as$u20$core..ops..drop..Drop$GT$4drop17h595d2c1415a5bf40E', symObjAddr: 0x5BA8, symBinAddr: 0x14AB0, symSize: 0x2C }
  - { offset: 0x4F337, size: 0x8, addend: 0x0, symName: '__ZN70_$LT$pyo3..pycell..PyRef$LT$T$GT$$u20$as$u20$core..ops..drop..Drop$GT$4drop17h59fc8fe311329c52E', symObjAddr: 0x5BD4, symBinAddr: 0x14ADC, symSize: 0x2C }
  - { offset: 0x4F36A, size: 0x8, addend: 0x0, symName: '__ZN70_$LT$pyo3..pycell..PyRef$LT$T$GT$$u20$as$u20$core..ops..drop..Drop$GT$4drop17h6a50b5ccea562f7fE', symObjAddr: 0x5C00, symBinAddr: 0x14B08, symSize: 0x2C }
  - { offset: 0x4F39D, size: 0x8, addend: 0x0, symName: '__ZN70_$LT$pyo3..pycell..PyRef$LT$T$GT$$u20$as$u20$core..ops..drop..Drop$GT$4drop17h6df262042c2dc33bE', symObjAddr: 0x5C2C, symBinAddr: 0x14B34, symSize: 0x2C }
  - { offset: 0x4F3D0, size: 0x8, addend: 0x0, symName: '__ZN70_$LT$pyo3..pycell..PyRef$LT$T$GT$$u20$as$u20$core..ops..drop..Drop$GT$4drop17h7ef4ed8377026772E', symObjAddr: 0x5C58, symBinAddr: 0x14B60, symSize: 0x2C }
  - { offset: 0x4F403, size: 0x8, addend: 0x0, symName: '__ZN70_$LT$pyo3..pycell..PyRef$LT$T$GT$$u20$as$u20$core..ops..drop..Drop$GT$4drop17h8403ee1aba7eb54eE', symObjAddr: 0x5C84, symBinAddr: 0x14B8C, symSize: 0x2C }
  - { offset: 0x4F436, size: 0x8, addend: 0x0, symName: '__ZN70_$LT$pyo3..pycell..PyRef$LT$T$GT$$u20$as$u20$core..ops..drop..Drop$GT$4drop17h955ff67816ff5376E', symObjAddr: 0x5CB0, symBinAddr: 0x14BB8, symSize: 0x2C }
  - { offset: 0x4F469, size: 0x8, addend: 0x0, symName: '__ZN70_$LT$pyo3..pycell..PyRef$LT$T$GT$$u20$as$u20$core..ops..drop..Drop$GT$4drop17h9c01c9c467da78a2E', symObjAddr: 0x5CDC, symBinAddr: 0x14BE4, symSize: 0x2C }
  - { offset: 0x4F49C, size: 0x8, addend: 0x0, symName: '__ZN70_$LT$pyo3..pycell..PyRef$LT$T$GT$$u20$as$u20$core..ops..drop..Drop$GT$4drop17hb7191cbf7a39f212E', symObjAddr: 0x5D08, symBinAddr: 0x14C10, symSize: 0x2C }
  - { offset: 0x4F4CF, size: 0x8, addend: 0x0, symName: '__ZN70_$LT$pyo3..pycell..PyRef$LT$T$GT$$u20$as$u20$core..ops..drop..Drop$GT$4drop17hd2fb4f08ec1aeea7E', symObjAddr: 0x5D34, symBinAddr: 0x14C3C, symSize: 0x2C }
  - { offset: 0x4F502, size: 0x8, addend: 0x0, symName: '__ZN70_$LT$pyo3..pycell..PyRef$LT$T$GT$$u20$as$u20$core..ops..drop..Drop$GT$4drop17hd778f6ccc0aa8e7dE', symObjAddr: 0x5D60, symBinAddr: 0x14C68, symSize: 0x2C }
  - { offset: 0x4F535, size: 0x8, addend: 0x0, symName: '__ZN70_$LT$pyo3..pycell..PyRef$LT$T$GT$$u20$as$u20$core..ops..drop..Drop$GT$4drop17hdf0bb037029c58d4E', symObjAddr: 0x5D8C, symBinAddr: 0x14C94, symSize: 0x2C }
  - { offset: 0x4F568, size: 0x8, addend: 0x0, symName: '__ZN70_$LT$pyo3..pycell..PyRef$LT$T$GT$$u20$as$u20$core..ops..drop..Drop$GT$4drop17hebe9e5ca07375e9aE', symObjAddr: 0x5DB8, symBinAddr: 0x14CC0, symSize: 0x2C }
  - { offset: 0x4F59B, size: 0x8, addend: 0x0, symName: '__ZN70_$LT$pyo3..pycell..PyRef$LT$T$GT$$u20$as$u20$core..ops..drop..Drop$GT$4drop17hf543486fa0252923E', symObjAddr: 0x5DE4, symBinAddr: 0x14CEC, symSize: 0x2C }
  - { offset: 0x4F5D4, size: 0x8, addend: 0x0, symName: '__ZN73_$LT$pyo3..pycell..PyRefMut$LT$T$GT$$u20$as$u20$core..ops..drop..Drop$GT$4drop17h112f8c6cfe98e578E', symObjAddr: 0x8030, symBinAddr: 0x16F38, symSize: 0x2C }
  - { offset: 0x4F607, size: 0x8, addend: 0x0, symName: '__ZN73_$LT$pyo3..pycell..PyRefMut$LT$T$GT$$u20$as$u20$core..ops..drop..Drop$GT$4drop17h125d860f84fc50f7E', symObjAddr: 0x805C, symBinAddr: 0x16F64, symSize: 0x2C }
  - { offset: 0x4F63A, size: 0x8, addend: 0x0, symName: '__ZN73_$LT$pyo3..pycell..PyRefMut$LT$T$GT$$u20$as$u20$core..ops..drop..Drop$GT$4drop17h358b7712edf4524eE', symObjAddr: 0x8088, symBinAddr: 0x16F90, symSize: 0x2C }
  - { offset: 0x4F66D, size: 0x8, addend: 0x0, symName: '__ZN73_$LT$pyo3..pycell..PyRefMut$LT$T$GT$$u20$as$u20$core..ops..drop..Drop$GT$4drop17h495d1f8fe1fbec65E', symObjAddr: 0x80B4, symBinAddr: 0x16FBC, symSize: 0x2C }
  - { offset: 0x4F6A0, size: 0x8, addend: 0x0, symName: '__ZN73_$LT$pyo3..pycell..PyRefMut$LT$T$GT$$u20$as$u20$core..ops..drop..Drop$GT$4drop17h4abe5ea06058899fE', symObjAddr: 0x80E0, symBinAddr: 0x16FE8, symSize: 0x2C }
  - { offset: 0x4F6D3, size: 0x8, addend: 0x0, symName: '__ZN73_$LT$pyo3..pycell..PyRefMut$LT$T$GT$$u20$as$u20$core..ops..drop..Drop$GT$4drop17h5177c1c327a561d6E', symObjAddr: 0x810C, symBinAddr: 0x17014, symSize: 0x2C }
  - { offset: 0x4F706, size: 0x8, addend: 0x0, symName: '__ZN73_$LT$pyo3..pycell..PyRefMut$LT$T$GT$$u20$as$u20$core..ops..drop..Drop$GT$4drop17h61f64f100b21731eE', symObjAddr: 0x8138, symBinAddr: 0x17040, symSize: 0x2C }
  - { offset: 0x4F739, size: 0x8, addend: 0x0, symName: '__ZN73_$LT$pyo3..pycell..PyRefMut$LT$T$GT$$u20$as$u20$core..ops..drop..Drop$GT$4drop17h69163bc5bd19bbb9E', symObjAddr: 0x8164, symBinAddr: 0x1706C, symSize: 0x2C }
  - { offset: 0x4F76C, size: 0x8, addend: 0x0, symName: '__ZN73_$LT$pyo3..pycell..PyRefMut$LT$T$GT$$u20$as$u20$core..ops..drop..Drop$GT$4drop17h6d066c6164aa31f5E', symObjAddr: 0x8190, symBinAddr: 0x17098, symSize: 0x2C }
  - { offset: 0x4F79F, size: 0x8, addend: 0x0, symName: '__ZN73_$LT$pyo3..pycell..PyRefMut$LT$T$GT$$u20$as$u20$core..ops..drop..Drop$GT$4drop17h7b613dd2d418861cE', symObjAddr: 0x81BC, symBinAddr: 0x170C4, symSize: 0x2C }
  - { offset: 0x4F7D2, size: 0x8, addend: 0x0, symName: '__ZN73_$LT$pyo3..pycell..PyRefMut$LT$T$GT$$u20$as$u20$core..ops..drop..Drop$GT$4drop17h7e387149ccba0fbdE', symObjAddr: 0x81E8, symBinAddr: 0x170F0, symSize: 0x2C }
  - { offset: 0x4F805, size: 0x8, addend: 0x0, symName: '__ZN73_$LT$pyo3..pycell..PyRefMut$LT$T$GT$$u20$as$u20$core..ops..drop..Drop$GT$4drop17h876c6a6a9164610eE', symObjAddr: 0x8214, symBinAddr: 0x1711C, symSize: 0x2C }
  - { offset: 0x4F838, size: 0x8, addend: 0x0, symName: '__ZN73_$LT$pyo3..pycell..PyRefMut$LT$T$GT$$u20$as$u20$core..ops..drop..Drop$GT$4drop17ha374f577b9e989cfE', symObjAddr: 0x8240, symBinAddr: 0x17148, symSize: 0x2C }
  - { offset: 0x4F86B, size: 0x8, addend: 0x0, symName: '__ZN73_$LT$pyo3..pycell..PyRefMut$LT$T$GT$$u20$as$u20$core..ops..drop..Drop$GT$4drop17haaf11b4ffc637154E', symObjAddr: 0x826C, symBinAddr: 0x17174, symSize: 0x2C }
  - { offset: 0x4F89E, size: 0x8, addend: 0x0, symName: '__ZN73_$LT$pyo3..pycell..PyRefMut$LT$T$GT$$u20$as$u20$core..ops..drop..Drop$GT$4drop17hf09c40463c9c7838E', symObjAddr: 0x8298, symBinAddr: 0x171A0, symSize: 0x2C }
  - { offset: 0x4F8D1, size: 0x8, addend: 0x0, symName: '__ZN73_$LT$pyo3..pycell..PyRefMut$LT$T$GT$$u20$as$u20$core..ops..drop..Drop$GT$4drop17hf47fbaa82e893270E', symObjAddr: 0x82C4, symBinAddr: 0x171CC, symSize: 0x2C }
  - { offset: 0x4F904, size: 0x8, addend: 0x0, symName: '__ZN73_$LT$pyo3..pycell..PyRefMut$LT$T$GT$$u20$as$u20$core..ops..drop..Drop$GT$4drop17hffae90f95e5eeb53E', symObjAddr: 0x82F0, symBinAddr: 0x171F8, symSize: 0x2C }
  - { offset: 0x535B1, size: 0x8, addend: 0x0, symName: '__ZN71_$LT$alloc..borrow..Cow$LT$B$GT$$u20$as$u20$core..ops..deref..Deref$GT$5deref17hdcf050e00acad1aeE', symObjAddr: 0x0, symBinAddr: 0x17364, symSize: 0x70 }
  - { offset: 0x535CD, size: 0x8, addend: 0x0, symName: '__ZN71_$LT$alloc..borrow..Cow$LT$B$GT$$u20$as$u20$core..ops..deref..Deref$GT$5deref17hdcf050e00acad1aeE', symObjAddr: 0x0, symBinAddr: 0x17364, symSize: 0x70 }
  - { offset: 0x5377D, size: 0x8, addend: 0x0, symName: __ZN4pyo35types10typeobject6PyType22from_borrowed_type_ptr17h10ed197115eeaabcE, symObjAddr: 0x0, symBinAddr: 0x173D4, symSize: 0x34 }
  - { offset: 0x54EE6, size: 0x8, addend: 0x0, symName: __ZN4pyo35types10typeobject6PyType22from_borrowed_type_ptr17h10ed197115eeaabcE, symObjAddr: 0x0, symBinAddr: 0x173D4, symSize: 0x34 }
  - { offset: 0x54F3F, size: 0x8, addend: 0x0, symName: __ZN4pyo310exceptions15PyOverflowError7new_err17h1b92d50eca8140abE, symObjAddr: 0x0, symBinAddr: 0x17408, symSize: 0x1C }
  - { offset: 0x56353, size: 0x8, addend: 0x0, symName: '__ZN79_$LT$pyo3..exceptions..PyException$u20$as$u20$pyo3..type_object..PyTypeInfo$GT$15type_object_raw28_$u7b$$u7b$closure$u7d$$u7d$17he22c15de79623455E', symObjAddr: 0x4C, symBinAddr: 0x17454, symSize: 0x4C }
  - { offset: 0x5653F, size: 0x8, addend: 0x0, symName: __ZN4pyo311type_object10PyTypeInfo11type_object17h06b44600856389afE, symObjAddr: 0x1C, symBinAddr: 0x17424, symSize: 0x30 }
  - { offset: 0x56C76, size: 0x8, addend: 0x0, symName: __ZN4pyo310exceptions15PyOverflowError7new_err17h1b92d50eca8140abE, symObjAddr: 0x0, symBinAddr: 0x17408, symSize: 0x1C }
  - { offset: 0x56D04, size: 0x8, addend: 0x0, symName: __ZN6_oryon7scalers11FixedZScore11input_names17heeb0d29fbf3877f9E, symObjAddr: 0x0, symBinAddr: 0x174A0, symSize: 0x24 }
  - { offset: 0x56D32, size: 0x8, addend: 0x0, symName: '__ZN6_oryon7scalers176_$LT$impl$u20$pyo3..impl_..pyclass..PyMethods$LT$_oryon..scalers..FixedZScore$GT$$u20$for$u20$pyo3..impl_..pyclass..PyClassImplCollector$LT$_oryon..scalers..FixedZScore$GT$$GT$10py_methods5ITEMS17ha57c7d510cc253a5E', symObjAddr: 0x4AA8, symBinAddr: 0x191088, symSize: 0x0 }
  - { offset: 0x56D44, size: 0x8, addend: 0x0, symName: '__ZN6_oryon7scalers176_$LT$impl$u20$pyo3..impl_..pyclass..PyMethods$LT$_oryon..scalers..FixedZScore$GT$$u20$for$u20$pyo3..impl_..pyclass..PyClassImplCollector$LT$_oryon..scalers..FixedZScore$GT$$GT$10py_methods5ITEMS10trampoline17h3bb0e441a7d1c3d2E', symObjAddr: 0x3280, symBinAddr: 0x1A720, symSize: 0x44 }
  - { offset: 0x56D7E, size: 0x8, addend: 0x0, symName: '__ZN6_oryon7scalers176_$LT$impl$u20$pyo3..impl_..pyclass..PyMethods$LT$_oryon..scalers..FixedZScore$GT$$u20$for$u20$pyo3..impl_..pyclass..PyClassImplCollector$LT$_oryon..scalers..FixedZScore$GT$$GT$10py_methods5ITEMS10trampoline17h3c3cae2ec59c68b3E', symObjAddr: 0x32C4, symBinAddr: 0x1A764, symSize: 0x4C }
  - { offset: 0x56DC6, size: 0x8, addend: 0x0, symName: '__ZN6_oryon7scalers176_$LT$impl$u20$pyo3..impl_..pyclass..PyMethods$LT$_oryon..scalers..FixedZScore$GT$$u20$for$u20$pyo3..impl_..pyclass..PyClassImplCollector$LT$_oryon..scalers..FixedZScore$GT$$GT$10py_methods5ITEMS10trampoline17h526bc8e7200e22f9E', symObjAddr: 0x3310, symBinAddr: 0x1A7B0, symSize: 0x44 }
  - { offset: 0x56E00, size: 0x8, addend: 0x0, symName: '__ZN6_oryon7scalers176_$LT$impl$u20$pyo3..impl_..pyclass..PyMethods$LT$_oryon..scalers..FixedZScore$GT$$u20$for$u20$pyo3..impl_..pyclass..PyClassImplCollector$LT$_oryon..scalers..FixedZScore$GT$$GT$10py_methods5ITEMS10trampoline17h6b178c0c71d209e7E', symObjAddr: 0x3354, symBinAddr: 0x1A7F4, symSize: 0x3C }
  - { offset: 0x56E2C, size: 0x8, addend: 0x0, symName: '__ZN6_oryon7scalers176_$LT$impl$u20$pyo3..impl_..pyclass..PyMethods$LT$_oryon..scalers..FixedZScore$GT$$u20$for$u20$pyo3..impl_..pyclass..PyClassImplCollector$LT$_oryon..scalers..FixedZScore$GT$$GT$10py_methods5ITEMS10trampoline17h7787e4991c716ca7E', symObjAddr: 0x3390, symBinAddr: 0x1A830, symSize: 0x44 }
  - { offset: 0x56E66, size: 0x8, addend: 0x0, symName: '__ZN6_oryon7scalers176_$LT$impl$u20$pyo3..impl_..pyclass..PyMethods$LT$_oryon..scalers..FixedZScore$GT$$u20$for$u20$pyo3..impl_..pyclass..PyClassImplCollector$LT$_oryon..scalers..FixedZScore$GT$$GT$10py_methods5ITEMS10trampoline17h8cb2599c0a7f6a9dE', symObjAddr: 0x33D4, symBinAddr: 0x1A874, symSize: 0x50 }
  - { offset: 0x56EBC, size: 0x8, addend: 0x0, symName: '__ZN6_oryon7scalers176_$LT$impl$u20$pyo3..impl_..pyclass..PyMethods$LT$_oryon..scalers..FixedZScore$GT$$u20$for$u20$pyo3..impl_..pyclass..PyClassImplCollector$LT$_oryon..scalers..FixedZScore$GT$$GT$10py_methods5ITEMS10trampoline17h8f76cb72548bdc57E', symObjAddr: 0x3424, symBinAddr: 0x1A8C4, symSize: 0x44 }
  - { offset: 0x56F10, size: 0x8, addend: 0x0, symName: '__ZN6_oryon7scalers180_$LT$impl$u20$pyo3..impl_..pyclass..PyMethods$LT$_oryon..scalers..RollingZScore$GT$$u20$for$u20$pyo3..impl_..pyclass..PyClassImplCollector$LT$_oryon..scalers..RollingZScore$GT$$GT$10py_methods5ITEMS17hbfcfea1c23450205E', symObjAddr: 0x4C28, symBinAddr: 0x191208, symSize: 0x0 }
  - { offset: 0x56F22, size: 0x8, addend: 0x0, symName: '__ZN6_oryon7scalers180_$LT$impl$u20$pyo3..impl_..pyclass..PyMethods$LT$_oryon..scalers..RollingZScore$GT$$u20$for$u20$pyo3..impl_..pyclass..PyClassImplCollector$LT$_oryon..scalers..RollingZScore$GT$$GT$10py_methods5ITEMS10trampoline17h0c245bfc965192a5E', symObjAddr: 0x3468, symBinAddr: 0x1A908, symSize: 0x44 }
  - { offset: 0x56F5C, size: 0x8, addend: 0x0, symName: '__ZN6_oryon7scalers180_$LT$impl$u20$pyo3..impl_..pyclass..PyMethods$LT$_oryon..scalers..RollingZScore$GT$$u20$for$u20$pyo3..impl_..pyclass..PyClassImplCollector$LT$_oryon..scalers..RollingZScore$GT$$GT$10py_methods5ITEMS10trampoline17h1eccea0c322df499E', symObjAddr: 0x34AC, symBinAddr: 0x1A94C, symSize: 0x44 }
  - { offset: 0x56F96, size: 0x8, addend: 0x0, symName: '__ZN6_oryon7scalers180_$LT$impl$u20$pyo3..impl_..pyclass..PyMethods$LT$_oryon..scalers..RollingZScore$GT$$u20$for$u20$pyo3..impl_..pyclass..PyClassImplCollector$LT$_oryon..scalers..RollingZScore$GT$$GT$10py_methods5ITEMS10trampoline17h43dd011e7749ce87E', symObjAddr: 0x34F0, symBinAddr: 0x1A990, symSize: 0x4C }
  - { offset: 0x56FDE, size: 0x8, addend: 0x0, symName: '__ZN6_oryon7scalers180_$LT$impl$u20$pyo3..impl_..pyclass..PyMethods$LT$_oryon..scalers..RollingZScore$GT$$u20$for$u20$pyo3..impl_..pyclass..PyClassImplCollector$LT$_oryon..scalers..RollingZScore$GT$$GT$10py_methods5ITEMS10trampoline17ha07526cc33578f26E', symObjAddr: 0x353C, symBinAddr: 0x1A9DC, symSize: 0x44 }
  - { offset: 0x57018, size: 0x8, addend: 0x0, symName: '__ZN6_oryon7scalers180_$LT$impl$u20$pyo3..impl_..pyclass..PyMethods$LT$_oryon..scalers..RollingZScore$GT$$u20$for$u20$pyo3..impl_..pyclass..PyClassImplCollector$LT$_oryon..scalers..RollingZScore$GT$$GT$10py_methods5ITEMS10trampoline17ha9e2a00054638122E', symObjAddr: 0x3580, symBinAddr: 0x1AA20, symSize: 0x3C }
  - { offset: 0x57044, size: 0x8, addend: 0x0, symName: '__ZN6_oryon7scalers180_$LT$impl$u20$pyo3..impl_..pyclass..PyMethods$LT$_oryon..scalers..RollingZScore$GT$$u20$for$u20$pyo3..impl_..pyclass..PyClassImplCollector$LT$_oryon..scalers..RollingZScore$GT$$GT$10py_methods5ITEMS10trampoline17hb6b3b0745c5a85c5E', symObjAddr: 0x35BC, symBinAddr: 0x1AA5C, symSize: 0x50 }
  - { offset: 0x5709A, size: 0x8, addend: 0x0, symName: '__ZN6_oryon7scalers180_$LT$impl$u20$pyo3..impl_..pyclass..PyMethods$LT$_oryon..scalers..RollingZScore$GT$$u20$for$u20$pyo3..impl_..pyclass..PyClassImplCollector$LT$_oryon..scalers..RollingZScore$GT$$GT$10py_methods5ITEMS10trampoline17hc3dbea11523c5a1aE', symObjAddr: 0x360C, symBinAddr: 0x1AAAC, symSize: 0x44 }
  - { offset: 0x570EE, size: 0x8, addend: 0x0, symName: '__ZN82_$LT$_oryon..scalers..FixedZScore$u20$as$u20$pyo3..impl_..pyclass..PyClassImpl$GT$10items_iter15INTRINSIC_ITEMS17h8b65b4c55a0f825fE', symObjAddr: 0x4D48, symBinAddr: 0x124B48, symSize: 0x0 }
  - { offset: 0x5710E, size: 0x8, addend: 0x0, symName: '__ZN82_$LT$_oryon..scalers..FixedZScore$u20$as$u20$pyo3..impl_..pyclass..PyClassImpl$GT$16lazy_type_object11TYPE_OBJECT17h4a736bb9d4b5cd5eE', symObjAddr: 0x4D90, symBinAddr: 0x19C518, symSize: 0x0 }
  - { offset: 0x5712E, size: 0x8, addend: 0x0, symName: '__ZN82_$LT$_oryon..scalers..FixedZScore$u20$as$u20$pyo3..impl_..pyclass..PyClassImpl$GT$3doc3DOC17h2b5364eb180f9ed4E', symObjAddr: 0x4DE8, symBinAddr: 0x19C570, symSize: 0x0 }
  - { offset: 0x5713C, size: 0x8, addend: 0x0, symName: '__ZN82_$LT$_oryon..scalers..FixedZScore$u20$as$u20$pyo3..impl_..pyclass..PyClassImpl$GT$10items_iter17ha7ea294cc13a49d8E', symObjAddr: 0x3B94, symBinAddr: 0x1B034, symSize: 0x38 }
  - { offset: 0x57177, size: 0x8, addend: 0x0, symName: '__ZN82_$LT$_oryon..scalers..FixedZScore$u20$as$u20$pyo3..impl_..pyclass..PyClassImpl$GT$16lazy_type_object17h458f938c73a691d2E', symObjAddr: 0x3BCC, symBinAddr: 0x1B06C, symSize: 0xC }
  - { offset: 0x57194, size: 0x8, addend: 0x0, symName: '__ZN82_$LT$_oryon..scalers..FixedZScore$u20$as$u20$pyo3..impl_..pyclass..PyClassImpl$GT$3doc17h264e22586c95f83cE', symObjAddr: 0x3BD8, symBinAddr: 0x1B078, symSize: 0x3C }
  - { offset: 0x5736A, size: 0x8, addend: 0x0, symName: '__ZN84_$LT$_oryon..scalers..RollingZScore$u20$as$u20$pyo3..impl_..pyclass..PyClassImpl$GT$10items_iter15INTRINSIC_ITEMS17h7182b4c47abe171bE', symObjAddr: 0x4D68, symBinAddr: 0x124B68, symSize: 0x0 }
  - { offset: 0x5738A, size: 0x8, addend: 0x0, symName: '__ZN84_$LT$_oryon..scalers..RollingZScore$u20$as$u20$pyo3..impl_..pyclass..PyClassImpl$GT$16lazy_type_object11TYPE_OBJECT17he5b2e03a05a37a05E', symObjAddr: 0x4E08, symBinAddr: 0x19C590, symSize: 0x0 }
  - { offset: 0x573AA, size: 0x8, addend: 0x0, symName: '__ZN84_$LT$_oryon..scalers..RollingZScore$u20$as$u20$pyo3..impl_..pyclass..PyClassImpl$GT$3doc3DOC17hafac12119400ea12E', symObjAddr: 0x4E60, symBinAddr: 0x19C5E8, symSize: 0x0 }
  - { offset: 0x573B8, size: 0x8, addend: 0x0, symName: '__ZN84_$LT$_oryon..scalers..RollingZScore$u20$as$u20$pyo3..impl_..pyclass..PyClassImpl$GT$10items_iter17h833b6c37def29cadE', symObjAddr: 0x3C14, symBinAddr: 0x1B0B4, symSize: 0x38 }
  - { offset: 0x573F3, size: 0x8, addend: 0x0, symName: '__ZN84_$LT$_oryon..scalers..RollingZScore$u20$as$u20$pyo3..impl_..pyclass..PyClassImpl$GT$16lazy_type_object17h2a75b609c2026a4dE', symObjAddr: 0x3C4C, symBinAddr: 0x1B0EC, symSize: 0xC }
  - { offset: 0x57410, size: 0x8, addend: 0x0, symName: '__ZN84_$LT$_oryon..scalers..RollingZScore$u20$as$u20$pyo3..impl_..pyclass..PyClassImpl$GT$3doc17hba7e78ce14b3ba3aE', symObjAddr: 0x3C58, symBinAddr: 0x1B0F8, symSize: 0x3C }
  - { offset: 0x575CA, size: 0x8, addend: 0x0, symName: __ZN6_oryon7scalers19fit_standard_scaler17hf73cab54e52a1383E, symObjAddr: 0x3650, symBinAddr: 0x1AAF0, symSize: 0x180 }
  - { offset: 0x57649, size: 0x8, addend: 0x0, symName: __ZN6_oryon7scalers32__pyfunction_fit_standard_scaler17h132ba5452afe3a2eE, symObjAddr: 0x37D0, symBinAddr: 0x1AC70, symSize: 0x32C }
  - { offset: 0x577CC, size: 0x8, addend: 0x0, symName: '__ZN6_oryon7scalers63_$LT$impl$u20$_oryon..scalers..fit_standard_scaler..MakeDef$GT$9_PYO3_DEF10trampoline17ha8e5524cb1cc41aeE', symObjAddr: 0x3AFC, symBinAddr: 0x1AF9C, symSize: 0x50 }
  - { offset: 0x57829, size: 0x8, addend: 0x0, symName: '__ZN78_$LT$_oryon..scalers..FixedZScore$u20$as$u20$pyo3..type_object..PyTypeInfo$GT$15type_object_raw17h043ab4f1307e7144E', symObjAddr: 0x3B4C, symBinAddr: 0x1AFEC, symSize: 0x24 }
  - { offset: 0x57866, size: 0x8, addend: 0x0, symName: '__ZN80_$LT$_oryon..scalers..RollingZScore$u20$as$u20$pyo3..type_object..PyTypeInfo$GT$15type_object_raw17h062fcf62135284f0E', symObjAddr: 0x3B70, symBinAddr: 0x1B010, symSize: 0x24 }
  - { offset: 0x5B070, size: 0x8, addend: 0x0, symName: __ZN6_oryon7scalers11FixedZScore11input_names17heeb0d29fbf3877f9E, symObjAddr: 0x0, symBinAddr: 0x174A0, symSize: 0x24 }
  - { offset: 0x5B092, size: 0x8, addend: 0x0, symName: __ZN6_oryon7scalers11FixedZScore12output_names17hb4d718f8bd8b49f9E, symObjAddr: 0x24, symBinAddr: 0x174C4, symSize: 0x24 }
  - { offset: 0x5B0B4, size: 0x8, addend: 0x0, symName: __ZN6_oryon7scalers11FixedZScore14warm_up_period17h2cf1314de5ed9753E, symObjAddr: 0x48, symBinAddr: 0x174E8, symSize: 0x24 }
  - { offset: 0x5B0D6, size: 0x8, addend: 0x0, symName: __ZN6_oryon7scalers11FixedZScore18__pymethod_reset__17hbaa678d9807e056dE, symObjAddr: 0x6C, symBinAddr: 0x1750C, symSize: 0x1E8 }
  - { offset: 0x5B1C6, size: 0x8, addend: 0x0, symName: __ZN6_oryon7scalers11FixedZScore19__pymethod_update__17h7aea7455682c4d40E, symObjAddr: 0x254, symBinAddr: 0x176F4, symSize: 0x418 }
  - { offset: 0x5B359, size: 0x8, addend: 0x0, symName: __ZN6_oryon7scalers11FixedZScore20__pymethod___new____17h33481f41679e2688E, symObjAddr: 0x66C, symBinAddr: 0x17B0C, symSize: 0x714 }
  - { offset: 0x5B5A1, size: 0x8, addend: 0x0, symName: __ZN6_oryon7scalers11FixedZScore21__pymethod___repr____17h0d02d39dcd5fb778E, symObjAddr: 0xD80, symBinAddr: 0x18220, symSize: 0x178 }
  - { offset: 0x5B65B, size: 0x8, addend: 0x0, symName: __ZN6_oryon7scalers11FixedZScore24__pymethod_input_names__17hbc1d2b89edbb0797E, symObjAddr: 0xEF8, symBinAddr: 0x18398, symSize: 0x290 }
  - { offset: 0x5B743, size: 0x8, addend: 0x0, symName: __ZN6_oryon7scalers11FixedZScore25__pymethod_output_names__17h2cd8a90173b62ef3E, symObjAddr: 0x1188, symBinAddr: 0x18628, symSize: 0x290 }
  - { offset: 0x5B82B, size: 0x8, addend: 0x0, symName: __ZN6_oryon7scalers11FixedZScore27__pymethod_warm_up_period__17h91741dc16c337c95E, symObjAddr: 0x1418, symBinAddr: 0x188B8, symSize: 0x214 }
  - { offset: 0x5B91B, size: 0x8, addend: 0x0, symName: __ZN6_oryon7scalers11FixedZScore3new17h20fb2895ec024652E, symObjAddr: 0x162C, symBinAddr: 0x18ACC, symSize: 0x13C }
  - { offset: 0x5B9D2, size: 0x8, addend: 0x0, symName: __ZN6_oryon7scalers11FixedZScore5reset17h00a0c9a74de71a4dE, symObjAddr: 0x1768, symBinAddr: 0x18C08, symSize: 0x24 }
  - { offset: 0x5B9F4, size: 0x8, addend: 0x0, symName: __ZN6_oryon7scalers11FixedZScore6update17h7721c8fce9c15ed6E, symObjAddr: 0x178C, symBinAddr: 0x18C2C, symSize: 0x128 }
  - { offset: 0x5BA25, size: 0x8, addend: 0x0, symName: __ZN6_oryon7scalers11FixedZScore8__repr__17hd7e2b0c642ac86d9E, symObjAddr: 0x18B4, symBinAddr: 0x18D54, symSize: 0x11C }
  - { offset: 0x5BAA4, size: 0x8, addend: 0x0, symName: __ZN6_oryon7scalers13RollingZScore11input_names17h86ae4876e838e8c8E, symObjAddr: 0x19D0, symBinAddr: 0x18E70, symSize: 0x24 }
  - { offset: 0x5BAC6, size: 0x8, addend: 0x0, symName: __ZN6_oryon7scalers13RollingZScore12output_names17hfb16fc3fbdbd756bE, symObjAddr: 0x19F4, symBinAddr: 0x18E94, symSize: 0x24 }
  - { offset: 0x5BAE8, size: 0x8, addend: 0x0, symName: __ZN6_oryon7scalers13RollingZScore14warm_up_period17he2ffdf3e087f6d0cE, symObjAddr: 0x1A18, symBinAddr: 0x18EB8, symSize: 0x24 }
  - { offset: 0x5BB0A, size: 0x8, addend: 0x0, symName: __ZN6_oryon7scalers13RollingZScore18__pymethod_reset__17h717131fad9199786E, symObjAddr: 0x1A3C, symBinAddr: 0x18EDC, symSize: 0x1E8 }
  - { offset: 0x5BBFA, size: 0x8, addend: 0x0, symName: __ZN6_oryon7scalers13RollingZScore19__pymethod_update__17h5aef299fd14cd001E, symObjAddr: 0x1C24, symBinAddr: 0x190C4, symSize: 0x418 }
  - { offset: 0x5BD8D, size: 0x8, addend: 0x0, symName: __ZN6_oryon7scalers13RollingZScore20__pymethod___new____17h7b04e13847f96b5eE, symObjAddr: 0x203C, symBinAddr: 0x194DC, symSize: 0x594 }
  - { offset: 0x5BF83, size: 0x8, addend: 0x0, symName: __ZN6_oryon7scalers13RollingZScore21__pymethod___repr____17hbd539c122f5e73c7E, symObjAddr: 0x25D0, symBinAddr: 0x19A70, symSize: 0x178 }
  - { offset: 0x5C03D, size: 0x8, addend: 0x0, symName: __ZN6_oryon7scalers13RollingZScore24__pymethod_input_names__17hcca048a9bccb9b3dE, symObjAddr: 0x2748, symBinAddr: 0x19BE8, symSize: 0x290 }
  - { offset: 0x5C125, size: 0x8, addend: 0x0, symName: __ZN6_oryon7scalers13RollingZScore25__pymethod_output_names__17h0a5da3f7eee8fa4bE, symObjAddr: 0x29D8, symBinAddr: 0x19E78, symSize: 0x290 }
  - { offset: 0x5C20D, size: 0x8, addend: 0x0, symName: __ZN6_oryon7scalers13RollingZScore27__pymethod_warm_up_period__17h82b05408bf004de9E, symObjAddr: 0x2C68, symBinAddr: 0x1A108, symSize: 0x214 }
  - { offset: 0x5C2FD, size: 0x8, addend: 0x0, symName: __ZN6_oryon7scalers13RollingZScore3new17hbfc8ce67101e3e10E, symObjAddr: 0x2E7C, symBinAddr: 0x1A31C, symSize: 0x130 }
  - { offset: 0x5C387, size: 0x8, addend: 0x0, symName: __ZN6_oryon7scalers13RollingZScore5reset17h11a0ebdd32e97ff5E, symObjAddr: 0x2FAC, symBinAddr: 0x1A44C, symSize: 0x24 }
  - { offset: 0x5C3A9, size: 0x8, addend: 0x0, symName: __ZN6_oryon7scalers13RollingZScore6update17h8436448a696e2fdeE, symObjAddr: 0x2FD0, symBinAddr: 0x1A470, symSize: 0x128 }
  - { offset: 0x5C3DA, size: 0x8, addend: 0x0, symName: __ZN6_oryon7scalers13RollingZScore8__repr__17hbe6b2e5a972fba55E, symObjAddr: 0x30F8, symBinAddr: 0x1A598, symSize: 0x188 }
  - { offset: 0x5C745, size: 0x8, addend: 0x0, symName: __ZN4core3ptr5write17h0fb36f742c043aadE, symObjAddr: 0x0, symBinAddr: 0x1B134, symSize: 0x2C }
  - { offset: 0x5CC8B, size: 0x8, addend: 0x0, symName: __ZN4core3ptr5write17h0fb36f742c043aadE, symObjAddr: 0x0, symBinAddr: 0x1B134, symSize: 0x2C }
  - { offset: 0x5CCCE, size: 0x8, addend: 0x0, symName: __ZN4core3ptr5write17h31369a56248182b4E, symObjAddr: 0x2C, symBinAddr: 0x1B160, symSize: 0x2C }
  - { offset: 0x5CD11, size: 0x8, addend: 0x0, symName: __ZN4core3ptr5write17h3210039f5f9b2bc7E, symObjAddr: 0x58, symBinAddr: 0x1B18C, symSize: 0x2C }
  - { offset: 0x5CD54, size: 0x8, addend: 0x0, symName: __ZN4core3ptr5write17h323382396c7dd35dE, symObjAddr: 0x84, symBinAddr: 0x1B1B8, symSize: 0x2C }
  - { offset: 0x5CD97, size: 0x8, addend: 0x0, symName: __ZN4core3ptr5write17h42b44b47d98c0816E, symObjAddr: 0xB0, symBinAddr: 0x1B1E4, symSize: 0x2C }
  - { offset: 0x5CDDA, size: 0x8, addend: 0x0, symName: __ZN4core3ptr5write17h43f8f45bfd4689eaE, symObjAddr: 0xDC, symBinAddr: 0x1B210, symSize: 0x2C }
  - { offset: 0x5CE1D, size: 0x8, addend: 0x0, symName: __ZN4core3ptr5write17h4403440e7f21fa35E, symObjAddr: 0x108, symBinAddr: 0x1B23C, symSize: 0x2C }
  - { offset: 0x5CE60, size: 0x8, addend: 0x0, symName: __ZN4core3ptr5write17h4d5d1afe6aa590c2E, symObjAddr: 0x134, symBinAddr: 0x1B268, symSize: 0x2C }
  - { offset: 0x5CEA3, size: 0x8, addend: 0x0, symName: __ZN4core3ptr5write17h4f5e13f09c446cd8E, symObjAddr: 0x160, symBinAddr: 0x1B294, symSize: 0x2C }
  - { offset: 0x5CEE6, size: 0x8, addend: 0x0, symName: __ZN4core3ptr5write17h5e6015deca063f33E, symObjAddr: 0x18C, symBinAddr: 0x1B2C0, symSize: 0x2C }
  - { offset: 0x5CF29, size: 0x8, addend: 0x0, symName: __ZN4core3ptr5write17h835e5b46b9d5ec85E, symObjAddr: 0x1B8, symBinAddr: 0x1B2EC, symSize: 0x2C }
  - { offset: 0x5CF6C, size: 0x8, addend: 0x0, symName: __ZN4core3ptr5write17h99aeb94e7b5b80e8E, symObjAddr: 0x1E4, symBinAddr: 0x1B318, symSize: 0x2C }
  - { offset: 0x5CFAF, size: 0x8, addend: 0x0, symName: __ZN4core3ptr5write17haa6d162320575cecE, symObjAddr: 0x210, symBinAddr: 0x1B344, symSize: 0x2C }
  - { offset: 0x5CFF2, size: 0x8, addend: 0x0, symName: __ZN4core3ptr5write17hab256e3c3e445f28E, symObjAddr: 0x23C, symBinAddr: 0x1B370, symSize: 0x2C }
  - { offset: 0x5D035, size: 0x8, addend: 0x0, symName: __ZN4core3ptr5write17hb79ae141f612a530E, symObjAddr: 0x268, symBinAddr: 0x1B39C, symSize: 0x2C }
  - { offset: 0x5D078, size: 0x8, addend: 0x0, symName: __ZN4core3ptr5write17hcee29c00475d705aE, symObjAddr: 0x294, symBinAddr: 0x1B3C8, symSize: 0x2C }
  - { offset: 0x5D0BB, size: 0x8, addend: 0x0, symName: __ZN4core3ptr5write17hcf84f5bcd62f5dffE, symObjAddr: 0x2C0, symBinAddr: 0x1B3F4, symSize: 0x2C }
  - { offset: 0x5D0FE, size: 0x8, addend: 0x0, symName: __ZN4core3ptr5write17he0a651b2d6fe8c44E, symObjAddr: 0x2EC, symBinAddr: 0x1B420, symSize: 0x2C }
  - { offset: 0x5D141, size: 0x8, addend: 0x0, symName: __ZN4core3ptr5write17he4d390d59ddbd271E, symObjAddr: 0x318, symBinAddr: 0x1B44C, symSize: 0x2C }
  - { offset: 0x5D184, size: 0x8, addend: 0x0, symName: __ZN4core3ptr5write17heda66ada45d16392E, symObjAddr: 0x344, symBinAddr: 0x1B478, symSize: 0x2C }
  - { offset: 0x5D1C7, size: 0x8, addend: 0x0, symName: __ZN4core3ptr5write17hfd3ec5d810901787E, symObjAddr: 0x370, symBinAddr: 0x1B4A4, symSize: 0x2C }
  - { offset: 0x5EE49, size: 0x8, addend: 0x0, symName: '__ZN68_$LT$_oryon..OryonError$u20$as$u20$pyo3..type_object..PyTypeInfo$GT$15type_object_raw17h8d4e1bde869ea345E', symObjAddr: 0x0, symBinAddr: 0x1B4D0, symSize: 0x1C }
  - { offset: 0x5EE72, size: 0x8, addend: 0x0, symName: __ZN6_oryon10OryonError15type_object_raw11TYPE_OBJECT17hac5041982a8b0b39E, symObjAddr: 0x3190, symBinAddr: 0x19C608, symSize: 0x0 }
  - { offset: 0x5EE98, size: 0x8, addend: 0x0, symName: __ZN6_oryon17InvalidInputError15type_object_raw11TYPE_OBJECT17hd1cec2ce70763401E, symObjAddr: 0x31A0, symBinAddr: 0x19C618, symSize: 0x0 }
  - { offset: 0x5EEBE, size: 0x8, addend: 0x0, symName: __ZN6_oryon18InvalidConfigError15type_object_raw11TYPE_OBJECT17hcc000f38b8e9b81fE, symObjAddr: 0x31B0, symBinAddr: 0x19C628, symSize: 0x0 }
  - { offset: 0x5EEE4, size: 0x8, addend: 0x0, symName: __ZN6_oryon21CyclicDependencyError15type_object_raw11TYPE_OBJECT17h27fa527522c0fc78E, symObjAddr: 0x31C0, symBinAddr: 0x19C638, symSize: 0x0 }
  - { offset: 0x5EF0A, size: 0x8, addend: 0x0, symName: __ZN6_oryon23DuplicateOutputKeyError15type_object_raw11TYPE_OBJECT17h07bc5532e1f952a1E, symObjAddr: 0x31D0, symBinAddr: 0x19C648, symSize: 0x0 }
  - { offset: 0x5EF30, size: 0x8, addend: 0x0, symName: __ZN6_oryon23MissingInputColumnError15type_object_raw11TYPE_OBJECT17h8a92a365bc097f02E, symObjAddr: 0x31E0, symBinAddr: 0x19C658, symSize: 0x0 }
  - { offset: 0x5EF44, size: 0x8, addend: 0x0, symName: '__ZN68_$LT$_oryon..OryonError$u20$as$u20$pyo3..type_object..PyTypeInfo$GT$15type_object_raw17h8d4e1bde869ea345E', symObjAddr: 0x0, symBinAddr: 0x1B4D0, symSize: 0x1C }
  - { offset: 0x5EFA6, size: 0x8, addend: 0x0, symName: __ZN6_oryon14extract_target17hfe2db8eed1db537aE, symObjAddr: 0x48, symBinAddr: 0x1B518, symSize: 0x92C }
  - { offset: 0x5F13F, size: 0x8, addend: 0x0, symName: __ZN6_oryon15extract_feature17h553015ca546c54dbE, symObjAddr: 0x974, symBinAddr: 0x1BE44, symSize: 0xF90 }
  - { offset: 0x5F436, size: 0x8, addend: 0x0, symName: '__ZN6_oryon41_$LT$impl$u20$_oryon.._oryon..MakeDef$GT$8make_def15__pyo3_pymodule17h674eb0c16bcb9e51E', symObjAddr: 0x19E0, symBinAddr: 0x1CEB0, symSize: 0x38 }
  - { offset: 0x5F464, size: 0x8, addend: 0x0, symName: __ZN6_oryon6_oryon17h58fd7de17ebd4032E, symObjAddr: 0x1A18, symBinAddr: 0x1CEE8, symSize: 0xF58 }
  - { offset: 0x5F7F7, size: 0x8, addend: 0x0, symName: __ZN6_oryon7to_rust17h635f106a6068fbf3E, symObjAddr: 0x2970, symBinAddr: 0x1DE40, symSize: 0x38 }
  - { offset: 0x5F823, size: 0x8, addend: 0x0, symName: __ZN6_oryon9oryon_err17h0d5bf21d829e7412E, symObjAddr: 0x29A8, symBinAddr: 0x1DE78, symSize: 0x2D0 }
  - { offset: 0x5F97C, size: 0x8, addend: 0x0, symName: __ZN6_oryon9to_python17h2b434ed9445e5826E, symObjAddr: 0x2C78, symBinAddr: 0x1E148, symSize: 0x38 }
  - { offset: 0x5F9AD, size: 0x8, addend: 0x0, symName: '__ZN75_$LT$_oryon..InvalidInputError$u20$as$u20$pyo3..type_object..PyTypeInfo$GT$15type_object_raw17h774fd61abdbacb1eE', symObjAddr: 0x2CB0, symBinAddr: 0x1E180, symSize: 0x1C }
  - { offset: 0x5F9EA, size: 0x8, addend: 0x0, symName: '__ZN76_$LT$_oryon..InvalidConfigError$u20$as$u20$pyo3..type_object..PyTypeInfo$GT$15type_object_raw17h4ec9dd9a21897b9aE', symObjAddr: 0x2CCC, symBinAddr: 0x1E19C, symSize: 0x1C }
  - { offset: 0x5FA27, size: 0x8, addend: 0x0, symName: '__ZN79_$LT$_oryon..CyclicDependencyError$u20$as$u20$pyo3..type_object..PyTypeInfo$GT$15type_object_raw17h325d31fdf2e6c941E', symObjAddr: 0x2CE8, symBinAddr: 0x1E1B8, symSize: 0x1C }
  - { offset: 0x5FA64, size: 0x8, addend: 0x0, symName: '__ZN81_$LT$_oryon..DuplicateOutputKeyError$u20$as$u20$pyo3..type_object..PyTypeInfo$GT$15type_object_raw17hcbc202885aa4be66E', symObjAddr: 0x2D04, symBinAddr: 0x1E1D4, symSize: 0x1C }
  - { offset: 0x5FAA1, size: 0x8, addend: 0x0, symName: '__ZN81_$LT$_oryon..MissingInputColumnError$u20$as$u20$pyo3..type_object..PyTypeInfo$GT$15type_object_raw17hfee89fb310aae610E', symObjAddr: 0x2D20, symBinAddr: 0x1E1F0, symSize: 0x1C }
  - { offset: 0x6374D, size: 0x8, addend: 0x0, symName: __ZN6_oryon10OryonError15type_object_raw17h9fd11613bf99f817E, symObjAddr: 0x1C, symBinAddr: 0x1B4EC, symSize: 0x2C }
  - { offset: 0x637A1, size: 0x8, addend: 0x0, symName: __ZN6_oryon17InvalidInputError15type_object_raw17h1416323ef427fec8E, symObjAddr: 0x1904, symBinAddr: 0x1CDD4, symSize: 0x2C }
  - { offset: 0x637CE, size: 0x8, addend: 0x0, symName: __ZN6_oryon18InvalidConfigError15type_object_raw17haf6a12326ab6394dE, symObjAddr: 0x1930, symBinAddr: 0x1CE00, symSize: 0x2C }
  - { offset: 0x637FB, size: 0x8, addend: 0x0, symName: __ZN6_oryon21CyclicDependencyError15type_object_raw17h9d5c6be859d12af4E, symObjAddr: 0x195C, symBinAddr: 0x1CE2C, symSize: 0x2C }
  - { offset: 0x63828, size: 0x8, addend: 0x0, symName: __ZN6_oryon23DuplicateOutputKeyError15type_object_raw17h0c6d7b322be4780dE, symObjAddr: 0x1988, symBinAddr: 0x1CE58, symSize: 0x2C }
  - { offset: 0x63855, size: 0x8, addend: 0x0, symName: __ZN6_oryon23MissingInputColumnError15type_object_raw17hbf25152546712ef1E, symObjAddr: 0x19B4, symBinAddr: 0x1CE84, symSize: 0x2C }
  - { offset: 0x63B76, size: 0x8, addend: 0x0, symName: __ZN3std4sync4once4Once15call_once_force17h7bdf49d731b31146E, symObjAddr: 0x0, symBinAddr: 0x1E20C, symSize: 0xEC }
  - { offset: 0x63BAA, size: 0x8, addend: 0x0, symName: '__ZN3std4sync4once4Once15call_once_force28_$u7b$$u7b$closure$u7d$$u7d$17h6678077f67597039E', symObjAddr: 0xEC, symBinAddr: 0x1E2F8, symSize: 0x84 }
  - { offset: 0x64239, size: 0x8, addend: 0x0, symName: __ZN3std4sync4once4Once15call_once_force17h7bdf49d731b31146E, symObjAddr: 0x0, symBinAddr: 0x1E20C, symSize: 0xEC }
  - { offset: 0x64385, size: 0x8, addend: 0x0, symName: '__ZN4core3ptr7mut_ptr31_$LT$impl$u20$$BP$mut$u20$T$GT$6offset18precondition_check17hbfd7164af7aeab6cE', symObjAddr: 0x0, symBinAddr: 0x1E37C, symSize: 0xC4 }
  - { offset: 0x6443B, size: 0x8, addend: 0x0, symName: '__ZN4core3ptr7mut_ptr31_$LT$impl$u20$$BP$mut$u20$T$GT$6offset18precondition_check17hbfd7164af7aeab6cE', symObjAddr: 0x0, symBinAddr: 0x1E37C, symSize: 0xC4 }
  - { offset: 0x6482E, size: 0x8, addend: 0x0, symName: '__ZN73_$LT$pyo3..types..any..PyAny$u20$as$u20$pyo3..type_object..PyTypeInfo$GT$15type_object_raw17h5dd2acc5009d8b95E', symObjAddr: 0x0, symBinAddr: 0x1E440, symSize: 0x24 }
  - { offset: 0x65921, size: 0x8, addend: 0x0, symName: '__ZN73_$LT$pyo3..types..any..PyAny$u20$as$u20$pyo3..type_object..PyTypeInfo$GT$15type_object_raw17h5dd2acc5009d8b95E', symObjAddr: 0x0, symBinAddr: 0x1E440, symSize: 0x24 }
  - { offset: 0x65E93, size: 0x8, addend: 0x0, symName: __ZN4pyo35impl_10trampoline10trampoline17h468cc6598e5860beE, symObjAddr: 0x0, symBinAddr: 0x1E464, symSize: 0x158 }
  - { offset: 0x67491, size: 0x8, addend: 0x0, symName: __ZN4pyo35impl_10trampoline10trampoline17h468cc6598e5860beE, symObjAddr: 0x0, symBinAddr: 0x1E464, symSize: 0x158 }
  - { offset: 0x67534, size: 0x8, addend: 0x0, symName: __ZN4pyo35impl_10trampoline10trampoline17h565e2989f0564838E, symObjAddr: 0x158, symBinAddr: 0x1E5BC, symSize: 0x14C }
  - { offset: 0x675D6, size: 0x8, addend: 0x0, symName: __ZN4pyo35impl_10trampoline10trampoline17h885d1ad9a827eb9bE, symObjAddr: 0x2A4, symBinAddr: 0x1E708, symSize: 0x158 }
  - { offset: 0x67679, size: 0x8, addend: 0x0, symName: __ZN4pyo35impl_10trampoline10trampoline17h97e3af590db0748dE, symObjAddr: 0x3FC, symBinAddr: 0x1E860, symSize: 0x160 }
  - { offset: 0x6771D, size: 0x8, addend: 0x0, symName: __ZN4pyo35impl_10trampoline10trampoline17ha3b29de6cd3bd36bE, symObjAddr: 0x55C, symBinAddr: 0x1E9C0, symSize: 0x15C }
  - { offset: 0x677C0, size: 0x8, addend: 0x0, symName: __ZN4pyo35impl_10trampoline10trampoline17hfe7869dc8d2e1080E, symObjAddr: 0x6B8, symBinAddr: 0x1EB1C, symSize: 0x158 }
  - { offset: 0x67868, size: 0x8, addend: 0x0, symName: '__ZN4pyo35impl_10trampoline10trampoline28_$u7b$$u7b$closure$u7d$$u7d$17h0e1b95ad6d3feec8E', symObjAddr: 0x810, symBinAddr: 0x1EC74, symSize: 0x2C }
  - { offset: 0x678B6, size: 0x8, addend: 0x0, symName: '__ZN4pyo35impl_10trampoline10trampoline28_$u7b$$u7b$closure$u7d$$u7d$17h65f3311334b87825E', symObjAddr: 0x83C, symBinAddr: 0x1ECA0, symSize: 0x40 }
  - { offset: 0x67905, size: 0x8, addend: 0x0, symName: '__ZN4pyo35impl_10trampoline10trampoline28_$u7b$$u7b$closure$u7d$$u7d$17h66b0e75f9da30631E', symObjAddr: 0x87C, symBinAddr: 0x1ECE0, symSize: 0x2C }
  - { offset: 0x67953, size: 0x8, addend: 0x0, symName: '__ZN4pyo35impl_10trampoline10trampoline28_$u7b$$u7b$closure$u7d$$u7d$17h89275e4c17c9e0d1E', symObjAddr: 0x8A8, symBinAddr: 0x1ED0C, symSize: 0x24 }
  - { offset: 0x679A1, size: 0x8, addend: 0x0, symName: '__ZN4pyo35impl_10trampoline10trampoline28_$u7b$$u7b$closure$u7d$$u7d$17ha45beaf82aaf598bE', symObjAddr: 0x8CC, symBinAddr: 0x1ED30, symSize: 0x2C }
  - { offset: 0x679EF, size: 0x8, addend: 0x0, symName: '__ZN4pyo35impl_10trampoline10trampoline28_$u7b$$u7b$closure$u7d$$u7d$17ha9f0ec679fc01f48E', symObjAddr: 0x8F8, symBinAddr: 0x1ED5C, symSize: 0x34 }
  - { offset: 0x67A44, size: 0x8, addend: 0x0, symName: '__ZN4pyo35impl_10trampoline11module_init28_$u7b$$u7b$closure$u7d$$u7d$17hf6330dfb3b56ef53E', symObjAddr: 0x92C, symBinAddr: 0x1ED90, symSize: 0x40 }
  - { offset: 0x67A90, size: 0x8, addend: 0x0, symName: '__ZN4pyo35impl_10trampoline11module_init28_$u7b$$u7b$closure$u7d$$u7d$28_$u7b$$u7b$closure$u7d$$u7d$17h83454a69073e855bE', symObjAddr: 0x96C, symBinAddr: 0x1EDD0, symSize: 0x24 }
  - { offset: 0x67AE2, size: 0x8, addend: 0x0, symName: __ZN4pyo35impl_10trampoline21trampoline_unraisable17h3c14f77145162096E, symObjAddr: 0x990, symBinAddr: 0x1EDF4, symSize: 0x218 }
  - { offset: 0x67B85, size: 0x8, addend: 0x0, symName: '__ZN4pyo35impl_10trampoline21trampoline_unraisable28_$u7b$$u7b$closure$u7d$$u7d$17h079e9ca8d7654139E', symObjAddr: 0xBA8, symBinAddr: 0x1F00C, symSize: 0x2C }
  - { offset: 0x67BCA, size: 0x8, addend: 0x0, symName: '__ZN4pyo35impl_10trampoline21trampoline_unraisable28_$u7b$$u7b$closure$u7d$$u7d$17h49f1d7ac9e1abfc6E', symObjAddr: 0xBD4, symBinAddr: 0x1F038, symSize: 0x5C }
  - { offset: 0x67C16, size: 0x8, addend: 0x0, symName: '__ZN4pyo35impl_10trampoline22fastcall_with_keywords28_$u7b$$u7b$closure$u7d$$u7d$17h3fc4724e26283a68E', symObjAddr: 0xC30, symBinAddr: 0x1F094, symSize: 0x48 }
  - { offset: 0x67CDD, size: 0x8, addend: 0x0, symName: __ZN4pyo35impl_10trampoline33panic_result_into_callback_output17h45c74f5cabec7c96E, symObjAddr: 0xC78, symBinAddr: 0x1F0DC, symSize: 0x118 }
  - { offset: 0x67DA6, size: 0x8, addend: 0x0, symName: '__ZN4pyo35impl_10trampoline6noargs28_$u7b$$u7b$closure$u7d$$u7d$17h1476ff85e9f4f4b7E', symObjAddr: 0xD90, symBinAddr: 0x1F1F4, symSize: 0x34 }
  - { offset: 0x67E23, size: 0x8, addend: 0x0, symName: '__ZN4pyo35impl_10trampoline7dealloc28_$u7b$$u7b$closure$u7d$$u7d$17hbdde821000cc6ad0E', symObjAddr: 0xDC4, symBinAddr: 0x1F228, symSize: 0x40 }
  - { offset: 0x67EA0, size: 0x8, addend: 0x0, symName: '__ZN4pyo35impl_10trampoline7lenfunc28_$u7b$$u7b$closure$u7d$$u7d$17h08057f0b26f6ada2E', symObjAddr: 0xE04, symBinAddr: 0x1F268, symSize: 0x34 }
  - { offset: 0x67F1D, size: 0x8, addend: 0x0, symName: '__ZN4pyo35impl_10trampoline7newfunc28_$u7b$$u7b$closure$u7d$$u7d$17hb00cbfc52d942be8E', symObjAddr: 0xE38, symBinAddr: 0x1F29C, symSize: 0x40 }
  - { offset: 0x67FCE, size: 0x8, addend: 0x0, symName: '__ZN4pyo35impl_10trampoline8reprfunc28_$u7b$$u7b$closure$u7d$$u7d$17h3edd2f3d659d26c7E', symObjAddr: 0xE78, symBinAddr: 0x1F2DC, symSize: 0x34 }
  - { offset: 0x68AAC, size: 0x8, addend: 0x0, symName: '__ZN6_oryon7scalers176_$LT$impl$u20$pyo3..impl_..pyclass..PyMethods$LT$_oryon..scalers..FixedZScore$GT$$u20$for$u20$pyo3..impl_..pyclass..PyClassImplCollector$LT$_oryon..scalers..FixedZScore$GT$$GT$10py_methods17h4980a1c676c51221E', symObjAddr: 0x0, symBinAddr: 0x1F310, symSize: 0x14 }
  - { offset: 0x6A82D, size: 0x8, addend: 0x0, symName: '__ZN6_oryon7scalers176_$LT$impl$u20$pyo3..impl_..pyclass..PyMethods$LT$_oryon..scalers..FixedZScore$GT$$u20$for$u20$pyo3..impl_..pyclass..PyClassImplCollector$LT$_oryon..scalers..FixedZScore$GT$$GT$10py_methods17h4980a1c676c51221E', symObjAddr: 0x0, symBinAddr: 0x1F310, symSize: 0x14 }
  - { offset: 0x6A878, size: 0x8, addend: 0x0, symName: '__ZN6_oryon7scalers176_$LT$impl$u20$pyo3..impl_..pyclass..PyMethods$LT$_oryon..scalers..FixedZScore$GT$$u20$for$u20$pyo3..impl_..pyclass..PyClassImplCollector$LT$_oryon..scalers..FixedZScore$GT$$GT$10py_methods5ITEMS10trampoline190_$LT$impl$u20$pyo3..impl_..pyclass..PyClassNewTextSignature$LT$_oryon..scalers..FixedZScore$GT$$u20$for$u20$pyo3..impl_..pyclass..PyClassImplCollector$LT$_oryon..scalers..FixedZScore$GT$$GT$18new_text_signature17he471f2d46346cda5E', symObjAddr: 0x14, symBinAddr: 0x1F324, symSize: 0x1C }
  - { offset: 0x6A8B9, size: 0x8, addend: 0x0, symName: '__ZN6_oryon7scalers180_$LT$impl$u20$pyo3..impl_..pyclass..PyMethods$LT$_oryon..scalers..RollingZScore$GT$$u20$for$u20$pyo3..impl_..pyclass..PyClassImplCollector$LT$_oryon..scalers..RollingZScore$GT$$GT$10py_methods17h36ace85cf63c649eE', symObjAddr: 0x30, symBinAddr: 0x1F340, symSize: 0x14 }
  - { offset: 0x6A904, size: 0x8, addend: 0x0, symName: '__ZN6_oryon7scalers180_$LT$impl$u20$pyo3..impl_..pyclass..PyMethods$LT$_oryon..scalers..RollingZScore$GT$$u20$for$u20$pyo3..impl_..pyclass..PyClassImplCollector$LT$_oryon..scalers..RollingZScore$GT$$GT$10py_methods5ITEMS10trampoline194_$LT$impl$u20$pyo3..impl_..pyclass..PyClassNewTextSignature$LT$_oryon..scalers..RollingZScore$GT$$u20$for$u20$pyo3..impl_..pyclass..PyClassImplCollector$LT$_oryon..scalers..RollingZScore$GT$$GT$18new_text_signature17hb7b2308afd140f7cE', symObjAddr: 0x44, symBinAddr: 0x1F354, symSize: 0x1C }
  - { offset: 0x6A975, size: 0x8, addend: 0x0, symName: '__ZN6_oryon7targets178_$LT$impl$u20$pyo3..impl_..pyclass..PyMethods$LT$_oryon..targets..FutureReturn$GT$$u20$for$u20$pyo3..impl_..pyclass..PyClassImplCollector$LT$_oryon..targets..FutureReturn$GT$$GT$10py_methods17h3878b01269b459fbE', symObjAddr: 0x60, symBinAddr: 0x1F370, symSize: 0x14 }
  - { offset: 0x6A9C0, size: 0x8, addend: 0x0, symName: '__ZN6_oryon7targets178_$LT$impl$u20$pyo3..impl_..pyclass..PyMethods$LT$_oryon..targets..FutureReturn$GT$$u20$for$u20$pyo3..impl_..pyclass..PyClassImplCollector$LT$_oryon..targets..FutureReturn$GT$$GT$10py_methods5ITEMS10trampoline192_$LT$impl$u20$pyo3..impl_..pyclass..PyClassNewTextSignature$LT$_oryon..targets..FutureReturn$GT$$u20$for$u20$pyo3..impl_..pyclass..PyClassImplCollector$LT$_oryon..targets..FutureReturn$GT$$GT$18new_text_signature17hf241d71cf7186af2E', symObjAddr: 0x74, symBinAddr: 0x1F384, symSize: 0x1C }
  - { offset: 0x6AA01, size: 0x8, addend: 0x0, symName: '__ZN6_oryon7targets188_$LT$impl$u20$pyo3..impl_..pyclass..PyMethods$LT$_oryon..targets..FutureLinearSlope$GT$$u20$for$u20$pyo3..impl_..pyclass..PyClassImplCollector$LT$_oryon..targets..FutureLinearSlope$GT$$GT$10py_methods17h574130c861653f1cE', symObjAddr: 0x90, symBinAddr: 0x1F3A0, symSize: 0x14 }
  - { offset: 0x6AA4C, size: 0x8, addend: 0x0, symName: '__ZN6_oryon7targets188_$LT$impl$u20$pyo3..impl_..pyclass..PyMethods$LT$_oryon..targets..FutureLinearSlope$GT$$u20$for$u20$pyo3..impl_..pyclass..PyClassImplCollector$LT$_oryon..targets..FutureLinearSlope$GT$$GT$10py_methods5ITEMS10trampoline202_$LT$impl$u20$pyo3..impl_..pyclass..PyClassNewTextSignature$LT$_oryon..targets..FutureLinearSlope$GT$$u20$for$u20$pyo3..impl_..pyclass..PyClassImplCollector$LT$_oryon..targets..FutureLinearSlope$GT$$GT$18new_text_signature17ha6444c128f9bcfb0E', symObjAddr: 0xA4, symBinAddr: 0x1F3B4, symSize: 0x1C }
  - { offset: 0x6AA8D, size: 0x8, addend: 0x0, symName: '__ZN6_oryon7targets192_$LT$impl$u20$pyo3..impl_..pyclass..PyMethods$LT$_oryon..targets..FutureCTCVolatility$GT$$u20$for$u20$pyo3..impl_..pyclass..PyClassImplCollector$LT$_oryon..targets..FutureCTCVolatility$GT$$GT$10py_methods17hd37609a8bbc5d81dE', symObjAddr: 0xC0, symBinAddr: 0x1F3D0, symSize: 0x14 }
  - { offset: 0x6AAD8, size: 0x8, addend: 0x0, symName: '__ZN6_oryon7targets192_$LT$impl$u20$pyo3..impl_..pyclass..PyMethods$LT$_oryon..targets..FutureCTCVolatility$GT$$u20$for$u20$pyo3..impl_..pyclass..PyClassImplCollector$LT$_oryon..targets..FutureCTCVolatility$GT$$GT$10py_methods5ITEMS10trampoline206_$LT$impl$u20$pyo3..impl_..pyclass..PyClassNewTextSignature$LT$_oryon..targets..FutureCTCVolatility$GT$$u20$for$u20$pyo3..impl_..pyclass..PyClassImplCollector$LT$_oryon..targets..FutureCTCVolatility$GT$$GT$18new_text_signature17h93d69d7067bd6f59E', symObjAddr: 0xD4, symBinAddr: 0x1F3E4, symSize: 0x1C }
  - { offset: 0x6ABA6, size: 0x8, addend: 0x0, symName: '__ZN6_oryon8features162_$LT$impl$u20$pyo3..impl_..pyclass..PyMethods$LT$_oryon..features..Adf$GT$$u20$for$u20$pyo3..impl_..pyclass..PyClassImplCollector$LT$_oryon..features..Adf$GT$$GT$10py_methods17h92c2a19664fcd30eE', symObjAddr: 0xF0, symBinAddr: 0x1F400, symSize: 0x14 }
  - { offset: 0x6ABF1, size: 0x8, addend: 0x0, symName: '__ZN6_oryon8features162_$LT$impl$u20$pyo3..impl_..pyclass..PyMethods$LT$_oryon..features..Adf$GT$$u20$for$u20$pyo3..impl_..pyclass..PyClassImplCollector$LT$_oryon..features..Adf$GT$$GT$10py_methods5ITEMS10trampoline176_$LT$impl$u20$pyo3..impl_..pyclass..PyClassNewTextSignature$LT$_oryon..features..Adf$GT$$u20$for$u20$pyo3..impl_..pyclass..PyClassImplCollector$LT$_oryon..features..Adf$GT$$GT$18new_text_signature17h62103d1da88a0cceE', symObjAddr: 0x104, symBinAddr: 0x1F414, symSize: 0x1C }
  - { offset: 0x6AC32, size: 0x8, addend: 0x0, symName: '__ZN6_oryon8features162_$LT$impl$u20$pyo3..impl_..pyclass..PyMethods$LT$_oryon..features..Ema$GT$$u20$for$u20$pyo3..impl_..pyclass..PyClassImplCollector$LT$_oryon..features..Ema$GT$$GT$10py_methods17h7fe35a8d018287e1E', symObjAddr: 0x120, symBinAddr: 0x1F430, symSize: 0x14 }
  - { offset: 0x6AC7D, size: 0x8, addend: 0x0, symName: '__ZN6_oryon8features162_$LT$impl$u20$pyo3..impl_..pyclass..PyMethods$LT$_oryon..features..Ema$GT$$u20$for$u20$pyo3..impl_..pyclass..PyClassImplCollector$LT$_oryon..features..Ema$GT$$GT$10py_methods5ITEMS10trampoline176_$LT$impl$u20$pyo3..impl_..pyclass..PyClassNewTextSignature$LT$_oryon..features..Ema$GT$$u20$for$u20$pyo3..impl_..pyclass..PyClassImplCollector$LT$_oryon..features..Ema$GT$$GT$18new_text_signature17ha8e35369ccbe1972E', symObjAddr: 0x134, symBinAddr: 0x1F444, symSize: 0x1C }
  - { offset: 0x6ACBE, size: 0x8, addend: 0x0, symName: '__ZN6_oryon8features162_$LT$impl$u20$pyo3..impl_..pyclass..PyMethods$LT$_oryon..features..Mma$GT$$u20$for$u20$pyo3..impl_..pyclass..PyClassImplCollector$LT$_oryon..features..Mma$GT$$GT$10py_methods17h9d9b799d1d9168feE', symObjAddr: 0x150, symBinAddr: 0x1F460, symSize: 0x14 }
  - { offset: 0x6AD09, size: 0x8, addend: 0x0, symName: '__ZN6_oryon8features162_$LT$impl$u20$pyo3..impl_..pyclass..PyMethods$LT$_oryon..features..Mma$GT$$u20$for$u20$pyo3..impl_..pyclass..PyClassImplCollector$LT$_oryon..features..Mma$GT$$GT$10py_methods5ITEMS10trampoline176_$LT$impl$u20$pyo3..impl_..pyclass..PyClassNewTextSignature$LT$_oryon..features..Mma$GT$$u20$for$u20$pyo3..impl_..pyclass..PyClassImplCollector$LT$_oryon..features..Mma$GT$$GT$18new_text_signature17h0a8f0ca76d776766E', symObjAddr: 0x164, symBinAddr: 0x1F474, symSize: 0x1C }
  - { offset: 0x6AD4A, size: 0x8, addend: 0x0, symName: '__ZN6_oryon8features162_$LT$impl$u20$pyo3..impl_..pyclass..PyMethods$LT$_oryon..features..Sma$GT$$u20$for$u20$pyo3..impl_..pyclass..PyClassImplCollector$LT$_oryon..features..Sma$GT$$GT$10py_methods17hf0ea6160991f69ceE', symObjAddr: 0x180, symBinAddr: 0x1F490, symSize: 0x14 }
  - { offset: 0x6AD95, size: 0x8, addend: 0x0, symName: '__ZN6_oryon8features162_$LT$impl$u20$pyo3..impl_..pyclass..PyMethods$LT$_oryon..features..Sma$GT$$u20$for$u20$pyo3..impl_..pyclass..PyClassImplCollector$LT$_oryon..features..Sma$GT$$GT$10py_methods5ITEMS10trampoline176_$LT$impl$u20$pyo3..impl_..pyclass..PyClassNewTextSignature$LT$_oryon..features..Sma$GT$$u20$for$u20$pyo3..impl_..pyclass..PyClassImplCollector$LT$_oryon..features..Sma$GT$$GT$18new_text_signature17hd88162d83aace8e9E', symObjAddr: 0x194, symBinAddr: 0x1F4A4, symSize: 0x1C }
  - { offset: 0x6ADD6, size: 0x8, addend: 0x0, symName: '__ZN6_oryon8features164_$LT$impl$u20$pyo3..impl_..pyclass..PyMethods$LT$_oryon..features..Kama$GT$$u20$for$u20$pyo3..impl_..pyclass..PyClassImplCollector$LT$_oryon..features..Kama$GT$$GT$10py_methods17h0881fd5823c6c327E', symObjAddr: 0x1B0, symBinAddr: 0x1F4C0, symSize: 0x14 }
  - { offset: 0x6AE24, size: 0x8, addend: 0x0, symName: '__ZN6_oryon8features164_$LT$impl$u20$pyo3..impl_..pyclass..PyMethods$LT$_oryon..features..Kama$GT$$u20$for$u20$pyo3..impl_..pyclass..PyClassImplCollector$LT$_oryon..features..Kama$GT$$GT$10py_methods5ITEMS10trampoline178_$LT$impl$u20$pyo3..impl_..pyclass..PyClassNewTextSignature$LT$_oryon..features..Kama$GT$$u20$for$u20$pyo3..impl_..pyclass..PyClassImplCollector$LT$_oryon..features..Kama$GT$$GT$18new_text_signature17h0faf5ad8ce129792E', symObjAddr: 0x1C4, symBinAddr: 0x1F4D4, symSize: 0x1C }
  - { offset: 0x6AE68, size: 0x8, addend: 0x0, symName: '__ZN6_oryon8features172_$LT$impl$u20$pyo3..impl_..pyclass..PyMethods$LT$_oryon..features..Kurtosis$GT$$u20$for$u20$pyo3..impl_..pyclass..PyClassImplCollector$LT$_oryon..features..Kurtosis$GT$$GT$10py_methods17h44758f1bc03f1225E', symObjAddr: 0x1E0, symBinAddr: 0x1F4F0, symSize: 0x14 }
  - { offset: 0x6AEB6, size: 0x8, addend: 0x0, symName: '__ZN6_oryon8features172_$LT$impl$u20$pyo3..impl_..pyclass..PyMethods$LT$_oryon..features..Kurtosis$GT$$u20$for$u20$pyo3..impl_..pyclass..PyClassImplCollector$LT$_oryon..features..Kurtosis$GT$$GT$10py_methods5ITEMS10trampoline186_$LT$impl$u20$pyo3..impl_..pyclass..PyClassNewTextSignature$LT$_oryon..features..Kurtosis$GT$$u20$for$u20$pyo3..impl_..pyclass..PyClassImplCollector$LT$_oryon..features..Kurtosis$GT$$GT$18new_text_signature17hf46a181c18ffc101E', symObjAddr: 0x1F4, symBinAddr: 0x1F504, symSize: 0x1C }
  - { offset: 0x6AEFA, size: 0x8, addend: 0x0, symName: '__ZN6_oryon8features172_$LT$impl$u20$pyo3..impl_..pyclass..PyMethods$LT$_oryon..features..Skewness$GT$$u20$for$u20$pyo3..impl_..pyclass..PyClassImplCollector$LT$_oryon..features..Skewness$GT$$GT$10py_methods17h46500a0f47c374a4E', symObjAddr: 0x210, symBinAddr: 0x1F520, symSize: 0x14 }
  - { offset: 0x6AF48, size: 0x8, addend: 0x0, symName: '__ZN6_oryon8features172_$LT$impl$u20$pyo3..impl_..pyclass..PyMethods$LT$_oryon..features..Skewness$GT$$u20$for$u20$pyo3..impl_..pyclass..PyClassImplCollector$LT$_oryon..features..Skewness$GT$$GT$10py_methods5ITEMS10trampoline186_$LT$impl$u20$pyo3..impl_..pyclass..PyClassNewTextSignature$LT$_oryon..features..Skewness$GT$$u20$for$u20$pyo3..impl_..pyclass..PyClassImplCollector$LT$_oryon..features..Skewness$GT$$GT$18new_text_signature17hacfbbefa96575871E', symObjAddr: 0x224, symBinAddr: 0x1F534, symSize: 0x1C }
  - { offset: 0x6AF8C, size: 0x8, addend: 0x0, symName: '__ZN6_oryon8features174_$LT$impl$u20$pyo3..impl_..pyclass..PyMethods$LT$_oryon..features..LogReturn$GT$$u20$for$u20$pyo3..impl_..pyclass..PyClassImplCollector$LT$_oryon..features..LogReturn$GT$$GT$10py_methods17h3f65ae39915e9310E', symObjAddr: 0x240, symBinAddr: 0x1F550, symSize: 0x14 }
  - { offset: 0x6AFDA, size: 0x8, addend: 0x0, symName: '__ZN6_oryon8features174_$LT$impl$u20$pyo3..impl_..pyclass..PyMethods$LT$_oryon..features..LogReturn$GT$$u20$for$u20$pyo3..impl_..pyclass..PyClassImplCollector$LT$_oryon..features..LogReturn$GT$$GT$10py_methods5ITEMS10trampoline188_$LT$impl$u20$pyo3..impl_..pyclass..PyClassNewTextSignature$LT$_oryon..features..LogReturn$GT$$u20$for$u20$pyo3..impl_..pyclass..PyClassImplCollector$LT$_oryon..features..LogReturn$GT$$GT$18new_text_signature17hdbd19e91c4e27f98E', symObjAddr: 0x254, symBinAddr: 0x1F564, symSize: 0x1C }
  - { offset: 0x6B01E, size: 0x8, addend: 0x0, symName: '__ZN6_oryon8features178_$LT$impl$u20$pyo3..impl_..pyclass..PyMethods$LT$_oryon..features..LinearSlope$GT$$u20$for$u20$pyo3..impl_..pyclass..PyClassImplCollector$LT$_oryon..features..LinearSlope$GT$$GT$10py_methods17hf282d368cc2ae351E', symObjAddr: 0x270, symBinAddr: 0x1F580, symSize: 0x14 }
  - { offset: 0x6B06C, size: 0x8, addend: 0x0, symName: '__ZN6_oryon8features178_$LT$impl$u20$pyo3..impl_..pyclass..PyMethods$LT$_oryon..features..LinearSlope$GT$$u20$for$u20$pyo3..impl_..pyclass..PyClassImplCollector$LT$_oryon..features..LinearSlope$GT$$GT$10py_methods5ITEMS10trampoline192_$LT$impl$u20$pyo3..impl_..pyclass..PyClassNewTextSignature$LT$_oryon..features..LinearSlope$GT$$u20$for$u20$pyo3..impl_..pyclass..PyClassImplCollector$LT$_oryon..features..LinearSlope$GT$$GT$18new_text_signature17h3d73a548fc7b5851E', symObjAddr: 0x284, symBinAddr: 0x1F594, symSize: 0x1C }
  - { offset: 0x6B0B0, size: 0x8, addend: 0x0, symName: '__ZN6_oryon8features180_$LT$impl$u20$pyo3..impl_..pyclass..PyMethods$LT$_oryon..features..SimpleReturn$GT$$u20$for$u20$pyo3..impl_..pyclass..PyClassImplCollector$LT$_oryon..features..SimpleReturn$GT$$GT$10py_methods17hfb7e22058d5880b3E', symObjAddr: 0x2A0, symBinAddr: 0x1F5B0, symSize: 0x14 }
  - { offset: 0x6B0FE, size: 0x8, addend: 0x0, symName: '__ZN6_oryon8features180_$LT$impl$u20$pyo3..impl_..pyclass..PyMethods$LT$_oryon..features..SimpleReturn$GT$$u20$for$u20$pyo3..impl_..pyclass..PyClassImplCollector$LT$_oryon..features..SimpleReturn$GT$$GT$10py_methods5ITEMS10trampoline194_$LT$impl$u20$pyo3..impl_..pyclass..PyClassNewTextSignature$LT$_oryon..features..SimpleReturn$GT$$u20$for$u20$pyo3..impl_..pyclass..PyClassImplCollector$LT$_oryon..features..SimpleReturn$GT$$GT$18new_text_signature17hd9f8a3291c97bfcdE', symObjAddr: 0x2B4, symBinAddr: 0x1F5C4, symSize: 0x1C }
  - { offset: 0x6B142, size: 0x8, addend: 0x0, symName: '__ZN6_oryon8features194_$LT$impl$u20$pyo3..impl_..pyclass..PyMethods$LT$_oryon..features..ParkinsonVolatility$GT$$u20$for$u20$pyo3..impl_..pyclass..PyClassImplCollector$LT$_oryon..features..ParkinsonVolatility$GT$$GT$10py_methods17h80d6290a6048db13E', symObjAddr: 0x2D0, symBinAddr: 0x1F5E0, symSize: 0x14 }
  - { offset: 0x6B190, size: 0x8, addend: 0x0, symName: '__ZN6_oryon8features194_$LT$impl$u20$pyo3..impl_..pyclass..PyMethods$LT$_oryon..features..ParkinsonVolatility$GT$$u20$for$u20$pyo3..impl_..pyclass..PyClassImplCollector$LT$_oryon..features..ParkinsonVolatility$GT$$GT$10py_methods5ITEMS10trampoline208_$LT$impl$u20$pyo3..impl_..pyclass..PyClassNewTextSignature$LT$_oryon..features..ParkinsonVolatility$GT$$u20$for$u20$pyo3..impl_..pyclass..PyClassImplCollector$LT$_oryon..features..ParkinsonVolatility$GT$$GT$18new_text_signature17h42eac888324c6319E', symObjAddr: 0x2E4, symBinAddr: 0x1F5F4, symSize: 0x1C }
  - { offset: 0x6B1D4, size: 0x8, addend: 0x0, symName: '__ZN6_oryon8features204_$LT$impl$u20$pyo3..impl_..pyclass..PyMethods$LT$_oryon..features..RogersSatchellVolatility$GT$$u20$for$u20$pyo3..impl_..pyclass..PyClassImplCollector$LT$_oryon..features..RogersSatchellVolatility$GT$$GT$10py_methods17h710c5223372df5fbE', symObjAddr: 0x300, symBinAddr: 0x1F610, symSize: 0x14 }
  - { offset: 0x6B222, size: 0x8, addend: 0x0, symName: '__ZN6_oryon8features204_$LT$impl$u20$pyo3..impl_..pyclass..PyMethods$LT$_oryon..features..RogersSatchellVolatility$GT$$u20$for$u20$pyo3..impl_..pyclass..PyClassImplCollector$LT$_oryon..features..RogersSatchellVolatility$GT$$GT$10py_methods5ITEMS10trampoline218_$LT$impl$u20$pyo3..impl_..pyclass..PyClassNewTextSignature$LT$_oryon..features..RogersSatchellVolatility$GT$$u20$for$u20$pyo3..impl_..pyclass..PyClassImplCollector$LT$_oryon..features..RogersSatchellVolatility$GT$$GT$18new_text_signature17hfbc10159968e255bE', symObjAddr: 0x314, symBinAddr: 0x1F624, symSize: 0x1C }
  - { offset: 0x6B380, size: 0x8, addend: 0x0, symName: '__ZN6_oryon9operators170_$LT$impl$u20$pyo3..impl_..pyclass..PyMethods$LT$_oryon..operators..NegLog$GT$$u20$for$u20$pyo3..impl_..pyclass..PyClassImplCollector$LT$_oryon..operators..NegLog$GT$$GT$10py_methods17h54fe42a4a11a68c7E', symObjAddr: 0x330, symBinAddr: 0x1F640, symSize: 0x14 }
  - { offset: 0x6B3CB, size: 0x8, addend: 0x0, symName: '__ZN6_oryon9operators170_$LT$impl$u20$pyo3..impl_..pyclass..PyMethods$LT$_oryon..operators..NegLog$GT$$u20$for$u20$pyo3..impl_..pyclass..PyClassImplCollector$LT$_oryon..operators..NegLog$GT$$GT$10py_methods5ITEMS10trampoline184_$LT$impl$u20$pyo3..impl_..pyclass..PyClassNewTextSignature$LT$_oryon..operators..NegLog$GT$$u20$for$u20$pyo3..impl_..pyclass..PyClassImplCollector$LT$_oryon..operators..NegLog$GT$$GT$18new_text_signature17hf7a8687bb4d00a2dE', symObjAddr: 0x344, symBinAddr: 0x1F654, symSize: 0x1C }
  - { offset: 0x6B40C, size: 0x8, addend: 0x0, symName: '__ZN6_oryon9operators174_$LT$impl$u20$pyo3..impl_..pyclass..PyMethods$LT$_oryon..operators..Subtract$GT$$u20$for$u20$pyo3..impl_..pyclass..PyClassImplCollector$LT$_oryon..operators..Subtract$GT$$GT$10py_methods17h6140ce57b16760e9E', symObjAddr: 0x360, symBinAddr: 0x1F670, symSize: 0x14 }
  - { offset: 0x6B457, size: 0x8, addend: 0x0, symName: '__ZN6_oryon9operators174_$LT$impl$u20$pyo3..impl_..pyclass..PyMethods$LT$_oryon..operators..Subtract$GT$$u20$for$u20$pyo3..impl_..pyclass..PyClassImplCollector$LT$_oryon..operators..Subtract$GT$$GT$10py_methods5ITEMS10trampoline188_$LT$impl$u20$pyo3..impl_..pyclass..PyClassNewTextSignature$LT$_oryon..operators..Subtract$GT$$u20$for$u20$pyo3..impl_..pyclass..PyClassImplCollector$LT$_oryon..operators..Subtract$GT$$GT$18new_text_signature17h991050f184d654ebE', symObjAddr: 0x374, symBinAddr: 0x1F684, symSize: 0x1C }
  - { offset: 0x6B4C8, size: 0x8, addend: 0x0, symName: '__ZN6_oryon9pipelines186_$LT$impl$u20$pyo3..impl_..pyclass..PyMethods$LT$_oryon..pipelines..TargetPipeline$GT$$u20$for$u20$pyo3..impl_..pyclass..PyClassImplCollector$LT$_oryon..pipelines..TargetPipeline$GT$$GT$10py_methods17hca9ee679fb94c00dE', symObjAddr: 0x390, symBinAddr: 0x1F6A0, symSize: 0x14 }
  - { offset: 0x6B513, size: 0x8, addend: 0x0, symName: '__ZN6_oryon9pipelines186_$LT$impl$u20$pyo3..impl_..pyclass..PyMethods$LT$_oryon..pipelines..TargetPipeline$GT$$u20$for$u20$pyo3..impl_..pyclass..PyClassImplCollector$LT$_oryon..pipelines..TargetPipeline$GT$$GT$10py_methods5ITEMS10trampoline200_$LT$impl$u20$pyo3..impl_..pyclass..PyClassNewTextSignature$LT$_oryon..pipelines..TargetPipeline$GT$$u20$for$u20$pyo3..impl_..pyclass..PyClassImplCollector$LT$_oryon..pipelines..TargetPipeline$GT$$GT$18new_text_signature17h5c0944233d76964eE', symObjAddr: 0x3A4, symBinAddr: 0x1F6B4, symSize: 0x1C }
  - { offset: 0x6B554, size: 0x8, addend: 0x0, symName: '__ZN6_oryon9pipelines188_$LT$impl$u20$pyo3..impl_..pyclass..PyMethods$LT$_oryon..pipelines..FeaturePipeline$GT$$u20$for$u20$pyo3..impl_..pyclass..PyClassImplCollector$LT$_oryon..pipelines..FeaturePipeline$GT$$GT$10py_methods17he4c3d0ad06ea6a33E', symObjAddr: 0x3C0, symBinAddr: 0x1F6D0, symSize: 0x14 }
  - { offset: 0x6B59F, size: 0x8, addend: 0x0, symName: '__ZN6_oryon9pipelines188_$LT$impl$u20$pyo3..impl_..pyclass..PyMethods$LT$_oryon..pipelines..FeaturePipeline$GT$$u20$for$u20$pyo3..impl_..pyclass..PyClassImplCollector$LT$_oryon..pipelines..FeaturePipeline$GT$$GT$10py_methods5ITEMS10trampoline202_$LT$impl$u20$pyo3..impl_..pyclass..PyClassNewTextSignature$LT$_oryon..pipelines..FeaturePipeline$GT$$u20$for$u20$pyo3..impl_..pyclass..PyClassImplCollector$LT$_oryon..pipelines..FeaturePipeline$GT$$GT$18new_text_signature17hbedd6a6d9e3a6781E', symObjAddr: 0x3D4, symBinAddr: 0x1F6E4, symSize: 0x1C }
  - { offset: 0x6C9F6, size: 0x8, addend: 0x0, symName: '__ZN100_$LT$pyo3..types..tuple..BorrowedTupleIterator$u20$as$u20$core..iter..traits..iterator..Iterator$GT$4next17h0a0f47f842bac309E', symObjAddr: 0x0, symBinAddr: 0x1F700, symSize: 0x9C }
  - { offset: 0x6DBE0, size: 0x8, addend: 0x0, symName: '__ZN100_$LT$pyo3..types..tuple..BorrowedTupleIterator$u20$as$u20$core..iter..traits..iterator..Iterator$GT$4next17h0a0f47f842bac309E', symObjAddr: 0x0, symBinAddr: 0x1F700, symSize: 0x9C }
  - { offset: 0x6E2B6, size: 0x8, addend: 0x0, symName: __ZN5alloc3fmt6format17h0715ac97e85c8033E, symObjAddr: 0x0, symBinAddr: 0x1F79C, symSize: 0xD8 }
  - { offset: 0x6E7CE, size: 0x8, addend: 0x0, symName: __ZN5alloc3fmt6format17h0715ac97e85c8033E, symObjAddr: 0x0, symBinAddr: 0x1F79C, symSize: 0xD8 }
  - { offset: 0x6E97E, size: 0x8, addend: 0x0, symName: '__ZN4core4iter6traits8iterator8Iterator12try_for_each4call28_$u7b$$u7b$closure$u7d$$u7d$17h07808bf3c21719bbE', symObjAddr: 0x0, symBinAddr: 0x1F874, symSize: 0x34 }
  - { offset: 0x6E9AE, size: 0x8, addend: 0x0, symName: '__ZN4core4iter6traits8iterator8Iterator12try_for_each4call28_$u7b$$u7b$closure$u7d$$u7d$17h07808bf3c21719bbE', symObjAddr: 0x0, symBinAddr: 0x1F874, symSize: 0x34 }
  - { offset: 0x6EA13, size: 0x8, addend: 0x0, symName: '__ZN4core4iter6traits8iterator8Iterator12try_for_each4call28_$u7b$$u7b$closure$u7d$$u7d$17h2290da0550f254a9E', symObjAddr: 0x34, symBinAddr: 0x1F8A8, symSize: 0x34 }
  - { offset: 0x6EA84, size: 0x8, addend: 0x0, symName: '__ZN4core4iter6traits8iterator8Iterator8for_each4call28_$u7b$$u7b$closure$u7d$$u7d$17h01219eadff3083afE', symObjAddr: 0x68, symBinAddr: 0x1F8DC, symSize: 0x3C }
  - { offset: 0x6EADD, size: 0x8, addend: 0x0, symName: '__ZN4core4iter6traits8iterator8Iterator8for_each4call28_$u7b$$u7b$closure$u7d$$u7d$17h38b6a7e2a8150917E', symObjAddr: 0xA4, symBinAddr: 0x1F918, symSize: 0x3C }
  - { offset: 0x6EB36, size: 0x8, addend: 0x0, symName: '__ZN4core4iter6traits8iterator8Iterator8for_each4call28_$u7b$$u7b$closure$u7d$$u7d$17h5d9d316320bcce31E', symObjAddr: 0xE0, symBinAddr: 0x1F954, symSize: 0x28 }
  - { offset: 0x6EB8E, size: 0x8, addend: 0x0, symName: '__ZN4core4iter6traits8iterator8Iterator8for_each4call28_$u7b$$u7b$closure$u7d$$u7d$17h612cf2ec12707120E', symObjAddr: 0x108, symBinAddr: 0x1F97C, symSize: 0x3C }
  - { offset: 0x6EBE7, size: 0x8, addend: 0x0, symName: '__ZN4core4iter6traits8iterator8Iterator8for_each4call28_$u7b$$u7b$closure$u7d$$u7d$17h7e34adca7cfe5d7cE', symObjAddr: 0x144, symBinAddr: 0x1F9B8, symSize: 0x2C }
  - { offset: 0x6EC3F, size: 0x8, addend: 0x0, symName: '__ZN4core4iter6traits8iterator8Iterator8for_each4call28_$u7b$$u7b$closure$u7d$$u7d$17hf4c62efbcf05add3E', symObjAddr: 0x170, symBinAddr: 0x1F9E4, symSize: 0x3C }
  - { offset: 0x6EC98, size: 0x8, addend: 0x0, symName: '__ZN4core4iter6traits8iterator8Iterator8for_each4call28_$u7b$$u7b$closure$u7d$$u7d$17hfbbb21b020a46323E', symObjAddr: 0x1AC, symBinAddr: 0x1FA20, symSize: 0x30 }
  - { offset: 0x6F2D1, size: 0x8, addend: 0x0, symName: __ZN4pyo310conversion12IntoPyObject28owned_sequence_into_pyobject17hddd54ff6a4cc4db2E, symObjAddr: 0x0, symBinAddr: 0x1FA50, symSize: 0xDC }
  - { offset: 0x709D2, size: 0x8, addend: 0x0, symName: __ZN4pyo310conversion12IntoPyObject28owned_sequence_into_pyobject17hddd54ff6a4cc4db2E, symObjAddr: 0x0, symBinAddr: 0x1FA50, symSize: 0xDC }
  - { offset: 0x70A6E, size: 0x8, addend: 0x0, symName: '__ZN4pyo310conversion12IntoPyObject28owned_sequence_into_pyobject28_$u7b$$u7b$closure$u7d$$u7d$17h6860acb14574d20dE', symObjAddr: 0xDC, symBinAddr: 0x1FB2C, symSize: 0x24 }
  - { offset: 0x70AC5, size: 0x8, addend: 0x0, symName: '__ZN4pyo310conversion12IntoPyObject28owned_sequence_into_pyobject28_$u7b$$u7b$closure$u7d$$u7d$17ha4cb2528bca02a40E', symObjAddr: 0x100, symBinAddr: 0x1FB50, symSize: 0x34 }
  - { offset: 0x70B1D, size: 0x8, addend: 0x0, symName: '__ZN4pyo310conversion12IntoPyObject28owned_sequence_into_pyobject28_$u7b$$u7b$closure$u7d$$u7d$17hc66381382e5f4a45E', symObjAddr: 0x134, symBinAddr: 0x1FB84, symSize: 0x34 }
  - { offset: 0x70BB5, size: 0x8, addend: 0x0, symName: __ZN4pyo310conversion15IntoPyObjectExt17into_bound_py_any17h5de936006979873bE, symObjAddr: 0x168, symBinAddr: 0x1FBB8, symSize: 0xD0 }
  - { offset: 0x70C48, size: 0x8, addend: 0x0, symName: __ZN4pyo310conversion15IntoPyObjectExt17into_bound_py_any17he7270727e75d9b81E, symObjAddr: 0x238, symBinAddr: 0x1FC88, symSize: 0x4C }
  - { offset: 0x719C3, size: 0x8, addend: 0x0, symName: __ZN4pyo35impl_9pymethods11tp_new_impl17h06c700f88a403514E, symObjAddr: 0x0, symBinAddr: 0x1FCD4, symSize: 0x64 }
  - { offset: 0x721B6, size: 0x8, addend: 0x0, symName: '__ZN50_$LT$T$u20$as$u20$core..convert..Into$LT$U$GT$$GT$4into17h47e889b3ce7d1f4cE', symObjAddr: 0x864, symBinAddr: 0x20538, symSize: 0x24 }
  - { offset: 0x73653, size: 0x8, addend: 0x0, symName: __ZN4pyo35impl_9pymethods11tp_new_impl17h06c700f88a403514E, symObjAddr: 0x0, symBinAddr: 0x1FCD4, symSize: 0x64 }
  - { offset: 0x736B6, size: 0x8, addend: 0x0, symName: __ZN4pyo35impl_9pymethods11tp_new_impl17h07bf9bb6e91af4b9E, symObjAddr: 0x64, symBinAddr: 0x1FD38, symSize: 0x64 }
  - { offset: 0x7371A, size: 0x8, addend: 0x0, symName: __ZN4pyo35impl_9pymethods11tp_new_impl17h17ec8e21820a9117E, symObjAddr: 0xC8, symBinAddr: 0x1FD9C, symSize: 0x64 }
  - { offset: 0x7377F, size: 0x8, addend: 0x0, symName: __ZN4pyo35impl_9pymethods11tp_new_impl17h1a1da468462fd5baE, symObjAddr: 0x12C, symBinAddr: 0x1FE00, symSize: 0x64 }
  - { offset: 0x737E4, size: 0x8, addend: 0x0, symName: __ZN4pyo35impl_9pymethods11tp_new_impl17h2275ce4f7efbd557E, symObjAddr: 0x190, symBinAddr: 0x1FE64, symSize: 0x64 }
  - { offset: 0x73849, size: 0x8, addend: 0x0, symName: __ZN4pyo35impl_9pymethods11tp_new_impl17h6d3cadbde77576ffE, symObjAddr: 0x1F4, symBinAddr: 0x1FEC8, symSize: 0x64 }
  - { offset: 0x738AD, size: 0x8, addend: 0x0, symName: __ZN4pyo35impl_9pymethods11tp_new_impl17h71ef698be054561bE, symObjAddr: 0x258, symBinAddr: 0x1FF2C, symSize: 0x64 }
  - { offset: 0x73912, size: 0x8, addend: 0x0, symName: __ZN4pyo35impl_9pymethods11tp_new_impl17h788bedb5016be877E, symObjAddr: 0x2BC, symBinAddr: 0x1FF90, symSize: 0x64 }
  - { offset: 0x73976, size: 0x8, addend: 0x0, symName: __ZN4pyo35impl_9pymethods11tp_new_impl17h7e3035e0c6791b34E, symObjAddr: 0x320, symBinAddr: 0x1FFF4, symSize: 0x64 }
  - { offset: 0x739D9, size: 0x8, addend: 0x0, symName: __ZN4pyo35impl_9pymethods11tp_new_impl17h7ec57a4869c769a4E, symObjAddr: 0x384, symBinAddr: 0x20058, symSize: 0x6C }
  - { offset: 0x73A3E, size: 0x8, addend: 0x0, symName: __ZN4pyo35impl_9pymethods11tp_new_impl17h8487b28045ce23dcE, symObjAddr: 0x3F0, symBinAddr: 0x200C4, symSize: 0x64 }
  - { offset: 0x73AA3, size: 0x8, addend: 0x0, symName: __ZN4pyo35impl_9pymethods11tp_new_impl17h888499ae01b31de3E, symObjAddr: 0x454, symBinAddr: 0x20128, symSize: 0x6C }
  - { offset: 0x73B08, size: 0x8, addend: 0x0, symName: __ZN4pyo35impl_9pymethods11tp_new_impl17h8eecf96438a30daeE, symObjAddr: 0x4C0, symBinAddr: 0x20194, symSize: 0x6C }
  - { offset: 0x73B6D, size: 0x8, addend: 0x0, symName: __ZN4pyo35impl_9pymethods11tp_new_impl17h98db90f931232f41E, symObjAddr: 0x52C, symBinAddr: 0x20200, symSize: 0x64 }
  - { offset: 0x73BD2, size: 0x8, addend: 0x0, symName: __ZN4pyo35impl_9pymethods11tp_new_impl17hbce320fdaccab424E, symObjAddr: 0x590, symBinAddr: 0x20264, symSize: 0x6C }
  - { offset: 0x73C37, size: 0x8, addend: 0x0, symName: __ZN4pyo35impl_9pymethods11tp_new_impl17hcec5f6716ee024fcE, symObjAddr: 0x5FC, symBinAddr: 0x202D0, symSize: 0x6C }
  - { offset: 0x73C9C, size: 0x8, addend: 0x0, symName: __ZN4pyo35impl_9pymethods11tp_new_impl17hd03e88bf6c6c3a6fE, symObjAddr: 0x668, symBinAddr: 0x2033C, symSize: 0x6C }
  - { offset: 0x73D01, size: 0x8, addend: 0x0, symName: __ZN4pyo35impl_9pymethods11tp_new_impl17hd52d9dd934b8072aE, symObjAddr: 0x6D4, symBinAddr: 0x203A8, symSize: 0x64 }
  - { offset: 0x73D66, size: 0x8, addend: 0x0, symName: __ZN4pyo35impl_9pymethods11tp_new_impl17hddd1f44a3e264820E, symObjAddr: 0x738, symBinAddr: 0x2040C, symSize: 0x64 }
  - { offset: 0x73DCB, size: 0x8, addend: 0x0, symName: __ZN4pyo35impl_9pymethods11tp_new_impl17hf16f2b5215a25c96E, symObjAddr: 0x79C, symBinAddr: 0x20470, symSize: 0x64 }
  - { offset: 0x73E30, size: 0x8, addend: 0x0, symName: __ZN4pyo35impl_9pymethods11tp_new_impl17hf6d6b28fb3ad697bE, symObjAddr: 0x800, symBinAddr: 0x204D4, symSize: 0x64 }
  - { offset: 0x75F57, size: 0x8, addend: 0x0, symName: __ZN4pyo311type_object10PyTypeInfo11type_object17h10f97ec911c932c5E, symObjAddr: 0x0, symBinAddr: 0x2055C, symSize: 0x30 }
  - { offset: 0x773F5, size: 0x8, addend: 0x0, symName: __ZN4pyo311type_object10PyTypeInfo11type_object17h10f97ec911c932c5E, symObjAddr: 0x0, symBinAddr: 0x2055C, symSize: 0x30 }
  - { offset: 0x77435, size: 0x8, addend: 0x0, symName: __ZN4pyo311type_object10PyTypeInfo11type_object17h3476c3e8406f1aceE, symObjAddr: 0x30, symBinAddr: 0x2058C, symSize: 0x30 }
  - { offset: 0x77475, size: 0x8, addend: 0x0, symName: __ZN4pyo311type_object10PyTypeInfo11type_object17h6fa1a8bb3e3490c7E, symObjAddr: 0x60, symBinAddr: 0x205BC, symSize: 0x30 }
  - { offset: 0x774B5, size: 0x8, addend: 0x0, symName: __ZN4pyo311type_object10PyTypeInfo11type_object17h865f3a993caf770bE, symObjAddr: 0x90, symBinAddr: 0x205EC, symSize: 0x30 }
  - { offset: 0x774F5, size: 0x8, addend: 0x0, symName: __ZN4pyo311type_object10PyTypeInfo11type_object17hb417d4f099245780E, symObjAddr: 0xC0, symBinAddr: 0x2061C, symSize: 0x30 }
  - { offset: 0x77535, size: 0x8, addend: 0x0, symName: __ZN4pyo311type_object10PyTypeInfo11type_object17hd8e8d9c8d48f4001E, symObjAddr: 0xF0, symBinAddr: 0x2064C, symSize: 0x30 }
  - { offset: 0x777B0, size: 0x8, addend: 0x0, symName: '__ZN6_oryon10OryonError15type_object_raw28_$u7b$$u7b$closure$u7d$$u7d$17hb3c0bb7a39f9b0c5E', symObjAddr: 0x120, symBinAddr: 0x2067C, symSize: 0xC4 }
  - { offset: 0x77808, size: 0x8, addend: 0x0, symName: '__ZN6_oryon17InvalidInputError15type_object_raw28_$u7b$$u7b$closure$u7d$$u7d$17h5f44f35ed82dcbe6E', symObjAddr: 0x1E4, symBinAddr: 0x20740, symSize: 0xC4 }
  - { offset: 0x77893, size: 0x8, addend: 0x0, symName: '__ZN6_oryon18InvalidConfigError15type_object_raw28_$u7b$$u7b$closure$u7d$$u7d$17h5301e3de1fd5dd70E', symObjAddr: 0x2DC, symBinAddr: 0x20838, symSize: 0xC4 }
  - { offset: 0x7791E, size: 0x8, addend: 0x0, symName: '__ZN6_oryon21CyclicDependencyError15type_object_raw28_$u7b$$u7b$closure$u7d$$u7d$17h08b80987afbede83E', symObjAddr: 0x3D4, symBinAddr: 0x20930, symSize: 0xC4 }
  - { offset: 0x779A9, size: 0x8, addend: 0x0, symName: '__ZN6_oryon23DuplicateOutputKeyError15type_object_raw28_$u7b$$u7b$closure$u7d$$u7d$17h55611ba78d26792cE', symObjAddr: 0x4C0, symBinAddr: 0x20A1C, symSize: 0xC4 }
  - { offset: 0x77A34, size: 0x8, addend: 0x0, symName: '__ZN6_oryon23MissingInputColumnError15type_object_raw28_$u7b$$u7b$closure$u7d$$u7d$17h0a55538f1620bc64E', symObjAddr: 0x5B8, symBinAddr: 0x20B14, symSize: 0xC4 }
  - { offset: 0x77ABA, size: 0x8, addend: 0x0, symName: '__ZN6_oryon7to_rust28_$u7b$$u7b$closure$u7d$$u7d$17h89a98b4da0a09611E', symObjAddr: 0x6B0, symBinAddr: 0x20C0C, symSize: 0x60 }
  - { offset: 0x77B16, size: 0x8, addend: 0x0, symName: '__ZN6_oryon9to_python28_$u7b$$u7b$closure$u7d$$u7d$17h28121696ea7b92fcE', symObjAddr: 0x710, symBinAddr: 0x20C6C, symSize: 0x38 }
  - { offset: 0x782B2, size: 0x8, addend: 0x0, symName: __ZN6_oryon17InvalidInputError7new_err17h1bbdb88991b9d9e7E, symObjAddr: 0x2A8, symBinAddr: 0x20804, symSize: 0x34 }
  - { offset: 0x782DE, size: 0x8, addend: 0x0, symName: __ZN6_oryon18InvalidConfigError7new_err17hefcaa5c2c8f7bd10E, symObjAddr: 0x3A0, symBinAddr: 0x208FC, symSize: 0x34 }
  - { offset: 0x78331, size: 0x8, addend: 0x0, symName: __ZN6_oryon21CyclicDependencyError7new_err17h07939f2fae2071ffE, symObjAddr: 0x498, symBinAddr: 0x209F4, symSize: 0x28 }
  - { offset: 0x7835C, size: 0x8, addend: 0x0, symName: __ZN6_oryon23DuplicateOutputKeyError7new_err17h26088292adcea651E, symObjAddr: 0x584, symBinAddr: 0x20AE0, symSize: 0x34 }
  - { offset: 0x78388, size: 0x8, addend: 0x0, symName: __ZN6_oryon23MissingInputColumnError7new_err17h2503027885de8201E, symObjAddr: 0x67C, symBinAddr: 0x20BD8, symSize: 0x34 }
  - { offset: 0x78452, size: 0x8, addend: 0x0, symName: __ZN4pyo35impl_16extract_argument16extract_argument17h1c286b82ba9dfd4cE, symObjAddr: 0x0, symBinAddr: 0x20CA4, symSize: 0x144 }
  - { offset: 0x7D1AD, size: 0x8, addend: 0x0, symName: __ZN4pyo35impl_16extract_argument16extract_argument17h1c286b82ba9dfd4cE, symObjAddr: 0x0, symBinAddr: 0x20CA4, symSize: 0x144 }
  - { offset: 0x7D233, size: 0x8, addend: 0x0, symName: __ZN4pyo35impl_16extract_argument16extract_argument17h21aa2097ecc62388E, symObjAddr: 0x144, symBinAddr: 0x20DE8, symSize: 0x138 }
  - { offset: 0x7D2B8, size: 0x8, addend: 0x0, symName: __ZN4pyo35impl_16extract_argument16extract_argument17h22eb7d4d1aec1eeeE, symObjAddr: 0x27C, symBinAddr: 0x20F20, symSize: 0x150 }
  - { offset: 0x7D33D, size: 0x8, addend: 0x0, symName: __ZN4pyo35impl_16extract_argument16extract_argument17h4719f6e6c81b082dE, symObjAddr: 0x3CC, symBinAddr: 0x21070, symSize: 0x150 }
  - { offset: 0x7D3C2, size: 0x8, addend: 0x0, symName: __ZN4pyo35impl_16extract_argument16extract_argument17h6dfba43a55421124E, symObjAddr: 0x51C, symBinAddr: 0x211C0, symSize: 0x150 }
  - { offset: 0x7D447, size: 0x8, addend: 0x0, symName: __ZN4pyo35impl_16extract_argument16extract_argument17h79af7340350edbd0E, symObjAddr: 0x66C, symBinAddr: 0x21310, symSize: 0x150 }
  - { offset: 0x7D4CC, size: 0x8, addend: 0x0, symName: __ZN4pyo35impl_16extract_argument16extract_argument17h83e354636211cfeeE, symObjAddr: 0x7BC, symBinAddr: 0x21460, symSize: 0x138 }
  - { offset: 0x7D551, size: 0x8, addend: 0x0, symName: __ZN4pyo35impl_16extract_argument16extract_argument17h8735ba7ce4a603f9E, symObjAddr: 0x8F4, symBinAddr: 0x21598, symSize: 0x150 }
  - { offset: 0x7D757, size: 0x8, addend: 0x0, symName: '__ZN4pyo35impl_16extract_argument19FunctionDescription26extract_arguments_fastcall28_$u7b$$u7b$closure$u7d$$u7d$17h8ae3e95d5f1010e5E', symObjAddr: 0x1E90, symBinAddr: 0x22B34, symSize: 0x24 }
  - { offset: 0x7D7AF, size: 0x8, addend: 0x0, symName: '__ZN4pyo35impl_16extract_argument19FunctionDescription28extract_arguments_tuple_dict28_$u7b$$u7b$closure$u7d$$u7d$17h5ddb012fc2e9d5f0E', symObjAddr: 0x2394, symBinAddr: 0x23038, symSize: 0x24 }
  - { offset: 0x7D807, size: 0x8, addend: 0x0, symName: '__ZN4pyo35impl_16extract_argument19FunctionDescription36find_keyword_parameter_in_positional28_$u7b$$u7b$closure$u7d$$u7d$17hfc7167aba8c8a396E', symObjAddr: 0x23B8, symBinAddr: 0x2305C, symSize: 0x48 }
  - { offset: 0x7D867, size: 0x8, addend: 0x0, symName: '__ZN4pyo35impl_16extract_argument19FunctionDescription38find_keyword_parameter_in_keyword_only28_$u7b$$u7b$closure$u7d$$u7d$17h1748630fc11d3986E', symObjAddr: 0x2400, symBinAddr: 0x230A4, symSize: 0x38 }
  - { offset: 0x7D8A9, size: 0x8, addend: 0x0, symName: __ZN4pyo35impl_16extract_argument19extract_pyclass_ref17h04325b821898944cE, symObjAddr: 0x2438, symBinAddr: 0x230DC, symSize: 0xC8 }
  - { offset: 0x7D90C, size: 0x8, addend: 0x0, symName: __ZN4pyo35impl_16extract_argument19extract_pyclass_ref17h0ef6245595271445E, symObjAddr: 0x2500, symBinAddr: 0x231A4, symSize: 0xC8 }
  - { offset: 0x7D96F, size: 0x8, addend: 0x0, symName: __ZN4pyo35impl_16extract_argument19extract_pyclass_ref17h175471824917b363E, symObjAddr: 0x25C8, symBinAddr: 0x2326C, symSize: 0xC8 }
  - { offset: 0x7D9D2, size: 0x8, addend: 0x0, symName: __ZN4pyo35impl_16extract_argument19extract_pyclass_ref17h1cb7b22cd3e27e5cE, symObjAddr: 0x2690, symBinAddr: 0x23334, symSize: 0xC8 }
  - { offset: 0x7DA35, size: 0x8, addend: 0x0, symName: __ZN4pyo35impl_16extract_argument19extract_pyclass_ref17h2e72bf9a9249ff21E, symObjAddr: 0x2758, symBinAddr: 0x233FC, symSize: 0xC8 }
  - { offset: 0x7DA98, size: 0x8, addend: 0x0, symName: __ZN4pyo35impl_16extract_argument19extract_pyclass_ref17h3f0c35fb354534ecE, symObjAddr: 0x2820, symBinAddr: 0x234C4, symSize: 0xC8 }
  - { offset: 0x7DAFB, size: 0x8, addend: 0x0, symName: __ZN4pyo35impl_16extract_argument19extract_pyclass_ref17h598bba1616cc717dE, symObjAddr: 0x28E8, symBinAddr: 0x2358C, symSize: 0xC8 }
  - { offset: 0x7DB5E, size: 0x8, addend: 0x0, symName: __ZN4pyo35impl_16extract_argument19extract_pyclass_ref17h5c3e0e35a17253eeE, symObjAddr: 0x29B0, symBinAddr: 0x23654, symSize: 0xC8 }
  - { offset: 0x7DBC1, size: 0x8, addend: 0x0, symName: __ZN4pyo35impl_16extract_argument19extract_pyclass_ref17h71070535d0effedfE, symObjAddr: 0x2A78, symBinAddr: 0x2371C, symSize: 0xC8 }
  - { offset: 0x7DC24, size: 0x8, addend: 0x0, symName: __ZN4pyo35impl_16extract_argument19extract_pyclass_ref17h734ddc4b9081a8ccE, symObjAddr: 0x2B40, symBinAddr: 0x237E4, symSize: 0xC8 }
  - { offset: 0x7DC87, size: 0x8, addend: 0x0, symName: __ZN4pyo35impl_16extract_argument19extract_pyclass_ref17h7469b99ca6cbba92E, symObjAddr: 0x2C08, symBinAddr: 0x238AC, symSize: 0xC8 }
  - { offset: 0x7DCEA, size: 0x8, addend: 0x0, symName: __ZN4pyo35impl_16extract_argument19extract_pyclass_ref17h9a09653b88c6c38fE, symObjAddr: 0x2CD0, symBinAddr: 0x23974, symSize: 0xC8 }
  - { offset: 0x7DD4D, size: 0x8, addend: 0x0, symName: __ZN4pyo35impl_16extract_argument19extract_pyclass_ref17h9bb443f791075437E, symObjAddr: 0x2D98, symBinAddr: 0x23A3C, symSize: 0xC8 }
  - { offset: 0x7DDB0, size: 0x8, addend: 0x0, symName: __ZN4pyo35impl_16extract_argument19extract_pyclass_ref17hb93987367b1d11acE, symObjAddr: 0x2E60, symBinAddr: 0x23B04, symSize: 0xC8 }
  - { offset: 0x7DE13, size: 0x8, addend: 0x0, symName: __ZN4pyo35impl_16extract_argument19extract_pyclass_ref17hbe3bb630d05936b8E, symObjAddr: 0x2F28, symBinAddr: 0x23BCC, symSize: 0xC8 }
  - { offset: 0x7DE76, size: 0x8, addend: 0x0, symName: __ZN4pyo35impl_16extract_argument19extract_pyclass_ref17hcb200be62cdb81ecE, symObjAddr: 0x2FF0, symBinAddr: 0x23C94, symSize: 0xC8 }
  - { offset: 0x7DED9, size: 0x8, addend: 0x0, symName: __ZN4pyo35impl_16extract_argument19extract_pyclass_ref17hd157f7ccab4427d4E, symObjAddr: 0x30B8, symBinAddr: 0x23D5C, symSize: 0xC8 }
  - { offset: 0x7DF3C, size: 0x8, addend: 0x0, symName: __ZN4pyo35impl_16extract_argument19extract_pyclass_ref17hdc3b27ee16a55806E, symObjAddr: 0x3180, symBinAddr: 0x23E24, symSize: 0xC8 }
  - { offset: 0x7DF9F, size: 0x8, addend: 0x0, symName: __ZN4pyo35impl_16extract_argument19extract_pyclass_ref17heeaa8ef289fbfd7aE, symObjAddr: 0x3248, symBinAddr: 0x23EEC, symSize: 0xC8 }
  - { offset: 0x7E002, size: 0x8, addend: 0x0, symName: __ZN4pyo35impl_16extract_argument19extract_pyclass_ref17hf4de1af5d3f5a767E, symObjAddr: 0x3310, symBinAddr: 0x23FB4, symSize: 0xC8 }
  - { offset: 0x7E065, size: 0x8, addend: 0x0, symName: __ZN4pyo35impl_16extract_argument19extract_pyclass_ref17hf75f15f6e879899aE, symObjAddr: 0x33D8, symBinAddr: 0x2407C, symSize: 0xC8 }
  - { offset: 0x7E0C8, size: 0x8, addend: 0x0, symName: __ZN4pyo35impl_16extract_argument23extract_pyclass_ref_mut17h0e9fa64e3eed486bE, symObjAddr: 0x34A0, symBinAddr: 0x24144, symSize: 0xC8 }
  - { offset: 0x7E12B, size: 0x8, addend: 0x0, symName: __ZN4pyo35impl_16extract_argument23extract_pyclass_ref_mut17h102fbc2c5dae7b3eE, symObjAddr: 0x3568, symBinAddr: 0x2420C, symSize: 0xC8 }
  - { offset: 0x7E18E, size: 0x8, addend: 0x0, symName: __ZN4pyo35impl_16extract_argument23extract_pyclass_ref_mut17h2e9a8610ee6e8a90E, symObjAddr: 0x3630, symBinAddr: 0x242D4, symSize: 0xC8 }
  - { offset: 0x7E1F1, size: 0x8, addend: 0x0, symName: __ZN4pyo35impl_16extract_argument23extract_pyclass_ref_mut17h411425e70a7d7a97E, symObjAddr: 0x36F8, symBinAddr: 0x2439C, symSize: 0xC8 }
  - { offset: 0x7E254, size: 0x8, addend: 0x0, symName: __ZN4pyo35impl_16extract_argument23extract_pyclass_ref_mut17h4e22c7102fe6c277E, symObjAddr: 0x37C0, symBinAddr: 0x24464, symSize: 0xC8 }
  - { offset: 0x7E2B7, size: 0x8, addend: 0x0, symName: __ZN4pyo35impl_16extract_argument23extract_pyclass_ref_mut17h53cdf3b3283d6b1cE, symObjAddr: 0x3888, symBinAddr: 0x2452C, symSize: 0xC8 }
  - { offset: 0x7E31A, size: 0x8, addend: 0x0, symName: __ZN4pyo35impl_16extract_argument23extract_pyclass_ref_mut17h5b1d18fb07b66d4bE, symObjAddr: 0x3950, symBinAddr: 0x245F4, symSize: 0xC8 }
  - { offset: 0x7E37D, size: 0x8, addend: 0x0, symName: __ZN4pyo35impl_16extract_argument23extract_pyclass_ref_mut17h794e1eeb52fc02aaE, symObjAddr: 0x3A18, symBinAddr: 0x246BC, symSize: 0xC8 }
  - { offset: 0x7E3E0, size: 0x8, addend: 0x0, symName: __ZN4pyo35impl_16extract_argument23extract_pyclass_ref_mut17h7de0d1c18a695e47E, symObjAddr: 0x3AE0, symBinAddr: 0x24784, symSize: 0xC8 }
  - { offset: 0x7E443, size: 0x8, addend: 0x0, symName: __ZN4pyo35impl_16extract_argument23extract_pyclass_ref_mut17h87dc1162c4ed2795E, symObjAddr: 0x3BA8, symBinAddr: 0x2484C, symSize: 0xC8 }
  - { offset: 0x7E4A6, size: 0x8, addend: 0x0, symName: __ZN4pyo35impl_16extract_argument23extract_pyclass_ref_mut17h955613a718be9c2dE, symObjAddr: 0x3C70, symBinAddr: 0x24914, symSize: 0xC8 }
  - { offset: 0x7E509, size: 0x8, addend: 0x0, symName: __ZN4pyo35impl_16extract_argument23extract_pyclass_ref_mut17ha86916cf628bfa17E, symObjAddr: 0x3D38, symBinAddr: 0x249DC, symSize: 0xC8 }
  - { offset: 0x7E56C, size: 0x8, addend: 0x0, symName: __ZN4pyo35impl_16extract_argument23extract_pyclass_ref_mut17ha9d7cceaec8e779fE, symObjAddr: 0x3E00, symBinAddr: 0x24AA4, symSize: 0xC8 }
  - { offset: 0x7E5CF, size: 0x8, addend: 0x0, symName: __ZN4pyo35impl_16extract_argument23extract_pyclass_ref_mut17haeb3c1f6ae2888beE, symObjAddr: 0x3EC8, symBinAddr: 0x24B6C, symSize: 0xC8 }
  - { offset: 0x7E632, size: 0x8, addend: 0x0, symName: __ZN4pyo35impl_16extract_argument23extract_pyclass_ref_mut17hc622c7de7f4f9d52E, symObjAddr: 0x3F90, symBinAddr: 0x24C34, symSize: 0xC8 }
  - { offset: 0x7E695, size: 0x8, addend: 0x0, symName: __ZN4pyo35impl_16extract_argument23extract_pyclass_ref_mut17hdf86e9aef5b791cbE, symObjAddr: 0x4058, symBinAddr: 0x24CFC, symSize: 0xC8 }
  - { offset: 0x7E6F8, size: 0x8, addend: 0x0, symName: __ZN4pyo35impl_16extract_argument23extract_pyclass_ref_mut17hed11eacbd9f286feE, symObjAddr: 0x4120, symBinAddr: 0x24DC4, symSize: 0xC8 }
  - { offset: 0x7E75B, size: 0x8, addend: 0x0, symName: __ZN4pyo35impl_16extract_argument25extract_optional_argument17hc9b3921e4de73830E, symObjAddr: 0x41E8, symBinAddr: 0x24E8C, symSize: 0xCC }
  - { offset: 0x7E7D0, size: 0x8, addend: 0x0, symName: __ZN4pyo35impl_16extract_argument29extract_argument_with_default17h451020956f001a43E, symObjAddr: 0x42B4, symBinAddr: 0x24F58, symSize: 0x90 }
  - { offset: 0x7E84C, size: 0x8, addend: 0x0, symName: __ZN4pyo35impl_16extract_argument29extract_argument_with_default17hc00fc4789952217bE, symObjAddr: 0x4344, symBinAddr: 0x24FE8, symSize: 0x8C }
  - { offset: 0x7E8CD, size: 0x8, addend: 0x0, symName: '__ZN71_$LT$T$u20$as$u20$pyo3..impl_..extract_argument..PyFunctionArgument$GT$7extract17h05efabaffbf5b167E', symObjAddr: 0x43D0, symBinAddr: 0x25074, symSize: 0x28 }
  - { offset: 0x7E90C, size: 0x8, addend: 0x0, symName: '__ZN71_$LT$T$u20$as$u20$pyo3..impl_..extract_argument..PyFunctionArgument$GT$7extract17hdcd981b7c1d26f12E', symObjAddr: 0x43F8, symBinAddr: 0x2509C, symSize: 0x28 }
  - { offset: 0x7E94B, size: 0x8, addend: 0x0, symName: '__ZN71_$LT$T$u20$as$u20$pyo3..impl_..extract_argument..PyFunctionArgument$GT$7extract17hdf828d3f1649a446E', symObjAddr: 0x4420, symBinAddr: 0x250C4, symSize: 0x28 }
  - { offset: 0x8006B, size: 0x8, addend: 0x0, symName: __ZN4pyo35impl_16extract_argument19FunctionDescription13handle_kwargs17h76ccf787db6b2430E, symObjAddr: 0xA44, symBinAddr: 0x216E8, symSize: 0x708 }
  - { offset: 0x80286, size: 0x8, addend: 0x0, symName: __ZN4pyo35impl_16extract_argument19FunctionDescription13handle_kwargs17h97fc639de4e3814fE, symObjAddr: 0x114C, symBinAddr: 0x21DF0, symSize: 0x70C }
  - { offset: 0x804A5, size: 0x8, addend: 0x0, symName: __ZN4pyo35impl_16extract_argument19FunctionDescription26extract_arguments_fastcall17h8b09dd7b00db3c3fE, symObjAddr: 0x1858, symBinAddr: 0x224FC, symSize: 0x638 }
  - { offset: 0x807D7, size: 0x8, addend: 0x0, symName: __ZN4pyo35impl_16extract_argument19FunctionDescription28extract_arguments_tuple_dict17h7c914c1858b78a3eE, symObjAddr: 0x1EB4, symBinAddr: 0x22B58, symSize: 0x4E0 }
  - { offset: 0x816E5, size: 0x8, addend: 0x0, symName: __ZN4core4iter6traits8iterator8Iterator3zip17h73b958130577e9b4E, symObjAddr: 0x0, symBinAddr: 0x250EC, symSize: 0xB4 }
  - { offset: 0x81FDC, size: 0x8, addend: 0x0, symName: __ZN4core4iter6traits8iterator8Iterator3zip17h73b958130577e9b4E, symObjAddr: 0x0, symBinAddr: 0x250EC, symSize: 0xB4 }
  - { offset: 0x82052, size: 0x8, addend: 0x0, symName: __ZN4core4iter6traits8iterator8Iterator4take17h843d8db163f706f1E, symObjAddr: 0xB4, symBinAddr: 0x251A0, symSize: 0x24 }
  - { offset: 0x82EC3, size: 0x8, addend: 0x0, symName: '__ZN4pyo35types5tuple76_$LT$impl$u20$pyo3..conversion..IntoPyObject$u20$for$u20$$LP$T0$C$T1$RP$$GT$13into_pyobject17hf88e7dddca6f2e85E', symObjAddr: 0xD8, symBinAddr: 0x251C4, symSize: 0x1F4 }
  - { offset: 0x83994, size: 0x8, addend: 0x0, symName: '__ZN4pyo35impl_4wrap82EmptyTupleConverter$LT$core..result..Result$LT$$LP$$RP$$C$pyo3..err..PyErr$GT$$GT$12map_into_ptr17h094470474e465416E', symObjAddr: 0x0, symBinAddr: 0x253B8, symSize: 0x44 }
  - { offset: 0x85728, size: 0x8, addend: 0x0, symName: '__ZN4pyo35impl_4wrap82EmptyTupleConverter$LT$core..result..Result$LT$$LP$$RP$$C$pyo3..err..PyErr$GT$$GT$12map_into_ptr17h094470474e465416E', symObjAddr: 0x0, symBinAddr: 0x253B8, symSize: 0x44 }
  - { offset: 0x85790, size: 0x8, addend: 0x0, symName: '__ZN109_$LT$pyo3..types..dict..borrowed_iter..BorrowedDictIter$u20$as$u20$core..iter..traits..iterator..Iterator$GT$4next17hc4c6723c04a6bbebE', symObjAddr: 0x0, symBinAddr: 0x253FC, symSize: 0xE4 }
  - { offset: 0x8697F, size: 0x8, addend: 0x0, symName: '__ZN109_$LT$pyo3..types..dict..borrowed_iter..BorrowedDictIter$u20$as$u20$core..iter..traits..iterator..Iterator$GT$4next17hc4c6723c04a6bbebE', symObjAddr: 0x0, symBinAddr: 0x253FC, symSize: 0xE4 }
  - { offset: 0x870A0, size: 0x8, addend: 0x0, symName: __ZN3std5panic12catch_unwind17h034c1257f87da684E, symObjAddr: 0x0, symBinAddr: 0x254E0, symSize: 0xE4 }
  - { offset: 0x89330, size: 0x8, addend: 0x0, symName: __ZN3std5panic12catch_unwind17h034c1257f87da684E, symObjAddr: 0x0, symBinAddr: 0x254E0, symSize: 0xE4 }
  - { offset: 0x89455, size: 0x8, addend: 0x0, symName: __ZN3std5panic12catch_unwind17h1bd5c9f00719b1b7E, symObjAddr: 0xE4, symBinAddr: 0x255C4, symSize: 0x10C }
  - { offset: 0x895B1, size: 0x8, addend: 0x0, symName: __ZN3std5panic12catch_unwind17h3a89715c91e2c05bE, symObjAddr: 0x1F0, symBinAddr: 0x256D0, symSize: 0xE4 }
  - { offset: 0x896D6, size: 0x8, addend: 0x0, symName: __ZN3std5panic12catch_unwind17haf7e36cb85765aa8E, symObjAddr: 0x2D4, symBinAddr: 0x257B4, symSize: 0xD4 }
  - { offset: 0x897FB, size: 0x8, addend: 0x0, symName: __ZN3std5panic12catch_unwind17hc08f3eeb64174139E, symObjAddr: 0x3A8, symBinAddr: 0x25888, symSize: 0xE4 }
  - { offset: 0x89920, size: 0x8, addend: 0x0, symName: __ZN3std5panic12catch_unwind17hc3a4ab1be626fbbcE, symObjAddr: 0x48C, symBinAddr: 0x2596C, symSize: 0xE4 }
  - { offset: 0x89A45, size: 0x8, addend: 0x0, symName: __ZN3std5panic12catch_unwind17hc5d975f596b40e51E, symObjAddr: 0x570, symBinAddr: 0x25A50, symSize: 0xF8 }
  - { offset: 0x8A879, size: 0x8, addend: 0x0, symName: '__ZN128_$LT$pyo3..impl_..pyclass_init..PyNativeTypeInitializer$LT$T$GT$$u20$as$u20$pyo3..impl_..pyclass_init..PyObjectInit$LT$T$GT$$GT$15into_new_object17hc5dfd92efdf0bfc4E', symObjAddr: 0x0, symBinAddr: 0x25B9C, symSize: 0x3C }
  - { offset: 0x8BC7D, size: 0x8, addend: 0x0, symName: '__ZN128_$LT$pyo3..impl_..pyclass_init..PyNativeTypeInitializer$LT$T$GT$$u20$as$u20$pyo3..impl_..pyclass_init..PyObjectInit$LT$T$GT$$GT$15into_new_object17hc5dfd92efdf0bfc4E', symObjAddr: 0x0, symBinAddr: 0x25B9C, symSize: 0x3C }
  - { offset: 0x8BD01, size: 0x8, addend: 0x0, symName: '__ZN128_$LT$pyo3..impl_..pyclass_init..PyNativeTypeInitializer$LT$T$GT$$u20$as$u20$pyo3..impl_..pyclass_init..PyObjectInit$LT$T$GT$$GT$17can_be_subclassed17hcb3c887b12799b4dE', symObjAddr: 0x3C, symBinAddr: 0x25BD8, symSize: 0x18 }
  - { offset: 0x8C5DA, size: 0x8, addend: 0x0, symName: '__ZN111_$LT$T$u20$as$u20$pyo3..impl_..callback..IntoPyCallbackOutput$LT$$BP$mut$u20$pyo3_ffi..object..PyObject$GT$$GT$7convert17h6cac7fd21a5ed812E', symObjAddr: 0x0, symBinAddr: 0x25BF0, symSize: 0x44 }
  - { offset: 0x8DD32, size: 0x8, addend: 0x0, symName: '__ZN111_$LT$T$u20$as$u20$pyo3..impl_..callback..IntoPyCallbackOutput$LT$$BP$mut$u20$pyo3_ffi..object..PyObject$GT$$GT$7convert17h6cac7fd21a5ed812E', symObjAddr: 0x0, symBinAddr: 0x25BF0, symSize: 0x44 }
  - { offset: 0x8DD8D, size: 0x8, addend: 0x0, symName: '__ZN71_$LT$T$u20$as$u20$pyo3..impl_..extract_argument..PyFunctionArgument$GT$7extract17heb786a2d5a687e6aE', symObjAddr: 0x17C, symBinAddr: 0x25D6C, symSize: 0x28 }
  - { offset: 0x8DDF4, size: 0x8, addend: 0x0, symName: __ZN4pyo310conversion12IntoPyObject28owned_sequence_into_pyobject17hf153063b17adf0feE, symObjAddr: 0x44, symBinAddr: 0x25C34, symSize: 0xDC }
  - { offset: 0x8DEAA, size: 0x8, addend: 0x0, symName: '__ZN57_$LT$T$u20$as$u20$pyo3..conversion..FromPyObjectBound$GT$20from_py_object_bound17ha8bdcd3268600d1cE', symObjAddr: 0x120, symBinAddr: 0x25D10, symSize: 0x34 }
  - { offset: 0x8E1D0, size: 0x8, addend: 0x0, symName: '__ZN5alloc5slice29_$LT$impl$u20$$u5b$T$u5d$$GT$6to_vec17h00b69015fc6af1a4E', symObjAddr: 0x154, symBinAddr: 0x25D44, symSize: 0x28 }
  - { offset: 0x8EAFF, size: 0x8, addend: 0x0, symName: '__ZN79_$LT$pyo3..exceptions..PyException$u20$as$u20$pyo3..type_object..PyTypeInfo$GT$15type_object_raw17h096a12cae5db2be4E', symObjAddr: 0x0, symBinAddr: 0x25D94, symSize: 0x24 }
  - { offset: 0x8FBED, size: 0x8, addend: 0x0, symName: '__ZN79_$LT$pyo3..exceptions..PyException$u20$as$u20$pyo3..type_object..PyTypeInfo$GT$15type_object_raw17h096a12cae5db2be4E', symObjAddr: 0x0, symBinAddr: 0x25D94, symSize: 0x24 }
  - { offset: 0x9015E, size: 0x8, addend: 0x0, symName: __ZN4pyo311type_object10PyTypeInfo10is_type_of17h4ae6a6da51907271E, symObjAddr: 0x0, symBinAddr: 0x25DB8, symSize: 0x50 }
  - { offset: 0x90973, size: 0x8, addend: 0x0, symName: '__ZN50_$LT$T$u20$as$u20$core..convert..Into$LT$U$GT$$GT$4into17h3db6809f47c90f56E', symObjAddr: 0x180, symBinAddr: 0x25F38, symSize: 0x14 }
  - { offset: 0x909B4, size: 0x8, addend: 0x0, symName: '__ZN50_$LT$T$u20$as$u20$core..convert..Into$LT$U$GT$$GT$4into17h88c01db8d9f67293E', symObjAddr: 0x194, symBinAddr: 0x25F4C, symSize: 0x14 }
  - { offset: 0x918E1, size: 0x8, addend: 0x0, symName: __ZN4pyo311type_object10PyTypeInfo10is_type_of17h4ae6a6da51907271E, symObjAddr: 0x0, symBinAddr: 0x25DB8, symSize: 0x50 }
  - { offset: 0x91916, size: 0x8, addend: 0x0, symName: __ZN4pyo311type_object10PyTypeInfo10is_type_of17hcdccb436ba638ce9E, symObjAddr: 0x50, symBinAddr: 0x25E08, symSize: 0x50 }
  - { offset: 0x91951, size: 0x8, addend: 0x0, symName: '__ZN52_$LT$T$u20$as$u20$pyo3..type_object..PyTypeCheck$GT$10type_check17h08a92519c71989cdE', symObjAddr: 0x1A8, symBinAddr: 0x25F60, symSize: 0x24 }
  - { offset: 0x91986, size: 0x8, addend: 0x0, symName: '__ZN52_$LT$T$u20$as$u20$pyo3..type_object..PyTypeCheck$GT$10type_check17he82e973b341bba50E', symObjAddr: 0x1CC, symBinAddr: 0x25F84, symSize: 0x24 }
  - { offset: 0x919C7, size: 0x8, addend: 0x0, symName: '__ZN4pyo312pyclass_init130_$LT$impl$u20$pyo3..impl_..callback..IntoPyCallbackOutput$LT$pyo3..pyclass_init..PyClassInitializer$LT$T$GT$$GT$$u20$for$u20$U$GT$7convert17h82cfe2cd92f78f6dE', symObjAddr: 0xA0, symBinAddr: 0x25E58, symSize: 0x60 }
  - { offset: 0x91A25, size: 0x8, addend: 0x0, symName: '__ZN4pyo312pyclass_init130_$LT$impl$u20$pyo3..impl_..callback..IntoPyCallbackOutput$LT$pyo3..pyclass_init..PyClassInitializer$LT$T$GT$$GT$$u20$for$u20$U$GT$7convert17he020b04d710a9bc0E', symObjAddr: 0x100, symBinAddr: 0x25EB8, symSize: 0x60 }
  - { offset: 0x91BD0, size: 0x8, addend: 0x0, symName: __ZN4pyo35impl_7pyclass11PyClassImpl11dict_offset17h69f34da831c209eaE, symObjAddr: 0x160, symBinAddr: 0x25F18, symSize: 0x8 }
  - { offset: 0x91BF7, size: 0x8, addend: 0x0, symName: __ZN4pyo35impl_7pyclass11PyClassImpl11dict_offset17h71f9895131eec7a9E, symObjAddr: 0x168, symBinAddr: 0x25F20, symSize: 0x8 }
  - { offset: 0x91C1E, size: 0x8, addend: 0x0, symName: __ZN4pyo35impl_7pyclass11PyClassImpl15weaklist_offset17h7081cd6aa2c0269eE, symObjAddr: 0x170, symBinAddr: 0x25F28, symSize: 0x8 }
  - { offset: 0x91C45, size: 0x8, addend: 0x0, symName: __ZN4pyo35impl_7pyclass11PyClassImpl15weaklist_offset17h981ff257d46577fbE, symObjAddr: 0x178, symBinAddr: 0x25F30, symSize: 0x8 }
  - { offset: 0x91F40, size: 0x8, addend: 0x0, symName: '__ZN82_$LT$_oryon..scalers..FixedZScore$u20$as$u20$pyo3..impl_..pyclass..PyClassImpl$GT$3doc28_$u7b$$u7b$closure$u7d$$u7d$17h13be32268489a146E', symObjAddr: 0x1F0, symBinAddr: 0x25FA8, symSize: 0x54 }
  - { offset: 0x91F98, size: 0x8, addend: 0x0, symName: '__ZN84_$LT$_oryon..scalers..RollingZScore$u20$as$u20$pyo3..impl_..pyclass..PyClassImpl$GT$3doc28_$u7b$$u7b$closure$u7d$$u7d$17h8f344cc8f8bc8906E', symObjAddr: 0x244, symBinAddr: 0x25FFC, symSize: 0x54 }
  - { offset: 0x92A3D, size: 0x8, addend: 0x0, symName: __ZN4pyo37pyclass18create_type_object18create_type_object17h080260e46f3ad6feE, symObjAddr: 0x0, symBinAddr: 0x26050, symSize: 0x174 }
  - { offset: 0x9463C, size: 0x8, addend: 0x0, symName: __ZN4pyo37pyclass18create_type_object18create_type_object17h080260e46f3ad6feE, symObjAddr: 0x0, symBinAddr: 0x26050, symSize: 0x174 }
  - { offset: 0x9469C, size: 0x8, addend: 0x0, symName: __ZN4pyo37pyclass18create_type_object18create_type_object17h08fac31480867b23E, symObjAddr: 0x174, symBinAddr: 0x261C4, symSize: 0x174 }
  - { offset: 0x946FC, size: 0x8, addend: 0x0, symName: __ZN4pyo37pyclass18create_type_object18create_type_object17h217a44848e44b27aE, symObjAddr: 0x2E8, symBinAddr: 0x26338, symSize: 0x174 }
  - { offset: 0x9475C, size: 0x8, addend: 0x0, symName: __ZN4pyo37pyclass18create_type_object18create_type_object17h4a71e28eeed39271E, symObjAddr: 0x45C, symBinAddr: 0x264AC, symSize: 0x174 }
  - { offset: 0x947BC, size: 0x8, addend: 0x0, symName: __ZN4pyo37pyclass18create_type_object18create_type_object17h53dfae4099fdeb74E, symObjAddr: 0x5D0, symBinAddr: 0x26620, symSize: 0x178 }
  - { offset: 0x9481C, size: 0x8, addend: 0x0, symName: __ZN4pyo37pyclass18create_type_object18create_type_object17h62b84b21a4306646E, symObjAddr: 0x748, symBinAddr: 0x26798, symSize: 0x174 }
  - { offset: 0x9487C, size: 0x8, addend: 0x0, symName: __ZN4pyo37pyclass18create_type_object18create_type_object17h6df51526908a7307E, symObjAddr: 0x8BC, symBinAddr: 0x2690C, symSize: 0x178 }
  - { offset: 0x948DC, size: 0x8, addend: 0x0, symName: __ZN4pyo37pyclass18create_type_object18create_type_object17h7127dd90185aaea2E, symObjAddr: 0xA34, symBinAddr: 0x26A84, symSize: 0x174 }
  - { offset: 0x9493C, size: 0x8, addend: 0x0, symName: __ZN4pyo37pyclass18create_type_object18create_type_object17h75daa2220799160bE, symObjAddr: 0xBA8, symBinAddr: 0x26BF8, symSize: 0x174 }
  - { offset: 0x9499C, size: 0x8, addend: 0x0, symName: __ZN4pyo37pyclass18create_type_object18create_type_object17h82e204bafd31297eE, symObjAddr: 0xD1C, symBinAddr: 0x26D6C, symSize: 0x174 }
  - { offset: 0x949FC, size: 0x8, addend: 0x0, symName: __ZN4pyo37pyclass18create_type_object18create_type_object17h87148d137cbf6366E, symObjAddr: 0xE90, symBinAddr: 0x26EE0, symSize: 0x174 }
  - { offset: 0x94A5C, size: 0x8, addend: 0x0, symName: __ZN4pyo37pyclass18create_type_object18create_type_object17h9596611394cd45fbE, symObjAddr: 0x1004, symBinAddr: 0x27054, symSize: 0x174 }
  - { offset: 0x94ABC, size: 0x8, addend: 0x0, symName: __ZN4pyo37pyclass18create_type_object18create_type_object17h9b7805af3a05cc97E, symObjAddr: 0x1178, symBinAddr: 0x271C8, symSize: 0x174 }
  - { offset: 0x94B1C, size: 0x8, addend: 0x0, symName: __ZN4pyo37pyclass18create_type_object18create_type_object17hb0c61f863ec915f4E, symObjAddr: 0x12EC, symBinAddr: 0x2733C, symSize: 0x174 }
  - { offset: 0x94B7C, size: 0x8, addend: 0x0, symName: __ZN4pyo37pyclass18create_type_object18create_type_object17hba461c4accd9d74cE, symObjAddr: 0x1460, symBinAddr: 0x274B0, symSize: 0x174 }
  - { offset: 0x94BDC, size: 0x8, addend: 0x0, symName: __ZN4pyo37pyclass18create_type_object18create_type_object17hccdc5d717d3115d6E, symObjAddr: 0x15D4, symBinAddr: 0x27624, symSize: 0x174 }
  - { offset: 0x94C3C, size: 0x8, addend: 0x0, symName: __ZN4pyo37pyclass18create_type_object18create_type_object17hd83124930380f174E, symObjAddr: 0x1748, symBinAddr: 0x27798, symSize: 0x178 }
  - { offset: 0x94C9C, size: 0x8, addend: 0x0, symName: __ZN4pyo37pyclass18create_type_object18create_type_object17hdf15bb4e1c3bbd48E, symObjAddr: 0x18C0, symBinAddr: 0x27910, symSize: 0x174 }
  - { offset: 0x94CFC, size: 0x8, addend: 0x0, symName: __ZN4pyo37pyclass18create_type_object18create_type_object17he083a9aa9cedfa42E, symObjAddr: 0x1A34, symBinAddr: 0x27A84, symSize: 0x174 }
  - { offset: 0x94D5C, size: 0x8, addend: 0x0, symName: __ZN4pyo37pyclass18create_type_object18create_type_object17hea5968e836c543fbE, symObjAddr: 0x1BA8, symBinAddr: 0x27BF8, symSize: 0x174 }
  - { offset: 0x94DBC, size: 0x8, addend: 0x0, symName: __ZN4pyo37pyclass18create_type_object18create_type_object17hf7dfe5e439f765efE, symObjAddr: 0x1D1C, symBinAddr: 0x27D6C, symSize: 0x174 }
  - { offset: 0x95F93, size: 0x8, addend: 0x0, symName: '__ZN4core3mem13manually_drop21ManuallyDrop$LT$T$GT$4drop17h086dbb40678d91f8E', symObjAddr: 0x0, symBinAddr: 0x27EE0, symSize: 0x20 }
  - { offset: 0x97546, size: 0x8, addend: 0x0, symName: '__ZN4core3mem13manually_drop21ManuallyDrop$LT$T$GT$4drop17h086dbb40678d91f8E', symObjAddr: 0x0, symBinAddr: 0x27EE0, symSize: 0x20 }
  - { offset: 0x9757F, size: 0x8, addend: 0x0, symName: '__ZN4core3mem13manually_drop21ManuallyDrop$LT$T$GT$4drop17h093c09d52c0d5c1eE', symObjAddr: 0x20, symBinAddr: 0x27F00, symSize: 0x20 }
  - { offset: 0x975B8, size: 0x8, addend: 0x0, symName: '__ZN4core3mem13manually_drop21ManuallyDrop$LT$T$GT$4drop17h12f76af21835c848E', symObjAddr: 0x40, symBinAddr: 0x27F20, symSize: 0x20 }
  - { offset: 0x975F1, size: 0x8, addend: 0x0, symName: '__ZN4core3mem13manually_drop21ManuallyDrop$LT$T$GT$4drop17h142d6e16e8acf223E', symObjAddr: 0x60, symBinAddr: 0x27F40, symSize: 0x20 }
  - { offset: 0x9762A, size: 0x8, addend: 0x0, symName: '__ZN4core3mem13manually_drop21ManuallyDrop$LT$T$GT$4drop17h2a9df8f908508418E', symObjAddr: 0x80, symBinAddr: 0x27F60, symSize: 0x20 }
  - { offset: 0x97663, size: 0x8, addend: 0x0, symName: '__ZN4core3mem13manually_drop21ManuallyDrop$LT$T$GT$4drop17h2c454719f15ff211E', symObjAddr: 0xA0, symBinAddr: 0x27F80, symSize: 0x20 }
  - { offset: 0x97856, size: 0x8, addend: 0x0, symName: '__ZN4core3mem13manually_drop21ManuallyDrop$LT$T$GT$4drop17h2e76285707beed87E', symObjAddr: 0xC0, symBinAddr: 0x27FA0, symSize: 0x20 }
  - { offset: 0x9788F, size: 0x8, addend: 0x0, symName: '__ZN4core3mem13manually_drop21ManuallyDrop$LT$T$GT$4drop17h30406b30da7d93a6E', symObjAddr: 0xE0, symBinAddr: 0x27FC0, symSize: 0x20 }
  - { offset: 0x97910, size: 0x8, addend: 0x0, symName: '__ZN4core3mem13manually_drop21ManuallyDrop$LT$T$GT$4drop17h403ea50d6656b865E', symObjAddr: 0x100, symBinAddr: 0x27FE0, symSize: 0x20 }
  - { offset: 0x97949, size: 0x8, addend: 0x0, symName: '__ZN4core3mem13manually_drop21ManuallyDrop$LT$T$GT$4drop17h552d44a71f29ac58E', symObjAddr: 0x120, symBinAddr: 0x28000, symSize: 0x20 }
  - { offset: 0x97982, size: 0x8, addend: 0x0, symName: '__ZN4core3mem13manually_drop21ManuallyDrop$LT$T$GT$4drop17h5efe209b6cc6b321E', symObjAddr: 0x140, symBinAddr: 0x28020, symSize: 0x20 }
  - { offset: 0x979BB, size: 0x8, addend: 0x0, symName: '__ZN4core3mem13manually_drop21ManuallyDrop$LT$T$GT$4drop17h6cd8490ca2a376b9E', symObjAddr: 0x160, symBinAddr: 0x28040, symSize: 0x20 }
  - { offset: 0x979F4, size: 0x8, addend: 0x0, symName: '__ZN4core3mem13manually_drop21ManuallyDrop$LT$T$GT$4drop17h7c93fad10d18513bE', symObjAddr: 0x180, symBinAddr: 0x28060, symSize: 0x20 }
  - { offset: 0x97A2D, size: 0x8, addend: 0x0, symName: '__ZN4core3mem13manually_drop21ManuallyDrop$LT$T$GT$4drop17h8014bb536b2e966aE', symObjAddr: 0x1A0, symBinAddr: 0x28080, symSize: 0x20 }
  - { offset: 0x97A66, size: 0x8, addend: 0x0, symName: '__ZN4core3mem13manually_drop21ManuallyDrop$LT$T$GT$4drop17h8136e2c412f84ca9E', symObjAddr: 0x1C0, symBinAddr: 0x280A0, symSize: 0x20 }
  - { offset: 0x97A9F, size: 0x8, addend: 0x0, symName: '__ZN4core3mem13manually_drop21ManuallyDrop$LT$T$GT$4drop17h8d759be45035d873E', symObjAddr: 0x1E0, symBinAddr: 0x280C0, symSize: 0x20 }
  - { offset: 0x97AD8, size: 0x8, addend: 0x0, symName: '__ZN4core3mem13manually_drop21ManuallyDrop$LT$T$GT$4drop17h91fa2ccf0a8cf948E', symObjAddr: 0x200, symBinAddr: 0x280E0, symSize: 0x20 }
  - { offset: 0x97B11, size: 0x8, addend: 0x0, symName: '__ZN4core3mem13manually_drop21ManuallyDrop$LT$T$GT$4drop17h9d9409a7ee3f9addE', symObjAddr: 0x220, symBinAddr: 0x28100, symSize: 0x20 }
  - { offset: 0x97B4A, size: 0x8, addend: 0x0, symName: '__ZN4core3mem13manually_drop21ManuallyDrop$LT$T$GT$4drop17ha3be8c2b7fa627cdE', symObjAddr: 0x240, symBinAddr: 0x28120, symSize: 0x20 }
  - { offset: 0x97B83, size: 0x8, addend: 0x0, symName: '__ZN4core3mem13manually_drop21ManuallyDrop$LT$T$GT$4drop17hd28c2c35f70a51f4E', symObjAddr: 0x260, symBinAddr: 0x28140, symSize: 0x20 }
  - { offset: 0x97BBC, size: 0x8, addend: 0x0, symName: '__ZN4core3mem13manually_drop21ManuallyDrop$LT$T$GT$4drop17hf7cc1fd988fb32b7E', symObjAddr: 0x280, symBinAddr: 0x28160, symSize: 0x20 }
  - { offset: 0x97C06, size: 0x8, addend: 0x0, symName: '__ZN104_$LT$core..iter..adapters..copied..Copied$LT$I$GT$$u20$as$u20$core..iter..traits..iterator..Iterator$GT$4next17h2131d98a02cda8b8E', symObjAddr: 0x0, symBinAddr: 0x28180, symSize: 0x5C }
  - { offset: 0x98E6D, size: 0x8, addend: 0x0, symName: '__ZN104_$LT$core..iter..adapters..copied..Copied$LT$I$GT$$u20$as$u20$core..iter..traits..iterator..Iterator$GT$4next17h2131d98a02cda8b8E', symObjAddr: 0x0, symBinAddr: 0x28180, symSize: 0x5C }
  - { offset: 0x98F12, size: 0x8, addend: 0x0, symName: '__ZN63_$LT$I$u20$as$u20$core..iter..traits..collect..IntoIterator$GT$9into_iter17hb36226d7c750ee47E', symObjAddr: 0x5C, symBinAddr: 0x281DC, symSize: 0x1C }
  - { offset: 0x995CE, size: 0x8, addend: 0x0, symName: '__ZN5alloc7raw_vec19RawVec$LT$T$C$A$GT$8grow_one17h2af2681d6f16e561E', symObjAddr: 0x0, symBinAddr: 0x281F8, symSize: 0x88 }
  - { offset: 0x9AE0E, size: 0x8, addend: 0x0, symName: '__ZN5alloc7raw_vec19RawVec$LT$T$C$A$GT$8grow_one17h2af2681d6f16e561E', symObjAddr: 0x0, symBinAddr: 0x281F8, symSize: 0x88 }
  - { offset: 0x9AEC5, size: 0x8, addend: 0x0, symName: '__ZN5alloc7raw_vec19RawVec$LT$T$C$A$GT$8grow_one17h46a1f1d4bb9ac697E', symObjAddr: 0x88, symBinAddr: 0x28280, symSize: 0x84 }
  - { offset: 0x9AF75, size: 0x8, addend: 0x0, symName: '__ZN5alloc7raw_vec19RawVec$LT$T$C$A$GT$8grow_one17h5e7b7b04df7c65abE', symObjAddr: 0x10C, symBinAddr: 0x28304, symSize: 0x88 }
  - { offset: 0x9B5BE, size: 0x8, addend: 0x0, symName: '__ZN5alloc7raw_vec19RawVec$LT$T$C$A$GT$8grow_one17hdea78ee0543d8a2bE', symObjAddr: 0x194, symBinAddr: 0x2838C, symSize: 0x84 }
  - { offset: 0x9B647, size: 0x8, addend: 0x0, symName: __ZN4pyo35impl_8callback7convert17h4b6d0c9cae180ebcE, symObjAddr: 0x0, symBinAddr: 0x28410, symSize: 0x20 }
  - { offset: 0x9CB44, size: 0x8, addend: 0x0, symName: __ZN4pyo35impl_8callback7convert17h4b6d0c9cae180ebcE, symObjAddr: 0x0, symBinAddr: 0x28410, symSize: 0x20 }
  - { offset: 0x9CB9B, size: 0x8, addend: 0x0, symName: __ZN4pyo35impl_8callback7convert17hf93686247bac9914E, symObjAddr: 0x20, symBinAddr: 0x28430, symSize: 0x34 }
  - { offset: 0x9CBFD, size: 0x8, addend: 0x0, symName: '__ZN82_$LT$usize$u20$as$u20$pyo3..impl_..callback..IntoPyCallbackOutput$LT$isize$GT$$GT$7convert28_$u7b$$u7b$closure$u7d$$u7d$17hecbe1d75b6e328adE', symObjAddr: 0x54, symBinAddr: 0x28464, symSize: 0x1C }
  - { offset: 0x9D59C, size: 0x8, addend: 0x0, symName: '__ZN97_$LT$alloc..ffi..c_str..CString$u20$as$u20$core..borrow..Borrow$LT$core..ffi..c_str..CStr$GT$$GT$6borrow17hffdaf85f5cb0d3a5E', symObjAddr: 0x0, symBinAddr: 0x28480, symSize: 0x20 }
  - { offset: 0x9D622, size: 0x8, addend: 0x0, symName: '__ZN97_$LT$alloc..ffi..c_str..CString$u20$as$u20$core..borrow..Borrow$LT$core..ffi..c_str..CStr$GT$$GT$6borrow17hffdaf85f5cb0d3a5E', symObjAddr: 0x0, symBinAddr: 0x28480, symSize: 0x20 }
  - { offset: 0x9D7A7, size: 0x8, addend: 0x0, symName: __ZN4core4iter6traits8iterator8Iterator3map17h1cb25ddaadc150b6E, symObjAddr: 0x0, symBinAddr: 0x284A0, symSize: 0x1C }
  - { offset: 0x9DFAB, size: 0x8, addend: 0x0, symName: __ZN4core4iter6traits8iterator8Iterator3map17h1cb25ddaadc150b6E, symObjAddr: 0x0, symBinAddr: 0x284A0, symSize: 0x1C }
  - { offset: 0x9E003, size: 0x8, addend: 0x0, symName: __ZN4core4iter6traits8iterator8Iterator3map17h31216ebdb3b3ad65E, symObjAddr: 0x1C, symBinAddr: 0x284BC, symSize: 0x1C }
  - { offset: 0x9E05B, size: 0x8, addend: 0x0, symName: __ZN4core4iter6traits8iterator8Iterator3map17h5b5e0de47e85225fE, symObjAddr: 0x38, symBinAddr: 0x284D8, symSize: 0x1C }
  - { offset: 0x9E0B3, size: 0x8, addend: 0x0, symName: __ZN4core4iter6traits8iterator8Iterator3map17h7c18f0ee80a47cf1E, symObjAddr: 0x54, symBinAddr: 0x284F4, symSize: 0x1C }
  - { offset: 0x9E10B, size: 0x8, addend: 0x0, symName: __ZN4core4iter6traits8iterator8Iterator3map17h8f380909930aede3E, symObjAddr: 0x70, symBinAddr: 0x28510, symSize: 0x1C }
  - { offset: 0x9E163, size: 0x8, addend: 0x0, symName: __ZN4core4iter6traits8iterator8Iterator3map17ha8efdc4c3c232ca8E, symObjAddr: 0x8C, symBinAddr: 0x2852C, symSize: 0x1C }
  - { offset: 0x9E1BB, size: 0x8, addend: 0x0, symName: __ZN4core4iter6traits8iterator8Iterator3map17hc40faef41fa482ccE, symObjAddr: 0xA8, symBinAddr: 0x28548, symSize: 0x1C }
  - { offset: 0x9E213, size: 0x8, addend: 0x0, symName: __ZN4core4iter6traits8iterator8Iterator3map17hd2684a27eb00fbadE, symObjAddr: 0xC4, symBinAddr: 0x28564, symSize: 0x1C }
  - { offset: 0x9E26B, size: 0x8, addend: 0x0, symName: __ZN4core4iter6traits8iterator8Iterator3map17he3e69c76fe2b0a0dE, symObjAddr: 0xE0, symBinAddr: 0x28580, symSize: 0x1C }
  - { offset: 0x9E2C3, size: 0x8, addend: 0x0, symName: __ZN4core4iter6traits8iterator8Iterator6copied17ha88a703a45cd3c01E, symObjAddr: 0xFC, symBinAddr: 0x2859C, symSize: 0x1C }
  - { offset: 0x9E303, size: 0x8, addend: 0x0, symName: __ZN4core4iter6traits8iterator8Iterator8try_fold17h3af6fda563b1cb15E, symObjAddr: 0x118, symBinAddr: 0x285B8, symSize: 0x124 }
  - { offset: 0x9E3BE, size: 0x8, addend: 0x0, symName: __ZN4core4iter6traits8iterator8Iterator8try_fold17h641e28c477280d61E, symObjAddr: 0x23C, symBinAddr: 0x286DC, symSize: 0x124 }
  - { offset: 0xA0674, size: 0x8, addend: 0x0, symName: '__ZN91_$LT$core..slice..iter..Iter$LT$T$GT$$u20$as$u20$core..iter..traits..iterator..Iterator$GT$4fold17h00eaab961b400389E', symObjAddr: 0x4B0, symBinAddr: 0x28950, symSize: 0x1E0 }
  - { offset: 0xA0875, size: 0x8, addend: 0x0, symName: '__ZN91_$LT$core..slice..iter..Iter$LT$T$GT$$u20$as$u20$core..iter..traits..iterator..Iterator$GT$4fold17h01efc241a15658f0E', symObjAddr: 0x690, symBinAddr: 0x28B30, symSize: 0x1D8 }
  - { offset: 0xA0A76, size: 0x8, addend: 0x0, symName: '__ZN91_$LT$core..slice..iter..Iter$LT$T$GT$$u20$as$u20$core..iter..traits..iterator..Iterator$GT$4fold17h19953eb5a9d7c6a5E', symObjAddr: 0x868, symBinAddr: 0x28D08, symSize: 0x1E0 }
  - { offset: 0xA0C77, size: 0x8, addend: 0x0, symName: '__ZN91_$LT$core..slice..iter..Iter$LT$T$GT$$u20$as$u20$core..iter..traits..iterator..Iterator$GT$4fold17h7279a95d6bf1eb06E', symObjAddr: 0xA48, symBinAddr: 0x28EE8, symSize: 0x1D8 }
  - { offset: 0xA0E78, size: 0x8, addend: 0x0, symName: '__ZN91_$LT$core..slice..iter..Iter$LT$T$GT$$u20$as$u20$core..iter..traits..iterator..Iterator$GT$4fold17hb1a259cdda55f1aeE', symObjAddr: 0xC20, symBinAddr: 0x290C0, symSize: 0x1E0 }
  - { offset: 0xA1079, size: 0x8, addend: 0x0, symName: '__ZN91_$LT$core..slice..iter..Iter$LT$T$GT$$u20$as$u20$core..iter..traits..iterator..Iterator$GT$4fold17hd9befa6ed0b7572bE', symObjAddr: 0xE00, symBinAddr: 0x292A0, symSize: 0x1E0 }
  - { offset: 0xA127A, size: 0x8, addend: 0x0, symName: '__ZN91_$LT$core..slice..iter..Iter$LT$T$GT$$u20$as$u20$core..iter..traits..iterator..Iterator$GT$4fold17he80c609ac3511178E', symObjAddr: 0xFE0, symBinAddr: 0x29480, symSize: 0x1E0 }
  - { offset: 0xA147B, size: 0x8, addend: 0x0, symName: '__ZN91_$LT$core..slice..iter..Iter$LT$T$GT$$u20$as$u20$core..iter..traits..iterator..Iterator$GT$4next17h66aed5ac91f46078E', symObjAddr: 0x11C0, symBinAddr: 0x29660, symSize: 0x84 }
  - { offset: 0xA1531, size: 0x8, addend: 0x0, symName: '__ZN91_$LT$core..slice..iter..Iter$LT$T$GT$$u20$as$u20$core..iter..traits..iterator..Iterator$GT$4next17haad7ba6ed6c09159E', symObjAddr: 0x1244, symBinAddr: 0x296E4, symSize: 0x84 }
  - { offset: 0xA1636, size: 0x8, addend: 0x0, symName: '__ZN91_$LT$core..slice..iter..Iter$LT$T$GT$$u20$as$u20$core..iter..traits..iterator..Iterator$GT$8position17h4d1f3ef196f03b5bE', symObjAddr: 0x12C8, symBinAddr: 0x29768, symSize: 0x1D0 }
  - { offset: 0xA1893, size: 0x8, addend: 0x0, symName: '__ZN91_$LT$core..slice..iter..Iter$LT$T$GT$$u20$as$u20$core..iter..traits..iterator..Iterator$GT$8position17he946a4db3e5de458E', symObjAddr: 0x1498, symBinAddr: 0x29938, symSize: 0x1D0 }
  - { offset: 0xA1AA1, size: 0x8, addend: 0x0, symName: '__ZN91_$LT$core..slice..iter..Iter$LT$T$GT$$u20$as$u20$core..iter..traits..iterator..Iterator$GT$9size_hint17h0c3e8fbf138ab8c2E', symObjAddr: 0x1668, symBinAddr: 0x29B08, symSize: 0xB4 }
  - { offset: 0xA1BCE, size: 0x8, addend: 0x0, symName: '__ZN91_$LT$core..slice..iter..Iter$LT$T$GT$$u20$as$u20$core..iter..traits..iterator..Iterator$GT$9size_hint17ha352c3ecdb44a1f2E', symObjAddr: 0x171C, symBinAddr: 0x29BBC, symSize: 0xB4 }
  - { offset: 0xA1CFB, size: 0x8, addend: 0x0, symName: '__ZN91_$LT$core..slice..iter..Iter$LT$T$GT$$u20$as$u20$core..iter..traits..iterator..Iterator$GT$9size_hint17hae5110725a9a0c29E', symObjAddr: 0x17D0, symBinAddr: 0x29C70, symSize: 0xB4 }
  - { offset: 0xA1E28, size: 0x8, addend: 0x0, symName: '__ZN91_$LT$core..slice..iter..Iter$LT$T$GT$$u20$as$u20$core..iter..traits..iterator..Iterator$GT$9size_hint17hfec66cf1ba264e4eE', symObjAddr: 0x1884, symBinAddr: 0x29D24, symSize: 0xB4 }
  - { offset: 0xA313F, size: 0x8, addend: 0x0, symName: '__ZN4core5slice4iter13Iter$LT$T$GT$3new17h301d6d69516925c5E', symObjAddr: 0x360, symBinAddr: 0x28800, symSize: 0x50 }
  - { offset: 0xA3544, size: 0x8, addend: 0x0, symName: '__ZN4core5slice4iter13Iter$LT$T$GT$3new17h6976cf0a4789adc8E', symObjAddr: 0x3B0, symBinAddr: 0x28850, symSize: 0x58 }
  - { offset: 0xA370E, size: 0x8, addend: 0x0, symName: '__ZN4core5slice4iter13Iter$LT$T$GT$3new17h8cc25b57054e6510E', symObjAddr: 0x408, symBinAddr: 0x288A8, symSize: 0x58 }
  - { offset: 0xA38D8, size: 0x8, addend: 0x0, symName: '__ZN4core5slice4iter13Iter$LT$T$GT$3new17he56092bc738b6204E', symObjAddr: 0x460, symBinAddr: 0x28900, symSize: 0x50 }
  - { offset: 0xA4490, size: 0x8, addend: 0x0, symName: __ZN4core4sync6atomic11AtomicUsize3new17h35097ec40be131ecE, symObjAddr: 0x0, symBinAddr: 0x29DD8, symSize: 0x18 }
  - { offset: 0xA4505, size: 0x8, addend: 0x0, symName: __ZN4core4sync6atomic11AtomicUsize3new17h35097ec40be131ecE, symObjAddr: 0x0, symBinAddr: 0x29DD8, symSize: 0x18 }
  - { offset: 0xA4546, size: 0x8, addend: 0x0, symName: __ZN4pyo35types8sequence16extract_sequence17h49f8cdf56a295567E, symObjAddr: 0x0, symBinAddr: 0x29DF0, symSize: 0x3F8 }
  - { offset: 0xA5D6F, size: 0x8, addend: 0x0, symName: __ZN4pyo35types8sequence16extract_sequence17h49f8cdf56a295567E, symObjAddr: 0x0, symBinAddr: 0x29DF0, symSize: 0x3F8 }
  - { offset: 0xA5E6F, size: 0x8, addend: 0x0, symName: __ZN4pyo35types8sequence16extract_sequence17h974bd9ada854ae86E, symObjAddr: 0x3F8, symBinAddr: 0x2A1E8, symSize: 0x41C }
  - { offset: 0xA5F6F, size: 0x8, addend: 0x0, symName: __ZN4pyo35types8sequence16extract_sequence17hac4e3198d37ea19eE, symObjAddr: 0x814, symBinAddr: 0x2A604, symSize: 0x3F8 }
  - { offset: 0xA606F, size: 0x8, addend: 0x0, symName: __ZN4pyo35types8sequence16extract_sequence17hbb6f227ebc4cb570E, symObjAddr: 0xC0C, symBinAddr: 0x2A9FC, symSize: 0x41C }
  - { offset: 0xA6DA9, size: 0x8, addend: 0x0, symName: __ZN6_oryon9pipelines14TargetPipeline11input_names17h6d9631393aa30761E, symObjAddr: 0x0, symBinAddr: 0x2AE18, symSize: 0x30 }
  - { offset: 0xA6DD7, size: 0x8, addend: 0x0, symName: '__ZN6_oryon9pipelines186_$LT$impl$u20$pyo3..impl_..pyclass..PyMethods$LT$_oryon..pipelines..TargetPipeline$GT$$u20$for$u20$pyo3..impl_..pyclass..PyClassImplCollector$LT$_oryon..pipelines..TargetPipeline$GT$$GT$10py_methods5ITEMS17hc7f97efde72731a0E', symObjAddr: 0x48B8, symBinAddr: 0x192130, symSize: 0x0 }
  - { offset: 0xA6DE9, size: 0x8, addend: 0x0, symName: '__ZN6_oryon9pipelines186_$LT$impl$u20$pyo3..impl_..pyclass..PyMethods$LT$_oryon..pipelines..TargetPipeline$GT$$u20$for$u20$pyo3..impl_..pyclass..PyClassImplCollector$LT$_oryon..pipelines..TargetPipeline$GT$$GT$10py_methods5ITEMS10trampoline17h0fab86394d4d0f94E', symObjAddr: 0x33A4, symBinAddr: 0x2E1BC, symSize: 0x44 }
  - { offset: 0xA6E23, size: 0x8, addend: 0x0, symName: '__ZN6_oryon9pipelines186_$LT$impl$u20$pyo3..impl_..pyclass..PyMethods$LT$_oryon..pipelines..TargetPipeline$GT$$u20$for$u20$pyo3..impl_..pyclass..PyClassImplCollector$LT$_oryon..pipelines..TargetPipeline$GT$$GT$10py_methods5ITEMS10trampoline17h5043eaa38e17fce4E', symObjAddr: 0x33E8, symBinAddr: 0x2E200, symSize: 0x44 }
  - { offset: 0xA6E5D, size: 0x8, addend: 0x0, symName: '__ZN6_oryon9pipelines186_$LT$impl$u20$pyo3..impl_..pyclass..PyMethods$LT$_oryon..pipelines..TargetPipeline$GT$$u20$for$u20$pyo3..impl_..pyclass..PyClassImplCollector$LT$_oryon..pipelines..TargetPipeline$GT$$GT$10py_methods5ITEMS10trampoline17h6790b83d6990a80aE', symObjAddr: 0x342C, symBinAddr: 0x2E244, symSize: 0x4C }
  - { offset: 0xA6EA5, size: 0x8, addend: 0x0, symName: '__ZN6_oryon9pipelines186_$LT$impl$u20$pyo3..impl_..pyclass..PyMethods$LT$_oryon..pipelines..TargetPipeline$GT$$u20$for$u20$pyo3..impl_..pyclass..PyClassImplCollector$LT$_oryon..pipelines..TargetPipeline$GT$$GT$10py_methods5ITEMS10trampoline17ha18440a6d792cea1E', symObjAddr: 0x3478, symBinAddr: 0x2E290, symSize: 0x50 }
  - { offset: 0xA6EFB, size: 0x8, addend: 0x0, symName: '__ZN6_oryon9pipelines186_$LT$impl$u20$pyo3..impl_..pyclass..PyMethods$LT$_oryon..pipelines..TargetPipeline$GT$$u20$for$u20$pyo3..impl_..pyclass..PyClassImplCollector$LT$_oryon..pipelines..TargetPipeline$GT$$GT$10py_methods5ITEMS10trampoline17hc6fbf405869e8fa9E', symObjAddr: 0x34C8, symBinAddr: 0x2E2E0, symSize: 0x3C }
  - { offset: 0xA6F27, size: 0x8, addend: 0x0, symName: '__ZN6_oryon9pipelines186_$LT$impl$u20$pyo3..impl_..pyclass..PyMethods$LT$_oryon..pipelines..TargetPipeline$GT$$u20$for$u20$pyo3..impl_..pyclass..PyClassImplCollector$LT$_oryon..pipelines..TargetPipeline$GT$$GT$10py_methods5ITEMS10trampoline17hcc2c79d30ddc542cE', symObjAddr: 0x3504, symBinAddr: 0x2E31C, symSize: 0x44 }
  - { offset: 0xA6F7B, size: 0x8, addend: 0x0, symName: '__ZN6_oryon9pipelines188_$LT$impl$u20$pyo3..impl_..pyclass..PyMethods$LT$_oryon..pipelines..FeaturePipeline$GT$$u20$for$u20$pyo3..impl_..pyclass..PyClassImplCollector$LT$_oryon..pipelines..FeaturePipeline$GT$$GT$10py_methods5ITEMS17ha9300675e2bc8a1aE', symObjAddr: 0x4A78, symBinAddr: 0x1922F0, symSize: 0x0 }
  - { offset: 0xA6F8D, size: 0x8, addend: 0x0, symName: '__ZN6_oryon9pipelines188_$LT$impl$u20$pyo3..impl_..pyclass..PyMethods$LT$_oryon..pipelines..FeaturePipeline$GT$$u20$for$u20$pyo3..impl_..pyclass..PyClassImplCollector$LT$_oryon..pipelines..FeaturePipeline$GT$$GT$10py_methods5ITEMS10trampoline17h0395aa2d0ff7997cE', symObjAddr: 0x3548, symBinAddr: 0x2E360, symSize: 0x3C }
  - { offset: 0xA6FB9, size: 0x8, addend: 0x0, symName: '__ZN6_oryon9pipelines188_$LT$impl$u20$pyo3..impl_..pyclass..PyMethods$LT$_oryon..pipelines..FeaturePipeline$GT$$u20$for$u20$pyo3..impl_..pyclass..PyClassImplCollector$LT$_oryon..pipelines..FeaturePipeline$GT$$GT$10py_methods5ITEMS10trampoline17h17c6e6fd757854ceE', symObjAddr: 0x3584, symBinAddr: 0x2E39C, symSize: 0x4C }
  - { offset: 0xA7001, size: 0x8, addend: 0x0, symName: '__ZN6_oryon9pipelines188_$LT$impl$u20$pyo3..impl_..pyclass..PyMethods$LT$_oryon..pipelines..FeaturePipeline$GT$$u20$for$u20$pyo3..impl_..pyclass..PyClassImplCollector$LT$_oryon..pipelines..FeaturePipeline$GT$$GT$10py_methods5ITEMS10trampoline17h8549ea9f9befeb54E', symObjAddr: 0x35D0, symBinAddr: 0x2E3E8, symSize: 0x50 }
  - { offset: 0xA7057, size: 0x8, addend: 0x0, symName: '__ZN6_oryon9pipelines188_$LT$impl$u20$pyo3..impl_..pyclass..PyMethods$LT$_oryon..pipelines..FeaturePipeline$GT$$u20$for$u20$pyo3..impl_..pyclass..PyClassImplCollector$LT$_oryon..pipelines..FeaturePipeline$GT$$GT$10py_methods5ITEMS10trampoline17h8badc5b409a0bc8cE', symObjAddr: 0x3620, symBinAddr: 0x2E438, symSize: 0x44 }
  - { offset: 0xA7091, size: 0x8, addend: 0x0, symName: '__ZN6_oryon9pipelines188_$LT$impl$u20$pyo3..impl_..pyclass..PyMethods$LT$_oryon..pipelines..FeaturePipeline$GT$$u20$for$u20$pyo3..impl_..pyclass..PyClassImplCollector$LT$_oryon..pipelines..FeaturePipeline$GT$$GT$10py_methods5ITEMS10trampoline17ha7c2d426228346b8E', symObjAddr: 0x3664, symBinAddr: 0x2E47C, symSize: 0x44 }
  - { offset: 0xA70CB, size: 0x8, addend: 0x0, symName: '__ZN6_oryon9pipelines188_$LT$impl$u20$pyo3..impl_..pyclass..PyMethods$LT$_oryon..pipelines..FeaturePipeline$GT$$u20$for$u20$pyo3..impl_..pyclass..PyClassImplCollector$LT$_oryon..pipelines..FeaturePipeline$GT$$GT$10py_methods5ITEMS10trampoline17hd1c254d0056bfbaeE', symObjAddr: 0x36A8, symBinAddr: 0x2E4C0, symSize: 0x50 }
  - { offset: 0xA7121, size: 0x8, addend: 0x0, symName: '__ZN6_oryon9pipelines188_$LT$impl$u20$pyo3..impl_..pyclass..PyMethods$LT$_oryon..pipelines..FeaturePipeline$GT$$u20$for$u20$pyo3..impl_..pyclass..PyClassImplCollector$LT$_oryon..pipelines..FeaturePipeline$GT$$GT$10py_methods5ITEMS10trampoline17hd468abed6c5feff6E', symObjAddr: 0x36F8, symBinAddr: 0x2E510, symSize: 0x44 }
  - { offset: 0xA715B, size: 0x8, addend: 0x0, symName: '__ZN6_oryon9pipelines188_$LT$impl$u20$pyo3..impl_..pyclass..PyMethods$LT$_oryon..pipelines..FeaturePipeline$GT$$u20$for$u20$pyo3..impl_..pyclass..PyClassImplCollector$LT$_oryon..pipelines..FeaturePipeline$GT$$GT$10py_methods5ITEMS10trampoline17he031117948fe4b05E', symObjAddr: 0x373C, symBinAddr: 0x2E554, symSize: 0x44 }
  - { offset: 0xA71AF, size: 0x8, addend: 0x0, symName: '__ZN87_$LT$_oryon..pipelines..TargetPipeline$u20$as$u20$pyo3..impl_..pyclass..PyClassImpl$GT$10items_iter15INTRINSIC_ITEMS17hd3fabd60b69d06e8E', symObjAddr: 0x4AE8, symBinAddr: 0x125048, symSize: 0x0 }
  - { offset: 0xA71CF, size: 0x8, addend: 0x0, symName: '__ZN87_$LT$_oryon..pipelines..TargetPipeline$u20$as$u20$pyo3..impl_..pyclass..PyClassImpl$GT$16lazy_type_object11TYPE_OBJECT17hdd48c8c91aa325fcE', symObjAddr: 0x4B38, symBinAddr: 0x19C668, symSize: 0x0 }
  - { offset: 0xA71EF, size: 0x8, addend: 0x0, symName: '__ZN87_$LT$_oryon..pipelines..TargetPipeline$u20$as$u20$pyo3..impl_..pyclass..PyClassImpl$GT$3doc3DOC17h9bd1540e059bc717E', symObjAddr: 0x4B90, symBinAddr: 0x19C6C0, symSize: 0x0 }
  - { offset: 0xA71FD, size: 0x8, addend: 0x0, symName: '__ZN87_$LT$_oryon..pipelines..TargetPipeline$u20$as$u20$pyo3..impl_..pyclass..PyClassImpl$GT$10items_iter17h8d00d7480712a111E', symObjAddr: 0x37C8, symBinAddr: 0x2E5E0, symSize: 0x38 }
  - { offset: 0xA7238, size: 0x8, addend: 0x0, symName: '__ZN87_$LT$_oryon..pipelines..TargetPipeline$u20$as$u20$pyo3..impl_..pyclass..PyClassImpl$GT$16lazy_type_object17h420e560b9c65bcf5E', symObjAddr: 0x3800, symBinAddr: 0x2E618, symSize: 0xC }
  - { offset: 0xA7255, size: 0x8, addend: 0x0, symName: '__ZN87_$LT$_oryon..pipelines..TargetPipeline$u20$as$u20$pyo3..impl_..pyclass..PyClassImpl$GT$3doc17hdb4fa221ed3c36a7E', symObjAddr: 0x380C, symBinAddr: 0x2E624, symSize: 0x3C }
  - { offset: 0xA73F6, size: 0x8, addend: 0x0, symName: '__ZN88_$LT$_oryon..pipelines..FeaturePipeline$u20$as$u20$pyo3..impl_..pyclass..PyClassImpl$GT$10items_iter15INTRINSIC_ITEMS17h252f96591d15b605E', symObjAddr: 0x4B08, symBinAddr: 0x125068, symSize: 0x0 }
  - { offset: 0xA7416, size: 0x8, addend: 0x0, symName: '__ZN88_$LT$_oryon..pipelines..FeaturePipeline$u20$as$u20$pyo3..impl_..pyclass..PyClassImpl$GT$16lazy_type_object11TYPE_OBJECT17h6514097ae367d3e5E', symObjAddr: 0x4BB0, symBinAddr: 0x19C6E0, symSize: 0x0 }
  - { offset: 0xA7436, size: 0x8, addend: 0x0, symName: '__ZN88_$LT$_oryon..pipelines..FeaturePipeline$u20$as$u20$pyo3..impl_..pyclass..PyClassImpl$GT$3doc3DOC17h675ea249e583b5b0E', symObjAddr: 0x4C08, symBinAddr: 0x19C738, symSize: 0x0 }
  - { offset: 0xA7444, size: 0x8, addend: 0x0, symName: '__ZN88_$LT$_oryon..pipelines..FeaturePipeline$u20$as$u20$pyo3..impl_..pyclass..PyClassImpl$GT$10items_iter17h0b9e853b33115ee0E', symObjAddr: 0x3848, symBinAddr: 0x2E660, symSize: 0x38 }
  - { offset: 0xA747F, size: 0x8, addend: 0x0, symName: '__ZN88_$LT$_oryon..pipelines..FeaturePipeline$u20$as$u20$pyo3..impl_..pyclass..PyClassImpl$GT$16lazy_type_object17h17a5abd6bdd1049bE', symObjAddr: 0x3880, symBinAddr: 0x2E698, symSize: 0xC }
  - { offset: 0xA749C, size: 0x8, addend: 0x0, symName: '__ZN88_$LT$_oryon..pipelines..FeaturePipeline$u20$as$u20$pyo3..impl_..pyclass..PyClassImpl$GT$3doc17h2109196c1fbf27b6E', symObjAddr: 0x388C, symBinAddr: 0x2E6A4, symSize: 0x3C }
  - { offset: 0xA7699, size: 0x8, addend: 0x0, symName: '__ZN83_$LT$_oryon..pipelines..TargetPipeline$u20$as$u20$pyo3..type_object..PyTypeInfo$GT$15type_object_raw17h0c874dbd35241897E', symObjAddr: 0x3780, symBinAddr: 0x2E598, symSize: 0x24 }
  - { offset: 0xA76D6, size: 0x8, addend: 0x0, symName: '__ZN84_$LT$_oryon..pipelines..FeaturePipeline$u20$as$u20$pyo3..type_object..PyTypeInfo$GT$15type_object_raw17h1c1c0e0f38957c31E', symObjAddr: 0x37A4, symBinAddr: 0x2E5BC, symSize: 0x24 }
  - { offset: 0xAB283, size: 0x8, addend: 0x0, symName: __ZN6_oryon9pipelines14TargetPipeline11input_names17h6d9631393aa30761E, symObjAddr: 0x0, symBinAddr: 0x2AE18, symSize: 0x30 }
  - { offset: 0xAB2A5, size: 0x8, addend: 0x0, symName: __ZN6_oryon9pipelines14TargetPipeline12output_names17h50512f00673825a8E, symObjAddr: 0x30, symBinAddr: 0x2AE48, symSize: 0x30 }
  - { offset: 0xAB2CE, size: 0x8, addend: 0x0, symName: __ZN6_oryon9pipelines14TargetPipeline12run_research17hb2936b5c57800bedE, symObjAddr: 0x60, symBinAddr: 0x2AE78, symSize: 0x1B0 }
  - { offset: 0xAB32B, size: 0x8, addend: 0x0, symName: __ZN6_oryon9pipelines14TargetPipeline14forward_period17h57f1f394985349d1E, symObjAddr: 0x210, symBinAddr: 0x2B028, symSize: 0x24 }
  - { offset: 0xAB34D, size: 0x8, addend: 0x0, symName: __ZN6_oryon9pipelines14TargetPipeline20__pymethod___len____17h08ca7c5ad09346d0E, symObjAddr: 0x234, symBinAddr: 0x2B04C, symSize: 0x12C }
  - { offset: 0xAB408, size: 0x8, addend: 0x0, symName: __ZN6_oryon9pipelines14TargetPipeline20__pymethod___new____17h8daaffbf14508652E, symObjAddr: 0x360, symBinAddr: 0x2B178, symSize: 0x4B4 }
  - { offset: 0xAB5CA, size: 0x8, addend: 0x0, symName: __ZN6_oryon9pipelines14TargetPipeline24__pymethod_input_names__17hd38928913df490dfE, symObjAddr: 0x814, symBinAddr: 0x2B62C, symSize: 0x290 }
  - { offset: 0xAB6B2, size: 0x8, addend: 0x0, symName: __ZN6_oryon9pipelines14TargetPipeline25__pymethod_output_names__17hd3d6966e286a9b9cE, symObjAddr: 0xAA4, symBinAddr: 0x2B8BC, symSize: 0x290 }
  - { offset: 0xAB79A, size: 0x8, addend: 0x0, symName: __ZN6_oryon9pipelines14TargetPipeline25__pymethod_run_research__17h772e1619b50091a5E, symObjAddr: 0xD34, symBinAddr: 0x2BB4C, symSize: 0x430 }
  - { offset: 0xAB92D, size: 0x8, addend: 0x0, symName: __ZN6_oryon9pipelines14TargetPipeline27__pymethod_forward_period__17h6ffb0d612d777a79E, symObjAddr: 0x1164, symBinAddr: 0x2BF7C, symSize: 0x214 }
  - { offset: 0xABA1D, size: 0x8, addend: 0x0, symName: __ZN6_oryon9pipelines14TargetPipeline3new17h5b6becff0c487812E, symObjAddr: 0x1378, symBinAddr: 0x2C190, symSize: 0x2E8 }
  - { offset: 0xABACD, size: 0x8, addend: 0x0, symName: __ZN6_oryon9pipelines14TargetPipeline7__len__17h18e1065a199a2740E, symObjAddr: 0x1660, symBinAddr: 0x2C478, symSize: 0x24 }
  - { offset: 0xABAFC, size: 0x8, addend: 0x0, symName: __ZN6_oryon9pipelines15FeaturePipeline11input_names17h8040123c5c67df97E, symObjAddr: 0x1684, symBinAddr: 0x2C49C, symSize: 0x30 }
  - { offset: 0xABB1E, size: 0x8, addend: 0x0, symName: __ZN6_oryon9pipelines15FeaturePipeline12output_names17h39390e1316580cd5E, symObjAddr: 0x16B4, symBinAddr: 0x2C4CC, symSize: 0x30 }
  - { offset: 0xABB4D, size: 0x8, addend: 0x0, symName: __ZN6_oryon9pipelines15FeaturePipeline12run_research17hc5b670c59516fc6bE, symObjAddr: 0x16E4, symBinAddr: 0x2C4FC, symSize: 0x128 }
  - { offset: 0xABB94, size: 0x8, addend: 0x0, symName: __ZN6_oryon9pipelines15FeaturePipeline14warm_up_period17h34355ee12338e96bE, symObjAddr: 0x180C, symBinAddr: 0x2C624, symSize: 0x24 }
  - { offset: 0xABBB6, size: 0x8, addend: 0x0, symName: __ZN6_oryon9pipelines15FeaturePipeline18__pymethod_reset__17hc600c2dd7fd1ecc4E, symObjAddr: 0x1830, symBinAddr: 0x2C648, symSize: 0x1E8 }
  - { offset: 0xABCA6, size: 0x8, addend: 0x0, symName: __ZN6_oryon9pipelines15FeaturePipeline19__pymethod_update__17hb381c4a55dfffb70E, symObjAddr: 0x1A18, symBinAddr: 0x2C830, symSize: 0x430 }
  - { offset: 0xABE39, size: 0x8, addend: 0x0, symName: __ZN6_oryon9pipelines15FeaturePipeline20__pymethod___len____17hb3e59039176f92d4E, symObjAddr: 0x1E48, symBinAddr: 0x2CC60, symSize: 0x12C }
  - { offset: 0xABEF4, size: 0x8, addend: 0x0, symName: __ZN6_oryon9pipelines15FeaturePipeline20__pymethod___new____17hbf37ae5be7802fb3E, symObjAddr: 0x1F74, symBinAddr: 0x2CD8C, symSize: 0x4A4 }
  - { offset: 0xAC0B6, size: 0x8, addend: 0x0, symName: __ZN6_oryon9pipelines15FeaturePipeline24__pymethod_input_names__17hc287d5b03527f492E, symObjAddr: 0x2418, symBinAddr: 0x2D230, symSize: 0x290 }
  - { offset: 0xAC19E, size: 0x8, addend: 0x0, symName: __ZN6_oryon9pipelines15FeaturePipeline25__pymethod_output_names__17hd045247bf01e30b3E, symObjAddr: 0x26A8, symBinAddr: 0x2D4C0, symSize: 0x290 }
  - { offset: 0xAC286, size: 0x8, addend: 0x0, symName: __ZN6_oryon9pipelines15FeaturePipeline25__pymethod_run_research__17h34b768b0479d885dE, symObjAddr: 0x2938, symBinAddr: 0x2D750, symSize: 0x430 }
  - { offset: 0xAC419, size: 0x8, addend: 0x0, symName: __ZN6_oryon9pipelines15FeaturePipeline27__pymethod_warm_up_period__17h46a8fff6a8f35d4aE, symObjAddr: 0x2D68, symBinAddr: 0x2DB80, symSize: 0x214 }
  - { offset: 0xAC509, size: 0x8, addend: 0x0, symName: __ZN6_oryon9pipelines15FeaturePipeline3new17h5bc99448e2f72e3aE, symObjAddr: 0x2F7C, symBinAddr: 0x2DD94, symSize: 0x2E8 }
  - { offset: 0xAC5B9, size: 0x8, addend: 0x0, symName: __ZN6_oryon9pipelines15FeaturePipeline5reset17h88de63d2f637439bE, symObjAddr: 0x3264, symBinAddr: 0x2E07C, symSize: 0x24 }
  - { offset: 0xAC5DB, size: 0x8, addend: 0x0, symName: __ZN6_oryon9pipelines15FeaturePipeline6update17h8b2c0b3bd86ee0b0E, symObjAddr: 0x3288, symBinAddr: 0x2E0A0, symSize: 0xF8 }
  - { offset: 0xAC60C, size: 0x8, addend: 0x0, symName: __ZN6_oryon9pipelines15FeaturePipeline7__len__17h509ea0e5d224e7ddE, symObjAddr: 0x3380, symBinAddr: 0x2E198, symSize: 0x24 }
  - { offset: 0xAC7C6, size: 0x8, addend: 0x0, symName: '__ZN4core5slice29_$LT$impl$u20$$u5b$T$u5d$$GT$18split_at_unchecked18precondition_check17hdcd7b1e05d118ea5E', symObjAddr: 0x0, symBinAddr: 0x2E6E0, symSize: 0x60 }
  - { offset: 0xAC7E7, size: 0x8, addend: 0x0, symName: '__ZN4core5slice29_$LT$impl$u20$$u5b$T$u5d$$GT$18split_at_unchecked18precondition_check17hdcd7b1e05d118ea5E', symObjAddr: 0x0, symBinAddr: 0x2E6E0, symSize: 0x60 }
  - { offset: 0xAC891, size: 0x8, addend: 0x0, symName: __ZN4core3ptr19copy_nonoverlapping18precondition_check17h8a517db4ffe457a9E, symObjAddr: 0x0, symBinAddr: 0x2E740, symSize: 0x168 }
  - { offset: 0xAC979, size: 0x8, addend: 0x0, symName: __ZN4core3ptr19copy_nonoverlapping18precondition_check17h8a517db4ffe457a9E, symObjAddr: 0x0, symBinAddr: 0x2E740, symSize: 0x168 }
  - { offset: 0xACBAB, size: 0x8, addend: 0x0, symName: '__ZN102_$LT$core..iter..adapters..zip..Zip$LT$A$C$B$GT$$u20$as$u20$core..iter..traits..iterator..Iterator$GT$4next17h729c6ac8733c092dE', symObjAddr: 0x0, symBinAddr: 0x2E8A8, symSize: 0x24 }
  - { offset: 0xAD3A8, size: 0x8, addend: 0x0, symName: '__ZN102_$LT$core..iter..adapters..zip..Zip$LT$A$C$B$GT$$u20$as$u20$core..iter..traits..iterator..Iterator$GT$4next17h729c6ac8733c092dE', symObjAddr: 0x0, symBinAddr: 0x2E8A8, symSize: 0x24 }
  - { offset: 0xAD3EC, size: 0x8, addend: 0x0, symName: '__ZN111_$LT$core..iter..adapters..zip..Zip$LT$A$C$B$GT$$u20$as$u20$core..iter..adapters..zip..ZipImpl$LT$A$C$B$GT$$GT$3new17hf608827ee1617a20E', symObjAddr: 0x24, symBinAddr: 0x2E8CC, symSize: 0x3C }
  - { offset: 0xAD438, size: 0x8, addend: 0x0, symName: '__ZN111_$LT$core..iter..adapters..zip..Zip$LT$A$C$B$GT$$u20$as$u20$core..iter..adapters..zip..ZipImpl$LT$A$C$B$GT$$GT$4next17h8ae3b65bf22eab67E', symObjAddr: 0x60, symBinAddr: 0x2E908, symSize: 0xE0 }
  - { offset: 0xAD665, size: 0x8, addend: 0x0, symName: '__ZN63_$LT$I$u20$as$u20$core..iter..traits..collect..IntoIterator$GT$9into_iter17h1f5dd673d86e04e6E', symObjAddr: 0x140, symBinAddr: 0x2E9E8, symSize: 0x30 }
  - { offset: 0xAD69D, size: 0x8, addend: 0x0, symName: '__ZN63_$LT$I$u20$as$u20$core..iter..traits..collect..IntoIterator$GT$9into_iter17h6e7340d06256e4beE', symObjAddr: 0x170, symBinAddr: 0x2EA18, symSize: 0x30 }
  - { offset: 0xAEB22, size: 0x8, addend: 0x0, symName: '__ZN63_$LT$I$u20$as$u20$core..iter..traits..collect..IntoIterator$GT$9into_iter17h9d926581aaa76190E', symObjAddr: 0x0, symBinAddr: 0x2EA48, symSize: 0x18 }
  - { offset: 0xAF31F, size: 0x8, addend: 0x0, symName: '__ZN63_$LT$I$u20$as$u20$core..iter..traits..collect..IntoIterator$GT$9into_iter17h9d926581aaa76190E', symObjAddr: 0x0, symBinAddr: 0x2EA48, symSize: 0x18 }
  - { offset: 0xB02EE, size: 0x8, addend: 0x0, symName: __ZN6_oryon8features11LinearSlope11input_names17h1af0b753d495dfecE, symObjAddr: 0x0, symBinAddr: 0x2EA60, symSize: 0x24 }
  - { offset: 0xB031C, size: 0x8, addend: 0x0, symName: '__ZN6_oryon8features162_$LT$impl$u20$pyo3..impl_..pyclass..PyMethods$LT$_oryon..features..Adf$GT$$u20$for$u20$pyo3..impl_..pyclass..PyClassImplCollector$LT$_oryon..features..Adf$GT$$GT$10py_methods5ITEMS17ha315753dcbee13d9E', symObjAddr: 0x17EE0, symBinAddr: 0x192728, symSize: 0x0 }
  - { offset: 0xB032E, size: 0x8, addend: 0x0, symName: '__ZN6_oryon8features162_$LT$impl$u20$pyo3..impl_..pyclass..PyMethods$LT$_oryon..features..Adf$GT$$u20$for$u20$pyo3..impl_..pyclass..PyClassImplCollector$LT$_oryon..features..Adf$GT$$GT$10py_methods5ITEMS10trampoline17h3247f6876bfb283dE', symObjAddr: 0x3134, symBinAddr: 0x31B94, symSize: 0x44 }
  - { offset: 0xB0368, size: 0x8, addend: 0x0, symName: '__ZN6_oryon8features162_$LT$impl$u20$pyo3..impl_..pyclass..PyMethods$LT$_oryon..features..Adf$GT$$u20$for$u20$pyo3..impl_..pyclass..PyClassImplCollector$LT$_oryon..features..Adf$GT$$GT$10py_methods5ITEMS10trampoline17h3ffbccb6d388e4fbE', symObjAddr: 0x3178, symBinAddr: 0x31BD8, symSize: 0x44 }
  - { offset: 0xB03A2, size: 0x8, addend: 0x0, symName: '__ZN6_oryon8features162_$LT$impl$u20$pyo3..impl_..pyclass..PyMethods$LT$_oryon..features..Adf$GT$$u20$for$u20$pyo3..impl_..pyclass..PyClassImplCollector$LT$_oryon..features..Adf$GT$$GT$10py_methods5ITEMS10trampoline17h47c37d1021801ea1E', symObjAddr: 0x31BC, symBinAddr: 0x31C1C, symSize: 0x44 }
  - { offset: 0xB03DC, size: 0x8, addend: 0x0, symName: '__ZN6_oryon8features162_$LT$impl$u20$pyo3..impl_..pyclass..PyMethods$LT$_oryon..features..Adf$GT$$u20$for$u20$pyo3..impl_..pyclass..PyClassImplCollector$LT$_oryon..features..Adf$GT$$GT$10py_methods5ITEMS10trampoline17h60e6e36b5b046b31E', symObjAddr: 0x3200, symBinAddr: 0x31C60, symSize: 0x44 }
  - { offset: 0xB0416, size: 0x8, addend: 0x0, symName: '__ZN6_oryon8features162_$LT$impl$u20$pyo3..impl_..pyclass..PyMethods$LT$_oryon..features..Adf$GT$$u20$for$u20$pyo3..impl_..pyclass..PyClassImplCollector$LT$_oryon..features..Adf$GT$$GT$10py_methods5ITEMS10trampoline17h75625b6a09ba8d82E', symObjAddr: 0x3244, symBinAddr: 0x31CA4, symSize: 0x3C }
  - { offset: 0xB0442, size: 0x8, addend: 0x0, symName: '__ZN6_oryon8features162_$LT$impl$u20$pyo3..impl_..pyclass..PyMethods$LT$_oryon..features..Adf$GT$$u20$for$u20$pyo3..impl_..pyclass..PyClassImplCollector$LT$_oryon..features..Adf$GT$$GT$10py_methods5ITEMS10trampoline17h83e6469e3507a126E', symObjAddr: 0x3280, symBinAddr: 0x31CE0, symSize: 0x4C }
  - { offset: 0xB048A, size: 0x8, addend: 0x0, symName: '__ZN6_oryon8features162_$LT$impl$u20$pyo3..impl_..pyclass..PyMethods$LT$_oryon..features..Adf$GT$$u20$for$u20$pyo3..impl_..pyclass..PyClassImplCollector$LT$_oryon..features..Adf$GT$$GT$10py_methods5ITEMS10trampoline17h9833c32f66dd57f6E', symObjAddr: 0x32CC, symBinAddr: 0x31D2C, symSize: 0x50 }
  - { offset: 0xB04FA, size: 0x8, addend: 0x0, symName: '__ZN6_oryon8features162_$LT$impl$u20$pyo3..impl_..pyclass..PyMethods$LT$_oryon..features..Ema$GT$$u20$for$u20$pyo3..impl_..pyclass..PyClassImplCollector$LT$_oryon..features..Ema$GT$$GT$10py_methods5ITEMS17h85a4d9c7e5beb595E', symObjAddr: 0x18060, symBinAddr: 0x1928A8, symSize: 0x0 }
  - { offset: 0xB050C, size: 0x8, addend: 0x0, symName: '__ZN6_oryon8features162_$LT$impl$u20$pyo3..impl_..pyclass..PyMethods$LT$_oryon..features..Ema$GT$$u20$for$u20$pyo3..impl_..pyclass..PyClassImplCollector$LT$_oryon..features..Ema$GT$$GT$10py_methods5ITEMS10trampoline17h00330211f396ffe0E', symObjAddr: 0x331C, symBinAddr: 0x31D7C, symSize: 0x3C }
  - { offset: 0xB0538, size: 0x8, addend: 0x0, symName: '__ZN6_oryon8features162_$LT$impl$u20$pyo3..impl_..pyclass..PyMethods$LT$_oryon..features..Ema$GT$$u20$for$u20$pyo3..impl_..pyclass..PyClassImplCollector$LT$_oryon..features..Ema$GT$$GT$10py_methods5ITEMS10trampoline17h09739ce4a032ef9cE', symObjAddr: 0x3358, symBinAddr: 0x31DB8, symSize: 0x44 }
  - { offset: 0xB0572, size: 0x8, addend: 0x0, symName: '__ZN6_oryon8features162_$LT$impl$u20$pyo3..impl_..pyclass..PyMethods$LT$_oryon..features..Ema$GT$$u20$for$u20$pyo3..impl_..pyclass..PyClassImplCollector$LT$_oryon..features..Ema$GT$$GT$10py_methods5ITEMS10trampoline17h4b8e9f7ae1b8fd96E', symObjAddr: 0x339C, symBinAddr: 0x31DFC, symSize: 0x44 }
  - { offset: 0xB05AC, size: 0x8, addend: 0x0, symName: '__ZN6_oryon8features162_$LT$impl$u20$pyo3..impl_..pyclass..PyMethods$LT$_oryon..features..Ema$GT$$u20$for$u20$pyo3..impl_..pyclass..PyClassImplCollector$LT$_oryon..features..Ema$GT$$GT$10py_methods5ITEMS10trampoline17h531c34c232df6ed2E', symObjAddr: 0x33E0, symBinAddr: 0x31E40, symSize: 0x44 }
  - { offset: 0xB05E6, size: 0x8, addend: 0x0, symName: '__ZN6_oryon8features162_$LT$impl$u20$pyo3..impl_..pyclass..PyMethods$LT$_oryon..features..Ema$GT$$u20$for$u20$pyo3..impl_..pyclass..PyClassImplCollector$LT$_oryon..features..Ema$GT$$GT$10py_methods5ITEMS10trampoline17h8ea5b7d173faa493E', symObjAddr: 0x3424, symBinAddr: 0x31E84, symSize: 0x4C }
  - { offset: 0xB062E, size: 0x8, addend: 0x0, symName: '__ZN6_oryon8features162_$LT$impl$u20$pyo3..impl_..pyclass..PyMethods$LT$_oryon..features..Ema$GT$$u20$for$u20$pyo3..impl_..pyclass..PyClassImplCollector$LT$_oryon..features..Ema$GT$$GT$10py_methods5ITEMS10trampoline17h917cc6b524949aa4E', symObjAddr: 0x3470, symBinAddr: 0x31ED0, symSize: 0x44 }
  - { offset: 0xB0668, size: 0x8, addend: 0x0, symName: '__ZN6_oryon8features162_$LT$impl$u20$pyo3..impl_..pyclass..PyMethods$LT$_oryon..features..Ema$GT$$u20$for$u20$pyo3..impl_..pyclass..PyClassImplCollector$LT$_oryon..features..Ema$GT$$GT$10py_methods5ITEMS10trampoline17ha196c04341c48e14E', symObjAddr: 0x34B4, symBinAddr: 0x31F14, symSize: 0x50 }
  - { offset: 0xB06D8, size: 0x8, addend: 0x0, symName: '__ZN6_oryon8features162_$LT$impl$u20$pyo3..impl_..pyclass..PyMethods$LT$_oryon..features..Mma$GT$$u20$for$u20$pyo3..impl_..pyclass..PyClassImplCollector$LT$_oryon..features..Mma$GT$$GT$10py_methods5ITEMS17h893e9b535c9f4ca1E', symObjAddr: 0x181E0, symBinAddr: 0x192A28, symSize: 0x0 }
  - { offset: 0xB06EA, size: 0x8, addend: 0x0, symName: '__ZN6_oryon8features162_$LT$impl$u20$pyo3..impl_..pyclass..PyMethods$LT$_oryon..features..Mma$GT$$u20$for$u20$pyo3..impl_..pyclass..PyClassImplCollector$LT$_oryon..features..Mma$GT$$GT$10py_methods5ITEMS10trampoline17h2875bb82583fcd38E', symObjAddr: 0x3504, symBinAddr: 0x31F64, symSize: 0x44 }
  - { offset: 0xB0724, size: 0x8, addend: 0x0, symName: '__ZN6_oryon8features162_$LT$impl$u20$pyo3..impl_..pyclass..PyMethods$LT$_oryon..features..Mma$GT$$u20$for$u20$pyo3..impl_..pyclass..PyClassImplCollector$LT$_oryon..features..Mma$GT$$GT$10py_methods5ITEMS10trampoline17h854df7b47120401bE', symObjAddr: 0x3548, symBinAddr: 0x31FA8, symSize: 0x4C }
  - { offset: 0xB076C, size: 0x8, addend: 0x0, symName: '__ZN6_oryon8features162_$LT$impl$u20$pyo3..impl_..pyclass..PyMethods$LT$_oryon..features..Mma$GT$$u20$for$u20$pyo3..impl_..pyclass..PyClassImplCollector$LT$_oryon..features..Mma$GT$$GT$10py_methods5ITEMS10trampoline17h8dc120060b1591c8E', symObjAddr: 0x3594, symBinAddr: 0x31FF4, symSize: 0x44 }
  - { offset: 0xB07A6, size: 0x8, addend: 0x0, symName: '__ZN6_oryon8features162_$LT$impl$u20$pyo3..impl_..pyclass..PyMethods$LT$_oryon..features..Mma$GT$$u20$for$u20$pyo3..impl_..pyclass..PyClassImplCollector$LT$_oryon..features..Mma$GT$$GT$10py_methods5ITEMS10trampoline17h9fa67dfa85842923E', symObjAddr: 0x35D8, symBinAddr: 0x32038, symSize: 0x44 }
  - { offset: 0xB07E0, size: 0x8, addend: 0x0, symName: '__ZN6_oryon8features162_$LT$impl$u20$pyo3..impl_..pyclass..PyMethods$LT$_oryon..features..Mma$GT$$u20$for$u20$pyo3..impl_..pyclass..PyClassImplCollector$LT$_oryon..features..Mma$GT$$GT$10py_methods5ITEMS10trampoline17hbf59da9cc7a4094aE', symObjAddr: 0x361C, symBinAddr: 0x3207C, symSize: 0x50 }
  - { offset: 0xB0836, size: 0x8, addend: 0x0, symName: '__ZN6_oryon8features162_$LT$impl$u20$pyo3..impl_..pyclass..PyMethods$LT$_oryon..features..Mma$GT$$u20$for$u20$pyo3..impl_..pyclass..PyClassImplCollector$LT$_oryon..features..Mma$GT$$GT$10py_methods5ITEMS10trampoline17hc17603e4e0c98783E', symObjAddr: 0x366C, symBinAddr: 0x320CC, symSize: 0x44 }
  - { offset: 0xB0870, size: 0x8, addend: 0x0, symName: '__ZN6_oryon8features162_$LT$impl$u20$pyo3..impl_..pyclass..PyMethods$LT$_oryon..features..Mma$GT$$u20$for$u20$pyo3..impl_..pyclass..PyClassImplCollector$LT$_oryon..features..Mma$GT$$GT$10py_methods5ITEMS10trampoline17hcec696629684f256E', symObjAddr: 0x36B0, symBinAddr: 0x32110, symSize: 0x3C }
  - { offset: 0xB08B6, size: 0x8, addend: 0x0, symName: '__ZN6_oryon8features162_$LT$impl$u20$pyo3..impl_..pyclass..PyMethods$LT$_oryon..features..Sma$GT$$u20$for$u20$pyo3..impl_..pyclass..PyClassImplCollector$LT$_oryon..features..Sma$GT$$GT$10py_methods5ITEMS17h439ced84d9a8a8bbE', symObjAddr: 0x18360, symBinAddr: 0x192BA8, symSize: 0x0 }
  - { offset: 0xB08C8, size: 0x8, addend: 0x0, symName: '__ZN6_oryon8features162_$LT$impl$u20$pyo3..impl_..pyclass..PyMethods$LT$_oryon..features..Sma$GT$$u20$for$u20$pyo3..impl_..pyclass..PyClassImplCollector$LT$_oryon..features..Sma$GT$$GT$10py_methods5ITEMS10trampoline17h7ccf9e45f577c4dcE', symObjAddr: 0x36EC, symBinAddr: 0x3214C, symSize: 0x44 }
  - { offset: 0xB0902, size: 0x8, addend: 0x0, symName: '__ZN6_oryon8features162_$LT$impl$u20$pyo3..impl_..pyclass..PyMethods$LT$_oryon..features..Sma$GT$$u20$for$u20$pyo3..impl_..pyclass..PyClassImplCollector$LT$_oryon..features..Sma$GT$$GT$10py_methods5ITEMS10trampoline17h987337a53037d0e4E', symObjAddr: 0x3730, symBinAddr: 0x32190, symSize: 0x44 }
  - { offset: 0xB093C, size: 0x8, addend: 0x0, symName: '__ZN6_oryon8features162_$LT$impl$u20$pyo3..impl_..pyclass..PyMethods$LT$_oryon..features..Sma$GT$$u20$for$u20$pyo3..impl_..pyclass..PyClassImplCollector$LT$_oryon..features..Sma$GT$$GT$10py_methods5ITEMS10trampoline17haae0e8f4428003a4E', symObjAddr: 0x3774, symBinAddr: 0x321D4, symSize: 0x50 }
  - { offset: 0xB0992, size: 0x8, addend: 0x0, symName: '__ZN6_oryon8features162_$LT$impl$u20$pyo3..impl_..pyclass..PyMethods$LT$_oryon..features..Sma$GT$$u20$for$u20$pyo3..impl_..pyclass..PyClassImplCollector$LT$_oryon..features..Sma$GT$$GT$10py_methods5ITEMS10trampoline17hb197835b0d2f1576E', symObjAddr: 0x37C4, symBinAddr: 0x32224, symSize: 0x44 }
  - { offset: 0xB09CC, size: 0x8, addend: 0x0, symName: '__ZN6_oryon8features162_$LT$impl$u20$pyo3..impl_..pyclass..PyMethods$LT$_oryon..features..Sma$GT$$u20$for$u20$pyo3..impl_..pyclass..PyClassImplCollector$LT$_oryon..features..Sma$GT$$GT$10py_methods5ITEMS10trampoline17hc65dfebe7c00cbcdE', symObjAddr: 0x3808, symBinAddr: 0x32268, symSize: 0x44 }
  - { offset: 0xB0A06, size: 0x8, addend: 0x0, symName: '__ZN6_oryon8features162_$LT$impl$u20$pyo3..impl_..pyclass..PyMethods$LT$_oryon..features..Sma$GT$$u20$for$u20$pyo3..impl_..pyclass..PyClassImplCollector$LT$_oryon..features..Sma$GT$$GT$10py_methods5ITEMS10trampoline17hddc4c1eb10db0be3E', symObjAddr: 0x384C, symBinAddr: 0x322AC, symSize: 0x3C }
  - { offset: 0xB0A32, size: 0x8, addend: 0x0, symName: '__ZN6_oryon8features162_$LT$impl$u20$pyo3..impl_..pyclass..PyMethods$LT$_oryon..features..Sma$GT$$u20$for$u20$pyo3..impl_..pyclass..PyClassImplCollector$LT$_oryon..features..Sma$GT$$GT$10py_methods5ITEMS10trampoline17hf73109d4c5a22ac4E', symObjAddr: 0x3888, symBinAddr: 0x322E8, symSize: 0x4C }
  - { offset: 0xB0A95, size: 0x8, addend: 0x0, symName: '__ZN6_oryon8features164_$LT$impl$u20$pyo3..impl_..pyclass..PyMethods$LT$_oryon..features..Kama$GT$$u20$for$u20$pyo3..impl_..pyclass..PyClassImplCollector$LT$_oryon..features..Kama$GT$$GT$10py_methods5ITEMS17hc482199cc9150723E', symObjAddr: 0x184E0, symBinAddr: 0x192D28, symSize: 0x0 }
  - { offset: 0xB0AA7, size: 0x8, addend: 0x0, symName: '__ZN6_oryon8features164_$LT$impl$u20$pyo3..impl_..pyclass..PyMethods$LT$_oryon..features..Kama$GT$$u20$for$u20$pyo3..impl_..pyclass..PyClassImplCollector$LT$_oryon..features..Kama$GT$$GT$10py_methods5ITEMS10trampoline17h49f91dbce39a9b36E', symObjAddr: 0x38D4, symBinAddr: 0x32334, symSize: 0x3C }
  - { offset: 0xB0AD5, size: 0x8, addend: 0x0, symName: '__ZN6_oryon8features164_$LT$impl$u20$pyo3..impl_..pyclass..PyMethods$LT$_oryon..features..Kama$GT$$u20$for$u20$pyo3..impl_..pyclass..PyClassImplCollector$LT$_oryon..features..Kama$GT$$GT$10py_methods5ITEMS10trampoline17h52252529c21e3d39E', symObjAddr: 0x3910, symBinAddr: 0x32370, symSize: 0x44 }
  - { offset: 0xB0B12, size: 0x8, addend: 0x0, symName: '__ZN6_oryon8features164_$LT$impl$u20$pyo3..impl_..pyclass..PyMethods$LT$_oryon..features..Kama$GT$$u20$for$u20$pyo3..impl_..pyclass..PyClassImplCollector$LT$_oryon..features..Kama$GT$$GT$10py_methods5ITEMS10trampoline17h90a9b3a89e87b307E', symObjAddr: 0x3954, symBinAddr: 0x323B4, symSize: 0x50 }
  - { offset: 0xB0B6D, size: 0x8, addend: 0x0, symName: '__ZN6_oryon8features164_$LT$impl$u20$pyo3..impl_..pyclass..PyMethods$LT$_oryon..features..Kama$GT$$u20$for$u20$pyo3..impl_..pyclass..PyClassImplCollector$LT$_oryon..features..Kama$GT$$GT$10py_methods5ITEMS10trampoline17h955251a5a6f8b805E', symObjAddr: 0x39A4, symBinAddr: 0x32404, symSize: 0x4C }
  - { offset: 0xB0BB9, size: 0x8, addend: 0x0, symName: '__ZN6_oryon8features164_$LT$impl$u20$pyo3..impl_..pyclass..PyMethods$LT$_oryon..features..Kama$GT$$u20$for$u20$pyo3..impl_..pyclass..PyClassImplCollector$LT$_oryon..features..Kama$GT$$GT$10py_methods5ITEMS10trampoline17h968c6286eac96565E', symObjAddr: 0x39F0, symBinAddr: 0x32450, symSize: 0x44 }
  - { offset: 0xB0BF6, size: 0x8, addend: 0x0, symName: '__ZN6_oryon8features164_$LT$impl$u20$pyo3..impl_..pyclass..PyMethods$LT$_oryon..features..Kama$GT$$u20$for$u20$pyo3..impl_..pyclass..PyClassImplCollector$LT$_oryon..features..Kama$GT$$GT$10py_methods5ITEMS10trampoline17haa72786714c45f1eE', symObjAddr: 0x3A34, symBinAddr: 0x32494, symSize: 0x44 }
  - { offset: 0xB0C33, size: 0x8, addend: 0x0, symName: '__ZN6_oryon8features164_$LT$impl$u20$pyo3..impl_..pyclass..PyMethods$LT$_oryon..features..Kama$GT$$u20$for$u20$pyo3..impl_..pyclass..PyClassImplCollector$LT$_oryon..features..Kama$GT$$GT$10py_methods5ITEMS10trampoline17hb7801538264addebE', symObjAddr: 0x3A78, symBinAddr: 0x324D8, symSize: 0x44 }
  - { offset: 0xB0C8B, size: 0x8, addend: 0x0, symName: '__ZN6_oryon8features172_$LT$impl$u20$pyo3..impl_..pyclass..PyMethods$LT$_oryon..features..Kurtosis$GT$$u20$for$u20$pyo3..impl_..pyclass..PyClassImplCollector$LT$_oryon..features..Kurtosis$GT$$GT$10py_methods5ITEMS17h752ef0953cd40cd4E', symObjAddr: 0x18660, symBinAddr: 0x192EA8, symSize: 0x0 }
  - { offset: 0xB0C9D, size: 0x8, addend: 0x0, symName: '__ZN6_oryon8features172_$LT$impl$u20$pyo3..impl_..pyclass..PyMethods$LT$_oryon..features..Kurtosis$GT$$u20$for$u20$pyo3..impl_..pyclass..PyClassImplCollector$LT$_oryon..features..Kurtosis$GT$$GT$10py_methods5ITEMS10trampoline17h5113e4db904488fdE', symObjAddr: 0x3BDC, symBinAddr: 0x3263C, symSize: 0x4C }
  - { offset: 0xB0CE9, size: 0x8, addend: 0x0, symName: '__ZN6_oryon8features172_$LT$impl$u20$pyo3..impl_..pyclass..PyMethods$LT$_oryon..features..Kurtosis$GT$$u20$for$u20$pyo3..impl_..pyclass..PyClassImplCollector$LT$_oryon..features..Kurtosis$GT$$GT$10py_methods5ITEMS10trampoline17h6bf2003db2a66e93E', symObjAddr: 0x3C28, symBinAddr: 0x32688, symSize: 0x3C }
  - { offset: 0xB0D17, size: 0x8, addend: 0x0, symName: '__ZN6_oryon8features172_$LT$impl$u20$pyo3..impl_..pyclass..PyMethods$LT$_oryon..features..Kurtosis$GT$$u20$for$u20$pyo3..impl_..pyclass..PyClassImplCollector$LT$_oryon..features..Kurtosis$GT$$GT$10py_methods5ITEMS10trampoline17hbf55464f151c1e77E', symObjAddr: 0x3C64, symBinAddr: 0x326C4, symSize: 0x44 }
  - { offset: 0xB0D54, size: 0x8, addend: 0x0, symName: '__ZN6_oryon8features172_$LT$impl$u20$pyo3..impl_..pyclass..PyMethods$LT$_oryon..features..Kurtosis$GT$$u20$for$u20$pyo3..impl_..pyclass..PyClassImplCollector$LT$_oryon..features..Kurtosis$GT$$GT$10py_methods5ITEMS10trampoline17hc3c0bb5c403fa712E', symObjAddr: 0x3CA8, symBinAddr: 0x32708, symSize: 0x44 }
  - { offset: 0xB0D91, size: 0x8, addend: 0x0, symName: '__ZN6_oryon8features172_$LT$impl$u20$pyo3..impl_..pyclass..PyMethods$LT$_oryon..features..Kurtosis$GT$$u20$for$u20$pyo3..impl_..pyclass..PyClassImplCollector$LT$_oryon..features..Kurtosis$GT$$GT$10py_methods5ITEMS10trampoline17he3a9f80a5d599287E', symObjAddr: 0x3CEC, symBinAddr: 0x3274C, symSize: 0x44 }
  - { offset: 0xB0DCE, size: 0x8, addend: 0x0, symName: '__ZN6_oryon8features172_$LT$impl$u20$pyo3..impl_..pyclass..PyMethods$LT$_oryon..features..Kurtosis$GT$$u20$for$u20$pyo3..impl_..pyclass..PyClassImplCollector$LT$_oryon..features..Kurtosis$GT$$GT$10py_methods5ITEMS10trampoline17hf66cf349d92df481E', symObjAddr: 0x3D30, symBinAddr: 0x32790, symSize: 0x44 }
  - { offset: 0xB0E0B, size: 0x8, addend: 0x0, symName: '__ZN6_oryon8features172_$LT$impl$u20$pyo3..impl_..pyclass..PyMethods$LT$_oryon..features..Kurtosis$GT$$u20$for$u20$pyo3..impl_..pyclass..PyClassImplCollector$LT$_oryon..features..Kurtosis$GT$$GT$10py_methods5ITEMS10trampoline17hf9959d8574a27aa3E', symObjAddr: 0x3D74, symBinAddr: 0x327D4, symSize: 0x50 }
  - { offset: 0xB0E81, size: 0x8, addend: 0x0, symName: '__ZN6_oryon8features172_$LT$impl$u20$pyo3..impl_..pyclass..PyMethods$LT$_oryon..features..Skewness$GT$$u20$for$u20$pyo3..impl_..pyclass..PyClassImplCollector$LT$_oryon..features..Skewness$GT$$GT$10py_methods5ITEMS17h1f2b516e35b99d10E', symObjAddr: 0x187E0, symBinAddr: 0x193028, symSize: 0x0 }
  - { offset: 0xB0E93, size: 0x8, addend: 0x0, symName: '__ZN6_oryon8features172_$LT$impl$u20$pyo3..impl_..pyclass..PyMethods$LT$_oryon..features..Skewness$GT$$u20$for$u20$pyo3..impl_..pyclass..PyClassImplCollector$LT$_oryon..features..Skewness$GT$$GT$10py_methods5ITEMS10trampoline17h362564c5f77c1005E', symObjAddr: 0x3DC4, symBinAddr: 0x32824, symSize: 0x44 }
  - { offset: 0xB0ED0, size: 0x8, addend: 0x0, symName: '__ZN6_oryon8features172_$LT$impl$u20$pyo3..impl_..pyclass..PyMethods$LT$_oryon..features..Skewness$GT$$u20$for$u20$pyo3..impl_..pyclass..PyClassImplCollector$LT$_oryon..features..Skewness$GT$$GT$10py_methods5ITEMS10trampoline17h409665cbe4f6a7d9E', symObjAddr: 0x3E08, symBinAddr: 0x32868, symSize: 0x4C }
  - { offset: 0xB0F1C, size: 0x8, addend: 0x0, symName: '__ZN6_oryon8features172_$LT$impl$u20$pyo3..impl_..pyclass..PyMethods$LT$_oryon..features..Skewness$GT$$u20$for$u20$pyo3..impl_..pyclass..PyClassImplCollector$LT$_oryon..features..Skewness$GT$$GT$10py_methods5ITEMS10trampoline17h4bd6fb7135de027dE', symObjAddr: 0x3E54, symBinAddr: 0x328B4, symSize: 0x44 }
  - { offset: 0xB0F59, size: 0x8, addend: 0x0, symName: '__ZN6_oryon8features172_$LT$impl$u20$pyo3..impl_..pyclass..PyMethods$LT$_oryon..features..Skewness$GT$$u20$for$u20$pyo3..impl_..pyclass..PyClassImplCollector$LT$_oryon..features..Skewness$GT$$GT$10py_methods5ITEMS10trampoline17h69944c27466c32b9E', symObjAddr: 0x3E98, symBinAddr: 0x328F8, symSize: 0x44 }
  - { offset: 0xB0F96, size: 0x8, addend: 0x0, symName: '__ZN6_oryon8features172_$LT$impl$u20$pyo3..impl_..pyclass..PyMethods$LT$_oryon..features..Skewness$GT$$u20$for$u20$pyo3..impl_..pyclass..PyClassImplCollector$LT$_oryon..features..Skewness$GT$$GT$10py_methods5ITEMS10trampoline17h6adc4eadfad59bbdE', symObjAddr: 0x3EDC, symBinAddr: 0x3293C, symSize: 0x50 }
  - { offset: 0xB0FF1, size: 0x8, addend: 0x0, symName: '__ZN6_oryon8features172_$LT$impl$u20$pyo3..impl_..pyclass..PyMethods$LT$_oryon..features..Skewness$GT$$u20$for$u20$pyo3..impl_..pyclass..PyClassImplCollector$LT$_oryon..features..Skewness$GT$$GT$10py_methods5ITEMS10trampoline17h911f48abf9548de3E', symObjAddr: 0x3F2C, symBinAddr: 0x3298C, symSize: 0x44 }
  - { offset: 0xB102E, size: 0x8, addend: 0x0, symName: '__ZN6_oryon8features172_$LT$impl$u20$pyo3..impl_..pyclass..PyMethods$LT$_oryon..features..Skewness$GT$$u20$for$u20$pyo3..impl_..pyclass..PyClassImplCollector$LT$_oryon..features..Skewness$GT$$GT$10py_methods5ITEMS10trampoline17hcb04ccdbdac777c0E', symObjAddr: 0x3F70, symBinAddr: 0x329D0, symSize: 0x3C }
  - { offset: 0xB1077, size: 0x8, addend: 0x0, symName: '__ZN6_oryon8features174_$LT$impl$u20$pyo3..impl_..pyclass..PyMethods$LT$_oryon..features..LogReturn$GT$$u20$for$u20$pyo3..impl_..pyclass..PyClassImplCollector$LT$_oryon..features..LogReturn$GT$$GT$10py_methods5ITEMS17h8e4caa95a15b10cfE', symObjAddr: 0x18960, symBinAddr: 0x1931A8, symSize: 0x0 }
  - { offset: 0xB1089, size: 0x8, addend: 0x0, symName: '__ZN6_oryon8features174_$LT$impl$u20$pyo3..impl_..pyclass..PyMethods$LT$_oryon..features..LogReturn$GT$$u20$for$u20$pyo3..impl_..pyclass..PyClassImplCollector$LT$_oryon..features..LogReturn$GT$$GT$10py_methods5ITEMS10trampoline17h3d4db4c72936178cE', symObjAddr: 0x3FAC, symBinAddr: 0x32A0C, symSize: 0x44 }
  - { offset: 0xB10C6, size: 0x8, addend: 0x0, symName: '__ZN6_oryon8features174_$LT$impl$u20$pyo3..impl_..pyclass..PyMethods$LT$_oryon..features..LogReturn$GT$$u20$for$u20$pyo3..impl_..pyclass..PyClassImplCollector$LT$_oryon..features..LogReturn$GT$$GT$10py_methods5ITEMS10trampoline17h668eaadfe41ca5ecE', symObjAddr: 0x3FF0, symBinAddr: 0x32A50, symSize: 0x44 }
  - { offset: 0xB1103, size: 0x8, addend: 0x0, symName: '__ZN6_oryon8features174_$LT$impl$u20$pyo3..impl_..pyclass..PyMethods$LT$_oryon..features..LogReturn$GT$$u20$for$u20$pyo3..impl_..pyclass..PyClassImplCollector$LT$_oryon..features..LogReturn$GT$$GT$10py_methods5ITEMS10trampoline17h9a184af23330630fE', symObjAddr: 0x4034, symBinAddr: 0x32A94, symSize: 0x50 }
  - { offset: 0xB115E, size: 0x8, addend: 0x0, symName: '__ZN6_oryon8features174_$LT$impl$u20$pyo3..impl_..pyclass..PyMethods$LT$_oryon..features..LogReturn$GT$$u20$for$u20$pyo3..impl_..pyclass..PyClassImplCollector$LT$_oryon..features..LogReturn$GT$$GT$10py_methods5ITEMS10trampoline17hb7f706eb63149560E', symObjAddr: 0x4084, symBinAddr: 0x32AE4, symSize: 0x3C }
  - { offset: 0xB118C, size: 0x8, addend: 0x0, symName: '__ZN6_oryon8features174_$LT$impl$u20$pyo3..impl_..pyclass..PyMethods$LT$_oryon..features..LogReturn$GT$$u20$for$u20$pyo3..impl_..pyclass..PyClassImplCollector$LT$_oryon..features..LogReturn$GT$$GT$10py_methods5ITEMS10trampoline17hc8198b3de77242fcE', symObjAddr: 0x40C0, symBinAddr: 0x32B20, symSize: 0x44 }
  - { offset: 0xB11C9, size: 0x8, addend: 0x0, symName: '__ZN6_oryon8features174_$LT$impl$u20$pyo3..impl_..pyclass..PyMethods$LT$_oryon..features..LogReturn$GT$$u20$for$u20$pyo3..impl_..pyclass..PyClassImplCollector$LT$_oryon..features..LogReturn$GT$$GT$10py_methods5ITEMS10trampoline17hda6897b14dc55e71E', symObjAddr: 0x4104, symBinAddr: 0x32B64, symSize: 0x4C }
  - { offset: 0xB1215, size: 0x8, addend: 0x0, symName: '__ZN6_oryon8features174_$LT$impl$u20$pyo3..impl_..pyclass..PyMethods$LT$_oryon..features..LogReturn$GT$$u20$for$u20$pyo3..impl_..pyclass..PyClassImplCollector$LT$_oryon..features..LogReturn$GT$$GT$10py_methods5ITEMS10trampoline17he306c0873e843945E', symObjAddr: 0x4150, symBinAddr: 0x32BB0, symSize: 0x44 }
  - { offset: 0xB126D, size: 0x8, addend: 0x0, symName: '__ZN6_oryon8features178_$LT$impl$u20$pyo3..impl_..pyclass..PyMethods$LT$_oryon..features..LinearSlope$GT$$u20$for$u20$pyo3..impl_..pyclass..PyClassImplCollector$LT$_oryon..features..LinearSlope$GT$$GT$10py_methods5ITEMS17hf07243c455bc4829E', symObjAddr: 0x18AE0, symBinAddr: 0x193328, symSize: 0x0 }
  - { offset: 0xB127F, size: 0x8, addend: 0x0, symName: '__ZN6_oryon8features178_$LT$impl$u20$pyo3..impl_..pyclass..PyMethods$LT$_oryon..features..LinearSlope$GT$$u20$for$u20$pyo3..impl_..pyclass..PyClassImplCollector$LT$_oryon..features..LinearSlope$GT$$GT$10py_methods5ITEMS10trampoline17h22969cc14943d2e5E', symObjAddr: 0x4194, symBinAddr: 0x32BF4, symSize: 0x50 }
  - { offset: 0xB12DA, size: 0x8, addend: 0x0, symName: '__ZN6_oryon8features178_$LT$impl$u20$pyo3..impl_..pyclass..PyMethods$LT$_oryon..features..LinearSlope$GT$$u20$for$u20$pyo3..impl_..pyclass..PyClassImplCollector$LT$_oryon..features..LinearSlope$GT$$GT$10py_methods5ITEMS10trampoline17h2440da104db650edE', symObjAddr: 0x41E4, symBinAddr: 0x32C44, symSize: 0x44 }
  - { offset: 0xB1317, size: 0x8, addend: 0x0, symName: '__ZN6_oryon8features178_$LT$impl$u20$pyo3..impl_..pyclass..PyMethods$LT$_oryon..features..LinearSlope$GT$$u20$for$u20$pyo3..impl_..pyclass..PyClassImplCollector$LT$_oryon..features..LinearSlope$GT$$GT$10py_methods5ITEMS10trampoline17h2f0eeeeb2cb7371eE', symObjAddr: 0x4228, symBinAddr: 0x32C88, symSize: 0x44 }
  - { offset: 0xB1354, size: 0x8, addend: 0x0, symName: '__ZN6_oryon8features178_$LT$impl$u20$pyo3..impl_..pyclass..PyMethods$LT$_oryon..features..LinearSlope$GT$$u20$for$u20$pyo3..impl_..pyclass..PyClassImplCollector$LT$_oryon..features..LinearSlope$GT$$GT$10py_methods5ITEMS10trampoline17h77738be759261930E', symObjAddr: 0x426C, symBinAddr: 0x32CCC, symSize: 0x3C }
  - { offset: 0xB1382, size: 0x8, addend: 0x0, symName: '__ZN6_oryon8features178_$LT$impl$u20$pyo3..impl_..pyclass..PyMethods$LT$_oryon..features..LinearSlope$GT$$u20$for$u20$pyo3..impl_..pyclass..PyClassImplCollector$LT$_oryon..features..LinearSlope$GT$$GT$10py_methods5ITEMS10trampoline17h8c842ebb9994c6f9E', symObjAddr: 0x42A8, symBinAddr: 0x32D08, symSize: 0x4C }
  - { offset: 0xB13CE, size: 0x8, addend: 0x0, symName: '__ZN6_oryon8features178_$LT$impl$u20$pyo3..impl_..pyclass..PyMethods$LT$_oryon..features..LinearSlope$GT$$u20$for$u20$pyo3..impl_..pyclass..PyClassImplCollector$LT$_oryon..features..LinearSlope$GT$$GT$10py_methods5ITEMS10trampoline17hb4b25e42bb6b5224E', symObjAddr: 0x42F4, symBinAddr: 0x32D54, symSize: 0x44 }
  - { offset: 0xB140B, size: 0x8, addend: 0x0, symName: '__ZN6_oryon8features178_$LT$impl$u20$pyo3..impl_..pyclass..PyMethods$LT$_oryon..features..LinearSlope$GT$$u20$for$u20$pyo3..impl_..pyclass..PyClassImplCollector$LT$_oryon..features..LinearSlope$GT$$GT$10py_methods5ITEMS10trampoline17hee8d10401fea9c34E', symObjAddr: 0x4338, symBinAddr: 0x32D98, symSize: 0x44 }
  - { offset: 0xB1463, size: 0x8, addend: 0x0, symName: '__ZN6_oryon8features180_$LT$impl$u20$pyo3..impl_..pyclass..PyMethods$LT$_oryon..features..SimpleReturn$GT$$u20$for$u20$pyo3..impl_..pyclass..PyClassImplCollector$LT$_oryon..features..SimpleReturn$GT$$GT$10py_methods5ITEMS17h746ff2535843d615E', symObjAddr: 0x18C60, symBinAddr: 0x1934A8, symSize: 0x0 }
  - { offset: 0xB1475, size: 0x8, addend: 0x0, symName: '__ZN6_oryon8features180_$LT$impl$u20$pyo3..impl_..pyclass..PyMethods$LT$_oryon..features..SimpleReturn$GT$$u20$for$u20$pyo3..impl_..pyclass..PyClassImplCollector$LT$_oryon..features..SimpleReturn$GT$$GT$10py_methods5ITEMS10trampoline17h31c9bc63cefff17dE', symObjAddr: 0x437C, symBinAddr: 0x32DDC, symSize: 0x44 }
  - { offset: 0xB14B2, size: 0x8, addend: 0x0, symName: '__ZN6_oryon8features180_$LT$impl$u20$pyo3..impl_..pyclass..PyMethods$LT$_oryon..features..SimpleReturn$GT$$u20$for$u20$pyo3..impl_..pyclass..PyClassImplCollector$LT$_oryon..features..SimpleReturn$GT$$GT$10py_methods5ITEMS10trampoline17h675ffa14b0607c26E', symObjAddr: 0x43C0, symBinAddr: 0x32E20, symSize: 0x50 }
  - { offset: 0xB150D, size: 0x8, addend: 0x0, symName: '__ZN6_oryon8features180_$LT$impl$u20$pyo3..impl_..pyclass..PyMethods$LT$_oryon..features..SimpleReturn$GT$$u20$for$u20$pyo3..impl_..pyclass..PyClassImplCollector$LT$_oryon..features..SimpleReturn$GT$$GT$10py_methods5ITEMS10trampoline17h9bac69a81aee1ad0E', symObjAddr: 0x4410, symBinAddr: 0x32E70, symSize: 0x44 }
  - { offset: 0xB154A, size: 0x8, addend: 0x0, symName: '__ZN6_oryon8features180_$LT$impl$u20$pyo3..impl_..pyclass..PyMethods$LT$_oryon..features..SimpleReturn$GT$$u20$for$u20$pyo3..impl_..pyclass..PyClassImplCollector$LT$_oryon..features..SimpleReturn$GT$$GT$10py_methods5ITEMS10trampoline17hb4472cafe591f95aE', symObjAddr: 0x4454, symBinAddr: 0x32EB4, symSize: 0x44 }
  - { offset: 0xB1587, size: 0x8, addend: 0x0, symName: '__ZN6_oryon8features180_$LT$impl$u20$pyo3..impl_..pyclass..PyMethods$LT$_oryon..features..SimpleReturn$GT$$u20$for$u20$pyo3..impl_..pyclass..PyClassImplCollector$LT$_oryon..features..SimpleReturn$GT$$GT$10py_methods5ITEMS10trampoline17hb7d6aa428e309efcE', symObjAddr: 0x4498, symBinAddr: 0x32EF8, symSize: 0x44 }
  - { offset: 0xB15C4, size: 0x8, addend: 0x0, symName: '__ZN6_oryon8features180_$LT$impl$u20$pyo3..impl_..pyclass..PyMethods$LT$_oryon..features..SimpleReturn$GT$$u20$for$u20$pyo3..impl_..pyclass..PyClassImplCollector$LT$_oryon..features..SimpleReturn$GT$$GT$10py_methods5ITEMS10trampoline17hdabce7e02b1dce69E', symObjAddr: 0x44DC, symBinAddr: 0x32F3C, symSize: 0x4C }
  - { offset: 0xB1610, size: 0x8, addend: 0x0, symName: '__ZN6_oryon8features180_$LT$impl$u20$pyo3..impl_..pyclass..PyMethods$LT$_oryon..features..SimpleReturn$GT$$u20$for$u20$pyo3..impl_..pyclass..PyClassImplCollector$LT$_oryon..features..SimpleReturn$GT$$GT$10py_methods5ITEMS10trampoline17hf75865c07078344cE', symObjAddr: 0x4528, symBinAddr: 0x32F88, symSize: 0x3C }
  - { offset: 0xB1659, size: 0x8, addend: 0x0, symName: '__ZN6_oryon8features194_$LT$impl$u20$pyo3..impl_..pyclass..PyMethods$LT$_oryon..features..ParkinsonVolatility$GT$$u20$for$u20$pyo3..impl_..pyclass..PyClassImplCollector$LT$_oryon..features..ParkinsonVolatility$GT$$GT$10py_methods5ITEMS17h58a28df474398733E', symObjAddr: 0x18DE0, symBinAddr: 0x193628, symSize: 0x0 }
  - { offset: 0xB166B, size: 0x8, addend: 0x0, symName: '__ZN6_oryon8features194_$LT$impl$u20$pyo3..impl_..pyclass..PyMethods$LT$_oryon..features..ParkinsonVolatility$GT$$u20$for$u20$pyo3..impl_..pyclass..PyClassImplCollector$LT$_oryon..features..ParkinsonVolatility$GT$$GT$10py_methods5ITEMS10trampoline17h0f350e07bb1f9c60E', symObjAddr: 0x4564, symBinAddr: 0x32FC4, symSize: 0x50 }
  - { offset: 0xB16C6, size: 0x8, addend: 0x0, symName: '__ZN6_oryon8features194_$LT$impl$u20$pyo3..impl_..pyclass..PyMethods$LT$_oryon..features..ParkinsonVolatility$GT$$u20$for$u20$pyo3..impl_..pyclass..PyClassImplCollector$LT$_oryon..features..ParkinsonVolatility$GT$$GT$10py_methods5ITEMS10trampoline17h2ffcf428be08e5caE', symObjAddr: 0x45B4, symBinAddr: 0x33014, symSize: 0x3C }
  - { offset: 0xB16F4, size: 0x8, addend: 0x0, symName: '__ZN6_oryon8features194_$LT$impl$u20$pyo3..impl_..pyclass..PyMethods$LT$_oryon..features..ParkinsonVolatility$GT$$u20$for$u20$pyo3..impl_..pyclass..PyClassImplCollector$LT$_oryon..features..ParkinsonVolatility$GT$$GT$10py_methods5ITEMS10trampoline17h4f4d3a93bbb82f47E', symObjAddr: 0x45F0, symBinAddr: 0x33050, symSize: 0x44 }
  - { offset: 0xB1731, size: 0x8, addend: 0x0, symName: '__ZN6_oryon8features194_$LT$impl$u20$pyo3..impl_..pyclass..PyMethods$LT$_oryon..features..ParkinsonVolatility$GT$$u20$for$u20$pyo3..impl_..pyclass..PyClassImplCollector$LT$_oryon..features..ParkinsonVolatility$GT$$GT$10py_methods5ITEMS10trampoline17h735037ef5c45f653E', symObjAddr: 0x4634, symBinAddr: 0x33094, symSize: 0x4C }
  - { offset: 0xB177D, size: 0x8, addend: 0x0, symName: '__ZN6_oryon8features194_$LT$impl$u20$pyo3..impl_..pyclass..PyMethods$LT$_oryon..features..ParkinsonVolatility$GT$$u20$for$u20$pyo3..impl_..pyclass..PyClassImplCollector$LT$_oryon..features..ParkinsonVolatility$GT$$GT$10py_methods5ITEMS10trampoline17hae4060b02d99a372E', symObjAddr: 0x4680, symBinAddr: 0x330E0, symSize: 0x44 }
  - { offset: 0xB17BA, size: 0x8, addend: 0x0, symName: '__ZN6_oryon8features194_$LT$impl$u20$pyo3..impl_..pyclass..PyMethods$LT$_oryon..features..ParkinsonVolatility$GT$$u20$for$u20$pyo3..impl_..pyclass..PyClassImplCollector$LT$_oryon..features..ParkinsonVolatility$GT$$GT$10py_methods5ITEMS10trampoline17hd8f4fb70ea2629b9E', symObjAddr: 0x46C4, symBinAddr: 0x33124, symSize: 0x44 }
  - { offset: 0xB17F7, size: 0x8, addend: 0x0, symName: '__ZN6_oryon8features194_$LT$impl$u20$pyo3..impl_..pyclass..PyMethods$LT$_oryon..features..ParkinsonVolatility$GT$$u20$for$u20$pyo3..impl_..pyclass..PyClassImplCollector$LT$_oryon..features..ParkinsonVolatility$GT$$GT$10py_methods5ITEMS10trampoline17hd93465d3dfc1e2c1E', symObjAddr: 0x4708, symBinAddr: 0x33168, symSize: 0x44 }
  - { offset: 0xB184F, size: 0x8, addend: 0x0, symName: '__ZN6_oryon8features204_$LT$impl$u20$pyo3..impl_..pyclass..PyMethods$LT$_oryon..features..RogersSatchellVolatility$GT$$u20$for$u20$pyo3..impl_..pyclass..PyClassImplCollector$LT$_oryon..features..RogersSatchellVolatility$GT$$GT$10py_methods5ITEMS17hefaf19c88509c510E', symObjAddr: 0x190A8, symBinAddr: 0x1938F0, symSize: 0x0 }
  - { offset: 0xB1861, size: 0x8, addend: 0x0, symName: '__ZN6_oryon8features204_$LT$impl$u20$pyo3..impl_..pyclass..PyMethods$LT$_oryon..features..RogersSatchellVolatility$GT$$u20$for$u20$pyo3..impl_..pyclass..PyClassImplCollector$LT$_oryon..features..RogersSatchellVolatility$GT$$GT$10py_methods5ITEMS10trampoline17h105704a1d71f184eE', symObjAddr: 0x5FFC, symBinAddr: 0x34A5C, symSize: 0x44 }
  - { offset: 0xB189E, size: 0x8, addend: 0x0, symName: '__ZN6_oryon8features204_$LT$impl$u20$pyo3..impl_..pyclass..PyMethods$LT$_oryon..features..RogersSatchellVolatility$GT$$u20$for$u20$pyo3..impl_..pyclass..PyClassImplCollector$LT$_oryon..features..RogersSatchellVolatility$GT$$GT$10py_methods5ITEMS10trampoline17h1c64e5fc76c3a2feE', symObjAddr: 0x6040, symBinAddr: 0x34AA0, symSize: 0x50 }
  - { offset: 0xB18F9, size: 0x8, addend: 0x0, symName: '__ZN6_oryon8features204_$LT$impl$u20$pyo3..impl_..pyclass..PyMethods$LT$_oryon..features..RogersSatchellVolatility$GT$$u20$for$u20$pyo3..impl_..pyclass..PyClassImplCollector$LT$_oryon..features..RogersSatchellVolatility$GT$$GT$10py_methods5ITEMS10trampoline17h59fda69b5b7b874cE', symObjAddr: 0x6090, symBinAddr: 0x34AF0, symSize: 0x44 }
  - { offset: 0xB1936, size: 0x8, addend: 0x0, symName: '__ZN6_oryon8features204_$LT$impl$u20$pyo3..impl_..pyclass..PyMethods$LT$_oryon..features..RogersSatchellVolatility$GT$$u20$for$u20$pyo3..impl_..pyclass..PyClassImplCollector$LT$_oryon..features..RogersSatchellVolatility$GT$$GT$10py_methods5ITEMS10trampoline17h6492fb69f15e43b6E', symObjAddr: 0x60D4, symBinAddr: 0x34B34, symSize: 0x3C }
  - { offset: 0xB1964, size: 0x8, addend: 0x0, symName: '__ZN6_oryon8features204_$LT$impl$u20$pyo3..impl_..pyclass..PyMethods$LT$_oryon..features..RogersSatchellVolatility$GT$$u20$for$u20$pyo3..impl_..pyclass..PyClassImplCollector$LT$_oryon..features..RogersSatchellVolatility$GT$$GT$10py_methods5ITEMS10trampoline17h9516b0430c8c43a0E', symObjAddr: 0x6110, symBinAddr: 0x34B70, symSize: 0x44 }
  - { offset: 0xB19A1, size: 0x8, addend: 0x0, symName: '__ZN6_oryon8features204_$LT$impl$u20$pyo3..impl_..pyclass..PyMethods$LT$_oryon..features..RogersSatchellVolatility$GT$$u20$for$u20$pyo3..impl_..pyclass..PyClassImplCollector$LT$_oryon..features..RogersSatchellVolatility$GT$$GT$10py_methods5ITEMS10trampoline17h9b7e6ba2132e0052E', symObjAddr: 0x6154, symBinAddr: 0x34BB4, symSize: 0x44 }
  - { offset: 0xB19DE, size: 0x8, addend: 0x0, symName: '__ZN6_oryon8features204_$LT$impl$u20$pyo3..impl_..pyclass..PyMethods$LT$_oryon..features..RogersSatchellVolatility$GT$$u20$for$u20$pyo3..impl_..pyclass..PyClassImplCollector$LT$_oryon..features..RogersSatchellVolatility$GT$$GT$10py_methods5ITEMS10trampoline17haee011975ac5d665E', symObjAddr: 0x6198, symBinAddr: 0x34BF8, symSize: 0x4C }
  - { offset: 0xB1A44, size: 0x8, addend: 0x0, symName: '__ZN75_$LT$_oryon..features..Adf$u20$as$u20$pyo3..impl_..pyclass..PyClassImpl$GT$10items_iter15INTRINSIC_ITEMS17h18083bbc87108b63E', symObjAddr: 0x19DB0, symBinAddr: 0x125318, symSize: 0x0 }
  - { offset: 0xB1A64, size: 0x8, addend: 0x0, symName: '__ZN75_$LT$_oryon..features..Adf$u20$as$u20$pyo3..impl_..pyclass..PyClassImpl$GT$16lazy_type_object11TYPE_OBJECT17h953b3917aef39cfeE', symObjAddr: 0x19F50, symBinAddr: 0x19C758, symSize: 0x0 }
  - { offset: 0xB1A84, size: 0x8, addend: 0x0, symName: '__ZN75_$LT$_oryon..features..Adf$u20$as$u20$pyo3..impl_..pyclass..PyClassImpl$GT$3doc3DOC17ha8efd34d5629ec2aE', symObjAddr: 0x19FA8, symBinAddr: 0x19C7B0, symSize: 0x0 }
  - { offset: 0xB1A92, size: 0x8, addend: 0x0, symName: '__ZN75_$LT$_oryon..features..Adf$u20$as$u20$pyo3..impl_..pyclass..PyClassImpl$GT$10items_iter17h4087e020f97bad48E', symObjAddr: 0x14770, symBinAddr: 0x431D0, symSize: 0x38 }
  - { offset: 0xB1ACD, size: 0x8, addend: 0x0, symName: '__ZN75_$LT$_oryon..features..Adf$u20$as$u20$pyo3..impl_..pyclass..PyClassImpl$GT$16lazy_type_object17he3fe5f4152a6d82dE', symObjAddr: 0x147A8, symBinAddr: 0x43208, symSize: 0xC }
  - { offset: 0xB1AEA, size: 0x8, addend: 0x0, symName: '__ZN75_$LT$_oryon..features..Adf$u20$as$u20$pyo3..impl_..pyclass..PyClassImpl$GT$3doc17hfb00c46f6aa6e4acE', symObjAddr: 0x147B4, symBinAddr: 0x43214, symSize: 0x3C }
  - { offset: 0xB1CDD, size: 0x8, addend: 0x0, symName: '__ZN75_$LT$_oryon..features..Ema$u20$as$u20$pyo3..impl_..pyclass..PyClassImpl$GT$10items_iter15INTRINSIC_ITEMS17h96fa814f9fdb9878E', symObjAddr: 0x19DD0, symBinAddr: 0x125338, symSize: 0x0 }
  - { offset: 0xB1CFD, size: 0x8, addend: 0x0, symName: '__ZN75_$LT$_oryon..features..Ema$u20$as$u20$pyo3..impl_..pyclass..PyClassImpl$GT$16lazy_type_object11TYPE_OBJECT17h24a943e19d0d0fc9E', symObjAddr: 0x19FC8, symBinAddr: 0x19C7D0, symSize: 0x0 }
  - { offset: 0xB1D1D, size: 0x8, addend: 0x0, symName: '__ZN75_$LT$_oryon..features..Ema$u20$as$u20$pyo3..impl_..pyclass..PyClassImpl$GT$3doc3DOC17h4a94f4614c14c072E', symObjAddr: 0x1A020, symBinAddr: 0x19C828, symSize: 0x0 }
  - { offset: 0xB1D2B, size: 0x8, addend: 0x0, symName: '__ZN75_$LT$_oryon..features..Ema$u20$as$u20$pyo3..impl_..pyclass..PyClassImpl$GT$10items_iter17h95639141f8362e6eE', symObjAddr: 0x147F0, symBinAddr: 0x43250, symSize: 0x38 }
  - { offset: 0xB1D66, size: 0x8, addend: 0x0, symName: '__ZN75_$LT$_oryon..features..Ema$u20$as$u20$pyo3..impl_..pyclass..PyClassImpl$GT$16lazy_type_object17ha93790968a146e8fE', symObjAddr: 0x14828, symBinAddr: 0x43288, symSize: 0xC }
  - { offset: 0xB1D83, size: 0x8, addend: 0x0, symName: '__ZN75_$LT$_oryon..features..Ema$u20$as$u20$pyo3..impl_..pyclass..PyClassImpl$GT$3doc17h27d02d768e3f02a4E', symObjAddr: 0x14834, symBinAddr: 0x43294, symSize: 0x3C }
  - { offset: 0xB1F59, size: 0x8, addend: 0x0, symName: '__ZN75_$LT$_oryon..features..Mma$u20$as$u20$pyo3..impl_..pyclass..PyClassImpl$GT$10items_iter15INTRINSIC_ITEMS17h13525e04079a81acE', symObjAddr: 0x19DF0, symBinAddr: 0x125358, symSize: 0x0 }
  - { offset: 0xB1F79, size: 0x8, addend: 0x0, symName: '__ZN75_$LT$_oryon..features..Mma$u20$as$u20$pyo3..impl_..pyclass..PyClassImpl$GT$16lazy_type_object11TYPE_OBJECT17h22ce6e2b9ceef5b4E', symObjAddr: 0x1A040, symBinAddr: 0x19C848, symSize: 0x0 }
  - { offset: 0xB1F99, size: 0x8, addend: 0x0, symName: '__ZN75_$LT$_oryon..features..Mma$u20$as$u20$pyo3..impl_..pyclass..PyClassImpl$GT$3doc3DOC17h167559ab0ce1b0f0E', symObjAddr: 0x1A098, symBinAddr: 0x19C8A0, symSize: 0x0 }
  - { offset: 0xB1FA7, size: 0x8, addend: 0x0, symName: '__ZN75_$LT$_oryon..features..Mma$u20$as$u20$pyo3..impl_..pyclass..PyClassImpl$GT$10items_iter17ha8e83f5a8c6da5baE', symObjAddr: 0x14870, symBinAddr: 0x432D0, symSize: 0x38 }
  - { offset: 0xB1FE2, size: 0x8, addend: 0x0, symName: '__ZN75_$LT$_oryon..features..Mma$u20$as$u20$pyo3..impl_..pyclass..PyClassImpl$GT$16lazy_type_object17h8bc9815ca41b966bE', symObjAddr: 0x148A8, symBinAddr: 0x43308, symSize: 0xC }
  - { offset: 0xB1FFF, size: 0x8, addend: 0x0, symName: '__ZN75_$LT$_oryon..features..Mma$u20$as$u20$pyo3..impl_..pyclass..PyClassImpl$GT$3doc17hc980c1205fff06d2E', symObjAddr: 0x148B4, symBinAddr: 0x43314, symSize: 0x3C }
  - { offset: 0xB21D0, size: 0x8, addend: 0x0, symName: '__ZN75_$LT$_oryon..features..Sma$u20$as$u20$pyo3..impl_..pyclass..PyClassImpl$GT$10items_iter15INTRINSIC_ITEMS17h8430fe537ac6f27aE', symObjAddr: 0x19E10, symBinAddr: 0x125378, symSize: 0x0 }
  - { offset: 0xB21F0, size: 0x8, addend: 0x0, symName: '__ZN75_$LT$_oryon..features..Sma$u20$as$u20$pyo3..impl_..pyclass..PyClassImpl$GT$16lazy_type_object11TYPE_OBJECT17h56c7e9cdbd13442bE', symObjAddr: 0x1A0B8, symBinAddr: 0x19C8C0, symSize: 0x0 }
  - { offset: 0xB2210, size: 0x8, addend: 0x0, symName: '__ZN75_$LT$_oryon..features..Sma$u20$as$u20$pyo3..impl_..pyclass..PyClassImpl$GT$3doc3DOC17hbb0327f916250e65E', symObjAddr: 0x1A110, symBinAddr: 0x19C918, symSize: 0x0 }
  - { offset: 0xB221E, size: 0x8, addend: 0x0, symName: '__ZN75_$LT$_oryon..features..Sma$u20$as$u20$pyo3..impl_..pyclass..PyClassImpl$GT$10items_iter17h94d0ecf19aa76917E', symObjAddr: 0x148F0, symBinAddr: 0x43350, symSize: 0x38 }
  - { offset: 0xB2259, size: 0x8, addend: 0x0, symName: '__ZN75_$LT$_oryon..features..Sma$u20$as$u20$pyo3..impl_..pyclass..PyClassImpl$GT$16lazy_type_object17h25035c8525281122E', symObjAddr: 0x14928, symBinAddr: 0x43388, symSize: 0xC }
  - { offset: 0xB2276, size: 0x8, addend: 0x0, symName: '__ZN75_$LT$_oryon..features..Sma$u20$as$u20$pyo3..impl_..pyclass..PyClassImpl$GT$3doc17hba9bf40843414bbaE', symObjAddr: 0x14934, symBinAddr: 0x43394, symSize: 0x3C }
  - { offset: 0xB2448, size: 0x8, addend: 0x0, symName: '__ZN76_$LT$_oryon..features..Kama$u20$as$u20$pyo3..impl_..pyclass..PyClassImpl$GT$10items_iter15INTRINSIC_ITEMS17h785da2b5e6b66aa2E', symObjAddr: 0x19E30, symBinAddr: 0x125398, symSize: 0x0 }
  - { offset: 0xB2469, size: 0x8, addend: 0x0, symName: '__ZN76_$LT$_oryon..features..Kama$u20$as$u20$pyo3..impl_..pyclass..PyClassImpl$GT$16lazy_type_object11TYPE_OBJECT17h0b67ca42ff91b3daE', symObjAddr: 0x1A130, symBinAddr: 0x19C938, symSize: 0x0 }
  - { offset: 0xB248A, size: 0x8, addend: 0x0, symName: '__ZN76_$LT$_oryon..features..Kama$u20$as$u20$pyo3..impl_..pyclass..PyClassImpl$GT$3doc3DOC17h93358b0956c4d939E', symObjAddr: 0x1A188, symBinAddr: 0x19C990, symSize: 0x0 }
  - { offset: 0xB2498, size: 0x8, addend: 0x0, symName: '__ZN76_$LT$_oryon..features..Kama$u20$as$u20$pyo3..impl_..pyclass..PyClassImpl$GT$10items_iter17h526426de10f32a6fE', symObjAddr: 0x14970, symBinAddr: 0x433D0, symSize: 0x38 }
  - { offset: 0xB24D5, size: 0x8, addend: 0x0, symName: '__ZN76_$LT$_oryon..features..Kama$u20$as$u20$pyo3..impl_..pyclass..PyClassImpl$GT$16lazy_type_object17h39d9503c22d94b59E', symObjAddr: 0x149A8, symBinAddr: 0x43408, symSize: 0xC }
  - { offset: 0xB24F3, size: 0x8, addend: 0x0, symName: '__ZN76_$LT$_oryon..features..Kama$u20$as$u20$pyo3..impl_..pyclass..PyClassImpl$GT$3doc17h185c478f6078d23dE', symObjAddr: 0x149B4, symBinAddr: 0x43414, symSize: 0x3C }
  - { offset: 0xB26E0, size: 0x8, addend: 0x0, symName: '__ZN80_$LT$_oryon..features..Kurtosis$u20$as$u20$pyo3..impl_..pyclass..PyClassImpl$GT$10items_iter15INTRINSIC_ITEMS17hfc6e3c0f74e14f19E', symObjAddr: 0x19E50, symBinAddr: 0x1253B8, symSize: 0x0 }
  - { offset: 0xB2701, size: 0x8, addend: 0x0, symName: '__ZN80_$LT$_oryon..features..Kurtosis$u20$as$u20$pyo3..impl_..pyclass..PyClassImpl$GT$16lazy_type_object11TYPE_OBJECT17h3e28c23f4fc7d5d8E', symObjAddr: 0x1A1A8, symBinAddr: 0x19C9B0, symSize: 0x0 }
  - { offset: 0xB2722, size: 0x8, addend: 0x0, symName: '__ZN80_$LT$_oryon..features..Kurtosis$u20$as$u20$pyo3..impl_..pyclass..PyClassImpl$GT$3doc3DOC17h6c8dfc6d18fc3bfaE', symObjAddr: 0x1A200, symBinAddr: 0x19CA08, symSize: 0x0 }
  - { offset: 0xB2730, size: 0x8, addend: 0x0, symName: '__ZN80_$LT$_oryon..features..Kurtosis$u20$as$u20$pyo3..impl_..pyclass..PyClassImpl$GT$10items_iter17h876238c2e86a680aE', symObjAddr: 0x14A80, symBinAddr: 0x434E0, symSize: 0x38 }
  - { offset: 0xB276D, size: 0x8, addend: 0x0, symName: '__ZN80_$LT$_oryon..features..Kurtosis$u20$as$u20$pyo3..impl_..pyclass..PyClassImpl$GT$16lazy_type_object17hd747955ef862c669E', symObjAddr: 0x14AB8, symBinAddr: 0x43518, symSize: 0xC }
  - { offset: 0xB278B, size: 0x8, addend: 0x0, symName: '__ZN80_$LT$_oryon..features..Kurtosis$u20$as$u20$pyo3..impl_..pyclass..PyClassImpl$GT$3doc17he7d8d0d078b62de6E', symObjAddr: 0x14AC4, symBinAddr: 0x43524, symSize: 0x3C }
  - { offset: 0xB296E, size: 0x8, addend: 0x0, symName: '__ZN80_$LT$_oryon..features..Skewness$u20$as$u20$pyo3..impl_..pyclass..PyClassImpl$GT$10items_iter15INTRINSIC_ITEMS17hff0bb612e75e7e82E', symObjAddr: 0x19E70, symBinAddr: 0x1253D8, symSize: 0x0 }
  - { offset: 0xB298F, size: 0x8, addend: 0x0, symName: '__ZN80_$LT$_oryon..features..Skewness$u20$as$u20$pyo3..impl_..pyclass..PyClassImpl$GT$16lazy_type_object11TYPE_OBJECT17h025ab023c5c0cef2E', symObjAddr: 0x1A220, symBinAddr: 0x19CA28, symSize: 0x0 }
  - { offset: 0xB29B0, size: 0x8, addend: 0x0, symName: '__ZN80_$LT$_oryon..features..Skewness$u20$as$u20$pyo3..impl_..pyclass..PyClassImpl$GT$3doc3DOC17hf814b498cb2757f2E', symObjAddr: 0x1A278, symBinAddr: 0x19CA80, symSize: 0x0 }
  - { offset: 0xB29BE, size: 0x8, addend: 0x0, symName: '__ZN80_$LT$_oryon..features..Skewness$u20$as$u20$pyo3..impl_..pyclass..PyClassImpl$GT$10items_iter17h9d3d9adcf1071143E', symObjAddr: 0x14B24, symBinAddr: 0x43584, symSize: 0x38 }
  - { offset: 0xB29FB, size: 0x8, addend: 0x0, symName: '__ZN80_$LT$_oryon..features..Skewness$u20$as$u20$pyo3..impl_..pyclass..PyClassImpl$GT$16lazy_type_object17hb1429019d50cf58dE', symObjAddr: 0x14B5C, symBinAddr: 0x435BC, symSize: 0xC }
  - { offset: 0xB2A19, size: 0x8, addend: 0x0, symName: '__ZN80_$LT$_oryon..features..Skewness$u20$as$u20$pyo3..impl_..pyclass..PyClassImpl$GT$3doc17h98ee60a2d091ad2eE', symObjAddr: 0x14B68, symBinAddr: 0x435C8, symSize: 0x3C }
  - { offset: 0xB2BFC, size: 0x8, addend: 0x0, symName: '__ZN81_$LT$_oryon..features..LogReturn$u20$as$u20$pyo3..impl_..pyclass..PyClassImpl$GT$10items_iter15INTRINSIC_ITEMS17h646d76da18d56f93E', symObjAddr: 0x19E90, symBinAddr: 0x1253F8, symSize: 0x0 }
  - { offset: 0xB2C1D, size: 0x8, addend: 0x0, symName: '__ZN81_$LT$_oryon..features..LogReturn$u20$as$u20$pyo3..impl_..pyclass..PyClassImpl$GT$16lazy_type_object11TYPE_OBJECT17h34e43c248f3b58f7E', symObjAddr: 0x1A298, symBinAddr: 0x19CAA0, symSize: 0x0 }
  - { offset: 0xB2C3E, size: 0x8, addend: 0x0, symName: '__ZN81_$LT$_oryon..features..LogReturn$u20$as$u20$pyo3..impl_..pyclass..PyClassImpl$GT$3doc3DOC17h45fa956cff5dd40aE', symObjAddr: 0x1A2F0, symBinAddr: 0x19CAF8, symSize: 0x0 }
  - { offset: 0xB2C4C, size: 0x8, addend: 0x0, symName: '__ZN81_$LT$_oryon..features..LogReturn$u20$as$u20$pyo3..impl_..pyclass..PyClassImpl$GT$10items_iter17h68a39904865702f4E', symObjAddr: 0x14BA4, symBinAddr: 0x43604, symSize: 0x38 }
  - { offset: 0xB2C89, size: 0x8, addend: 0x0, symName: '__ZN81_$LT$_oryon..features..LogReturn$u20$as$u20$pyo3..impl_..pyclass..PyClassImpl$GT$16lazy_type_object17h8d22d8b8050ec1c0E', symObjAddr: 0x14BDC, symBinAddr: 0x4363C, symSize: 0xC }
  - { offset: 0xB2CA7, size: 0x8, addend: 0x0, symName: '__ZN81_$LT$_oryon..features..LogReturn$u20$as$u20$pyo3..impl_..pyclass..PyClassImpl$GT$3doc17hd3f8758fc8be63acE', symObjAddr: 0x14BE8, symBinAddr: 0x43648, symSize: 0x3C }
  - { offset: 0xB2E8A, size: 0x8, addend: 0x0, symName: '__ZN83_$LT$_oryon..features..LinearSlope$u20$as$u20$pyo3..impl_..pyclass..PyClassImpl$GT$10items_iter15INTRINSIC_ITEMS17h8003c45fa91d8d21E', symObjAddr: 0x19EB0, symBinAddr: 0x125418, symSize: 0x0 }
  - { offset: 0xB2EAB, size: 0x8, addend: 0x0, symName: '__ZN83_$LT$_oryon..features..LinearSlope$u20$as$u20$pyo3..impl_..pyclass..PyClassImpl$GT$16lazy_type_object11TYPE_OBJECT17h5bdf750a6d2c3e01E', symObjAddr: 0x1A310, symBinAddr: 0x19CB18, symSize: 0x0 }
  - { offset: 0xB2ECC, size: 0x8, addend: 0x0, symName: '__ZN83_$LT$_oryon..features..LinearSlope$u20$as$u20$pyo3..impl_..pyclass..PyClassImpl$GT$3doc3DOC17hedda05f204363f07E', symObjAddr: 0x1A368, symBinAddr: 0x19CB70, symSize: 0x0 }
  - { offset: 0xB2EDA, size: 0x8, addend: 0x0, symName: '__ZN83_$LT$_oryon..features..LinearSlope$u20$as$u20$pyo3..impl_..pyclass..PyClassImpl$GT$10items_iter17h36da7ae777e360c1E', symObjAddr: 0x14C24, symBinAddr: 0x43684, symSize: 0x38 }
  - { offset: 0xB2F17, size: 0x8, addend: 0x0, symName: '__ZN83_$LT$_oryon..features..LinearSlope$u20$as$u20$pyo3..impl_..pyclass..PyClassImpl$GT$16lazy_type_object17he5915e987744ee3fE', symObjAddr: 0x14C5C, symBinAddr: 0x436BC, symSize: 0xC }
  - { offset: 0xB2F35, size: 0x8, addend: 0x0, symName: '__ZN83_$LT$_oryon..features..LinearSlope$u20$as$u20$pyo3..impl_..pyclass..PyClassImpl$GT$3doc17h2c7284c3010ce18dE', symObjAddr: 0x14C68, symBinAddr: 0x436C8, symSize: 0x3C }
  - { offset: 0xB3118, size: 0x8, addend: 0x0, symName: '__ZN84_$LT$_oryon..features..SimpleReturn$u20$as$u20$pyo3..impl_..pyclass..PyClassImpl$GT$10items_iter15INTRINSIC_ITEMS17h2aae6f327c69f0d6E', symObjAddr: 0x19ED0, symBinAddr: 0x125438, symSize: 0x0 }
  - { offset: 0xB3139, size: 0x8, addend: 0x0, symName: '__ZN84_$LT$_oryon..features..SimpleReturn$u20$as$u20$pyo3..impl_..pyclass..PyClassImpl$GT$16lazy_type_object11TYPE_OBJECT17h609f0b7ce5027961E', symObjAddr: 0x1A388, symBinAddr: 0x19CB90, symSize: 0x0 }
  - { offset: 0xB315A, size: 0x8, addend: 0x0, symName: '__ZN84_$LT$_oryon..features..SimpleReturn$u20$as$u20$pyo3..impl_..pyclass..PyClassImpl$GT$3doc3DOC17hd1fe63bd3b4a4c57E', symObjAddr: 0x1A3E0, symBinAddr: 0x19CBE8, symSize: 0x0 }
  - { offset: 0xB3168, size: 0x8, addend: 0x0, symName: '__ZN84_$LT$_oryon..features..SimpleReturn$u20$as$u20$pyo3..impl_..pyclass..PyClassImpl$GT$10items_iter17h9e299534354e61b9E', symObjAddr: 0x14CA4, symBinAddr: 0x43704, symSize: 0x38 }
  - { offset: 0xB31A5, size: 0x8, addend: 0x0, symName: '__ZN84_$LT$_oryon..features..SimpleReturn$u20$as$u20$pyo3..impl_..pyclass..PyClassImpl$GT$16lazy_type_object17h12e820776911dbf6E', symObjAddr: 0x14CDC, symBinAddr: 0x4373C, symSize: 0xC }
  - { offset: 0xB31C3, size: 0x8, addend: 0x0, symName: '__ZN84_$LT$_oryon..features..SimpleReturn$u20$as$u20$pyo3..impl_..pyclass..PyClassImpl$GT$3doc17hb832e13f8bd2162aE', symObjAddr: 0x14CE8, symBinAddr: 0x43748, symSize: 0x3C }
  - { offset: 0xB33A6, size: 0x8, addend: 0x0, symName: '__ZN91_$LT$_oryon..features..ParkinsonVolatility$u20$as$u20$pyo3..impl_..pyclass..PyClassImpl$GT$10items_iter15INTRINSIC_ITEMS17h8355c040d698d470E', symObjAddr: 0x19EF0, symBinAddr: 0x125458, symSize: 0x0 }
  - { offset: 0xB33C7, size: 0x8, addend: 0x0, symName: '__ZN91_$LT$_oryon..features..ParkinsonVolatility$u20$as$u20$pyo3..impl_..pyclass..PyClassImpl$GT$16lazy_type_object11TYPE_OBJECT17hf7afef1e2aaf341dE', symObjAddr: 0x1A400, symBinAddr: 0x19CC08, symSize: 0x0 }
  - { offset: 0xB33E8, size: 0x8, addend: 0x0, symName: '__ZN91_$LT$_oryon..features..ParkinsonVolatility$u20$as$u20$pyo3..impl_..pyclass..PyClassImpl$GT$3doc3DOC17h838c9fcc85b5539aE', symObjAddr: 0x1A458, symBinAddr: 0x19CC60, symSize: 0x0 }
  - { offset: 0xB33F6, size: 0x8, addend: 0x0, symName: '__ZN91_$LT$_oryon..features..ParkinsonVolatility$u20$as$u20$pyo3..impl_..pyclass..PyClassImpl$GT$10items_iter17hc224e9e25ae09718E', symObjAddr: 0x14D48, symBinAddr: 0x437A8, symSize: 0x38 }
  - { offset: 0xB3433, size: 0x8, addend: 0x0, symName: '__ZN91_$LT$_oryon..features..ParkinsonVolatility$u20$as$u20$pyo3..impl_..pyclass..PyClassImpl$GT$16lazy_type_object17hefd30c7dbba4856fE', symObjAddr: 0x14D80, symBinAddr: 0x437E0, symSize: 0xC }
  - { offset: 0xB3451, size: 0x8, addend: 0x0, symName: '__ZN91_$LT$_oryon..features..ParkinsonVolatility$u20$as$u20$pyo3..impl_..pyclass..PyClassImpl$GT$3doc17h43993b4dcbd2794cE', symObjAddr: 0x14D8C, symBinAddr: 0x437EC, symSize: 0x3C }
  - { offset: 0xB3634, size: 0x8, addend: 0x0, symName: '__ZN96_$LT$_oryon..features..RogersSatchellVolatility$u20$as$u20$pyo3..impl_..pyclass..PyClassImpl$GT$10items_iter15INTRINSIC_ITEMS17hf37c080dbd43f40eE', symObjAddr: 0x19F10, symBinAddr: 0x125478, symSize: 0x0 }
  - { offset: 0xB3655, size: 0x8, addend: 0x0, symName: '__ZN96_$LT$_oryon..features..RogersSatchellVolatility$u20$as$u20$pyo3..impl_..pyclass..PyClassImpl$GT$16lazy_type_object11TYPE_OBJECT17h02c56d636c0b48ccE', symObjAddr: 0x1A478, symBinAddr: 0x19CC80, symSize: 0x0 }
  - { offset: 0xB3676, size: 0x8, addend: 0x0, symName: '__ZN96_$LT$_oryon..features..RogersSatchellVolatility$u20$as$u20$pyo3..impl_..pyclass..PyClassImpl$GT$3doc3DOC17h59d822c1c171cc79E', symObjAddr: 0x1A4D0, symBinAddr: 0x19CCD8, symSize: 0x0 }
  - { offset: 0xB3684, size: 0x8, addend: 0x0, symName: '__ZN96_$LT$_oryon..features..RogersSatchellVolatility$u20$as$u20$pyo3..impl_..pyclass..PyClassImpl$GT$10items_iter17hde3e18119c81d4feE', symObjAddr: 0x14DEC, symBinAddr: 0x4384C, symSize: 0x38 }
  - { offset: 0xB36C1, size: 0x8, addend: 0x0, symName: '__ZN96_$LT$_oryon..features..RogersSatchellVolatility$u20$as$u20$pyo3..impl_..pyclass..PyClassImpl$GT$16lazy_type_object17hefe53681841ef96eE', symObjAddr: 0x14E24, symBinAddr: 0x43884, symSize: 0xC }
  - { offset: 0xB36DF, size: 0x8, addend: 0x0, symName: '__ZN96_$LT$_oryon..features..RogersSatchellVolatility$u20$as$u20$pyo3..impl_..pyclass..PyClassImpl$GT$3doc17h2a46806c62ba4f43E', symObjAddr: 0x14E30, symBinAddr: 0x43890, symSize: 0x3C }
  - { offset: 0xB38AA, size: 0x8, addend: 0x0, symName: __ZN6_oryon8features16parse_regression17h78f7f600909f973eE, symObjAddr: 0x3ABC, symBinAddr: 0x3251C, symSize: 0x120 }
  - { offset: 0xB3950, size: 0x8, addend: 0x0, symName: '__ZN71_$LT$_oryon..features..Adf$u20$as$u20$pyo3..type_object..PyTypeInfo$GT$15type_object_raw17h73da84595ca46d2aE', symObjAddr: 0x146BC, symBinAddr: 0x4311C, symSize: 0x24 }
  - { offset: 0xB398D, size: 0x8, addend: 0x0, symName: '__ZN71_$LT$_oryon..features..Ema$u20$as$u20$pyo3..type_object..PyTypeInfo$GT$15type_object_raw17hba9b2a7f8b781b24E', symObjAddr: 0x146E0, symBinAddr: 0x43140, symSize: 0x24 }
  - { offset: 0xB39CA, size: 0x8, addend: 0x0, symName: '__ZN71_$LT$_oryon..features..Mma$u20$as$u20$pyo3..type_object..PyTypeInfo$GT$15type_object_raw17h0887d82bf283e077E', symObjAddr: 0x14704, symBinAddr: 0x43164, symSize: 0x24 }
  - { offset: 0xB3A07, size: 0x8, addend: 0x0, symName: '__ZN71_$LT$_oryon..features..Sma$u20$as$u20$pyo3..type_object..PyTypeInfo$GT$15type_object_raw17h054d1a1f3b4346b2E', symObjAddr: 0x14728, symBinAddr: 0x43188, symSize: 0x24 }
  - { offset: 0xB3A44, size: 0x8, addend: 0x0, symName: '__ZN72_$LT$_oryon..features..Kama$u20$as$u20$pyo3..type_object..PyTypeInfo$GT$15type_object_raw17h9f47ad3723356521E', symObjAddr: 0x1474C, symBinAddr: 0x431AC, symSize: 0x24 }
  - { offset: 0xB3A84, size: 0x8, addend: 0x0, symName: '__ZN76_$LT$_oryon..features..Kurtosis$u20$as$u20$pyo3..type_object..PyTypeInfo$GT$15type_object_raw17h2169d6d15f8532b8E', symObjAddr: 0x149F0, symBinAddr: 0x43450, symSize: 0x24 }
  - { offset: 0xB3AC4, size: 0x8, addend: 0x0, symName: '__ZN76_$LT$_oryon..features..Skewness$u20$as$u20$pyo3..type_object..PyTypeInfo$GT$15type_object_raw17h74c9290f5bd77696E', symObjAddr: 0x14A14, symBinAddr: 0x43474, symSize: 0x24 }
  - { offset: 0xB3B04, size: 0x8, addend: 0x0, symName: '__ZN77_$LT$_oryon..features..LogReturn$u20$as$u20$pyo3..type_object..PyTypeInfo$GT$15type_object_raw17h2b6f93a09af29e32E', symObjAddr: 0x14A38, symBinAddr: 0x43498, symSize: 0x24 }
  - { offset: 0xB3B44, size: 0x8, addend: 0x0, symName: '__ZN79_$LT$_oryon..features..LinearSlope$u20$as$u20$pyo3..type_object..PyTypeInfo$GT$15type_object_raw17h1133a709b454d27cE', symObjAddr: 0x14A5C, symBinAddr: 0x434BC, symSize: 0x24 }
  - { offset: 0xB3B84, size: 0x8, addend: 0x0, symName: '__ZN80_$LT$_oryon..features..SimpleReturn$u20$as$u20$pyo3..type_object..PyTypeInfo$GT$15type_object_raw17hfd601bd705e498ebE', symObjAddr: 0x14B00, symBinAddr: 0x43560, symSize: 0x24 }
  - { offset: 0xB3BC4, size: 0x8, addend: 0x0, symName: '__ZN87_$LT$_oryon..features..ParkinsonVolatility$u20$as$u20$pyo3..type_object..PyTypeInfo$GT$15type_object_raw17h447baa2e44c8d984E', symObjAddr: 0x14D24, symBinAddr: 0x43784, symSize: 0x24 }
  - { offset: 0xB3C04, size: 0x8, addend: 0x0, symName: '__ZN92_$LT$_oryon..features..RogersSatchellVolatility$u20$as$u20$pyo3..type_object..PyTypeInfo$GT$15type_object_raw17h7519e9b445f891a5E', symObjAddr: 0x14DC8, symBinAddr: 0x43828, symSize: 0x24 }
  - { offset: 0xB9575, size: 0x8, addend: 0x0, symName: __ZN6_oryon8features11LinearSlope11input_names17h1af0b753d495dfecE, symObjAddr: 0x0, symBinAddr: 0x2EA60, symSize: 0x24 }
  - { offset: 0xB9598, size: 0x8, addend: 0x0, symName: __ZN6_oryon8features11LinearSlope12output_names17h2a956560239331a2E, symObjAddr: 0x24, symBinAddr: 0x2EA84, symSize: 0x24 }
  - { offset: 0xB95BB, size: 0x8, addend: 0x0, symName: __ZN6_oryon8features11LinearSlope14warm_up_period17h1d00504b08a15128E, symObjAddr: 0x48, symBinAddr: 0x2EAA8, symSize: 0x24 }
  - { offset: 0xB95DE, size: 0x8, addend: 0x0, symName: __ZN6_oryon8features11LinearSlope18__pymethod_reset__17h32fbc74bada78bddE, symObjAddr: 0x6C, symBinAddr: 0x2EACC, symSize: 0x1E8 }
  - { offset: 0xB96D8, size: 0x8, addend: 0x0, symName: __ZN6_oryon8features11LinearSlope19__pymethod_update__17h245dbfa2cc83c694E, symObjAddr: 0x254, symBinAddr: 0x2ECB4, symSize: 0x418 }
  - { offset: 0xB987E, size: 0x8, addend: 0x0, symName: __ZN6_oryon8features11LinearSlope20__pymethod___new____17h6412dece7e439fa8E, symObjAddr: 0x66C, symBinAddr: 0x2F0CC, symSize: 0x594 }
  - { offset: 0xB9A89, size: 0x8, addend: 0x0, symName: __ZN6_oryon8features11LinearSlope21__pymethod___repr____17hf00d98702178cf39E, symObjAddr: 0xC00, symBinAddr: 0x2F660, symSize: 0x178 }
  - { offset: 0xB9B4B, size: 0x8, addend: 0x0, symName: __ZN6_oryon8features11LinearSlope24__pymethod_input_names__17hdb1e384d3a7c4e13E, symObjAddr: 0xD78, symBinAddr: 0x2F7D8, symSize: 0x290 }
  - { offset: 0xB9C3D, size: 0x8, addend: 0x0, symName: __ZN6_oryon8features11LinearSlope25__pymethod_output_names__17h24a3b1ae7b00c778E, symObjAddr: 0x1008, symBinAddr: 0x2FA68, symSize: 0x290 }
  - { offset: 0xB9D2F, size: 0x8, addend: 0x0, symName: __ZN6_oryon8features11LinearSlope27__pymethod_warm_up_period__17h748bf6b93f540af3E, symObjAddr: 0x1298, symBinAddr: 0x2FCF8, symSize: 0x214 }
  - { offset: 0xB9E29, size: 0x8, addend: 0x0, symName: __ZN6_oryon8features11LinearSlope3new17h007b17226a44088cE, symObjAddr: 0x14AC, symBinAddr: 0x2FF0C, symSize: 0x130 }
  - { offset: 0xB9EB8, size: 0x8, addend: 0x0, symName: __ZN6_oryon8features11LinearSlope5reset17h33730df9f4ca5806E, symObjAddr: 0x15DC, symBinAddr: 0x3003C, symSize: 0x24 }
  - { offset: 0xB9EDB, size: 0x8, addend: 0x0, symName: __ZN6_oryon8features11LinearSlope6update17h5e2a9fff2ba69b07E, symObjAddr: 0x1600, symBinAddr: 0x30060, symSize: 0x128 }
  - { offset: 0xB9F0E, size: 0x8, addend: 0x0, symName: __ZN6_oryon8features11LinearSlope8__repr__17hbb84d69333598caaE, symObjAddr: 0x1728, symBinAddr: 0x30188, symSize: 0x188 }
  - { offset: 0xB9F92, size: 0x8, addend: 0x0, symName: __ZN6_oryon8features12SimpleReturn11input_names17h58f08fd00cc4fc3bE, symObjAddr: 0x18B0, symBinAddr: 0x30310, symSize: 0x24 }
  - { offset: 0xB9FB5, size: 0x8, addend: 0x0, symName: __ZN6_oryon8features12SimpleReturn12output_names17h4236ed1ad766445dE, symObjAddr: 0x18D4, symBinAddr: 0x30334, symSize: 0x24 }
  - { offset: 0xB9FD8, size: 0x8, addend: 0x0, symName: __ZN6_oryon8features12SimpleReturn14warm_up_period17h9d9978a220edb92aE, symObjAddr: 0x18F8, symBinAddr: 0x30358, symSize: 0x24 }
  - { offset: 0xB9FFB, size: 0x8, addend: 0x0, symName: __ZN6_oryon8features12SimpleReturn18__pymethod_reset__17hcb35b45d3b0720d8E, symObjAddr: 0x191C, symBinAddr: 0x3037C, symSize: 0x1E8 }
  - { offset: 0xBA0F5, size: 0x8, addend: 0x0, symName: __ZN6_oryon8features12SimpleReturn19__pymethod_update__17hc282e711a2dc1e59E, symObjAddr: 0x1B04, symBinAddr: 0x30564, symSize: 0x418 }
  - { offset: 0xBA29B, size: 0x8, addend: 0x0, symName: __ZN6_oryon8features12SimpleReturn20__pymethod___new____17h475e8e2b23d04f1fE, symObjAddr: 0x1F1C, symBinAddr: 0x3097C, symSize: 0x594 }
  - { offset: 0xBA4A6, size: 0x8, addend: 0x0, symName: __ZN6_oryon8features12SimpleReturn21__pymethod___repr____17h2fcc452126bd6253E, symObjAddr: 0x24B0, symBinAddr: 0x30F10, symSize: 0x178 }
  - { offset: 0xBA568, size: 0x8, addend: 0x0, symName: __ZN6_oryon8features12SimpleReturn24__pymethod_input_names__17hab6762c2cdc4bb36E, symObjAddr: 0x2628, symBinAddr: 0x31088, symSize: 0x290 }
  - { offset: 0xBA65A, size: 0x8, addend: 0x0, symName: __ZN6_oryon8features12SimpleReturn25__pymethod_output_names__17h62f6d8376ab6fc7cE, symObjAddr: 0x28B8, symBinAddr: 0x31318, symSize: 0x290 }
  - { offset: 0xBA74C, size: 0x8, addend: 0x0, symName: __ZN6_oryon8features12SimpleReturn27__pymethod_warm_up_period__17h88654c8c78dc9251E, symObjAddr: 0x2B48, symBinAddr: 0x315A8, symSize: 0x214 }
  - { offset: 0xBA846, size: 0x8, addend: 0x0, symName: __ZN6_oryon8features12SimpleReturn3new17h4924d01c23724b37E, symObjAddr: 0x2D5C, symBinAddr: 0x317BC, symSize: 0x130 }
  - { offset: 0xBA8D5, size: 0x8, addend: 0x0, symName: __ZN6_oryon8features12SimpleReturn5reset17h58388532a70df84aE, symObjAddr: 0x2E8C, symBinAddr: 0x318EC, symSize: 0x24 }
  - { offset: 0xBA8F8, size: 0x8, addend: 0x0, symName: __ZN6_oryon8features12SimpleReturn6update17h54f8c1fb02baa9d1E, symObjAddr: 0x2EB0, symBinAddr: 0x31910, symSize: 0x128 }
  - { offset: 0xBA92B, size: 0x8, addend: 0x0, symName: __ZN6_oryon8features12SimpleReturn8__repr__17hc36fe93fdc516f9eE, symObjAddr: 0x2FD8, symBinAddr: 0x31A38, symSize: 0x15C }
  - { offset: 0xBA9AF, size: 0x8, addend: 0x0, symName: __ZN6_oryon8features19ParkinsonVolatility11input_names17h979024d6c830b23eE, symObjAddr: 0x474C, symBinAddr: 0x331AC, symSize: 0x24 }
  - { offset: 0xBA9D2, size: 0x8, addend: 0x0, symName: __ZN6_oryon8features19ParkinsonVolatility12output_names17hc2d6c5a254718c40E, symObjAddr: 0x4770, symBinAddr: 0x331D0, symSize: 0x24 }
  - { offset: 0xBA9F5, size: 0x8, addend: 0x0, symName: __ZN6_oryon8features19ParkinsonVolatility14warm_up_period17h3a1de97d96ffcb56E, symObjAddr: 0x4794, symBinAddr: 0x331F4, symSize: 0x24 }
  - { offset: 0xBAA18, size: 0x8, addend: 0x0, symName: __ZN6_oryon8features19ParkinsonVolatility18__pymethod_reset__17hb69e6203cd72ec8aE, symObjAddr: 0x47B8, symBinAddr: 0x33218, symSize: 0x1E8 }
  - { offset: 0xBAB12, size: 0x8, addend: 0x0, symName: __ZN6_oryon8features19ParkinsonVolatility19__pymethod_update__17h4bfa1485ff6848e1E, symObjAddr: 0x49A0, symBinAddr: 0x33400, symSize: 0x418 }
  - { offset: 0xBACB8, size: 0x8, addend: 0x0, symName: __ZN6_oryon8features19ParkinsonVolatility20__pymethod___new____17he15221e8993e05ccE, symObjAddr: 0x4DB8, symBinAddr: 0x33818, symSize: 0x594 }
  - { offset: 0xBAEC3, size: 0x8, addend: 0x0, symName: __ZN6_oryon8features19ParkinsonVolatility21__pymethod___repr____17h4cd02978b56572feE, symObjAddr: 0x534C, symBinAddr: 0x33DAC, symSize: 0x178 }
  - { offset: 0xBAF85, size: 0x8, addend: 0x0, symName: __ZN6_oryon8features19ParkinsonVolatility24__pymethod_input_names__17h30f042bee039fbe2E, symObjAddr: 0x54C4, symBinAddr: 0x33F24, symSize: 0x290 }
  - { offset: 0xBB077, size: 0x8, addend: 0x0, symName: __ZN6_oryon8features19ParkinsonVolatility25__pymethod_output_names__17he1a92573ff02ae28E, symObjAddr: 0x5754, symBinAddr: 0x341B4, symSize: 0x290 }
  - { offset: 0xBB169, size: 0x8, addend: 0x0, symName: __ZN6_oryon8features19ParkinsonVolatility27__pymethod_warm_up_period__17hcbb060c4241cfeb6E, symObjAddr: 0x59E4, symBinAddr: 0x34444, symSize: 0x214 }
  - { offset: 0xBB263, size: 0x8, addend: 0x0, symName: __ZN6_oryon8features19ParkinsonVolatility3new17h74c0dd067394805dE, symObjAddr: 0x5BF8, symBinAddr: 0x34658, symSize: 0x130 }
  - { offset: 0xBB2F2, size: 0x8, addend: 0x0, symName: __ZN6_oryon8features19ParkinsonVolatility5reset17hdc7a5ea6741d559dE, symObjAddr: 0x5D28, symBinAddr: 0x34788, symSize: 0x24 }
  - { offset: 0xBB315, size: 0x8, addend: 0x0, symName: __ZN6_oryon8features19ParkinsonVolatility6update17ha503eb98ec2f4760E, symObjAddr: 0x5D4C, symBinAddr: 0x347AC, symSize: 0x128 }
  - { offset: 0xBB348, size: 0x8, addend: 0x0, symName: __ZN6_oryon8features19ParkinsonVolatility8__repr__17hcf382a9976cdbf6aE, symObjAddr: 0x5E74, symBinAddr: 0x348D4, symSize: 0x188 }
  - { offset: 0xBB3CC, size: 0x8, addend: 0x0, symName: __ZN6_oryon8features24RogersSatchellVolatility11input_names17hba823da2c96f831aE, symObjAddr: 0x61E4, symBinAddr: 0x34C44, symSize: 0x24 }
  - { offset: 0xBB3EF, size: 0x8, addend: 0x0, symName: __ZN6_oryon8features24RogersSatchellVolatility12output_names17h273df5958e6f50c4E, symObjAddr: 0x6208, symBinAddr: 0x34C68, symSize: 0x24 }
  - { offset: 0xBB412, size: 0x8, addend: 0x0, symName: __ZN6_oryon8features24RogersSatchellVolatility14warm_up_period17hf2c4237918244c78E, symObjAddr: 0x622C, symBinAddr: 0x34C8C, symSize: 0x24 }
  - { offset: 0xBB435, size: 0x8, addend: 0x0, symName: __ZN6_oryon8features24RogersSatchellVolatility18__pymethod_reset__17h317ab3c6d4d7d2bbE, symObjAddr: 0x6250, symBinAddr: 0x34CB0, symSize: 0x1E8 }
  - { offset: 0xBB52F, size: 0x8, addend: 0x0, symName: __ZN6_oryon8features24RogersSatchellVolatility19__pymethod_update__17h49062f6bd19e51b2E, symObjAddr: 0x6438, symBinAddr: 0x34E98, symSize: 0x418 }
  - { offset: 0xBB6D5, size: 0x8, addend: 0x0, symName: __ZN6_oryon8features24RogersSatchellVolatility20__pymethod___new____17hdaa9a98818fef95cE, symObjAddr: 0x6850, symBinAddr: 0x352B0, symSize: 0x594 }
  - { offset: 0xBB8E0, size: 0x8, addend: 0x0, symName: __ZN6_oryon8features24RogersSatchellVolatility21__pymethod___repr____17h3338976ac49e11afE, symObjAddr: 0x6DE4, symBinAddr: 0x35844, symSize: 0x178 }
  - { offset: 0xBB9A2, size: 0x8, addend: 0x0, symName: __ZN6_oryon8features24RogersSatchellVolatility24__pymethod_input_names__17h391f41cf2997dd6eE, symObjAddr: 0x6F5C, symBinAddr: 0x359BC, symSize: 0x290 }
  - { offset: 0xBBA94, size: 0x8, addend: 0x0, symName: __ZN6_oryon8features24RogersSatchellVolatility25__pymethod_output_names__17ha1e646c37095fcabE, symObjAddr: 0x71EC, symBinAddr: 0x35C4C, symSize: 0x290 }
  - { offset: 0xBBB86, size: 0x8, addend: 0x0, symName: __ZN6_oryon8features24RogersSatchellVolatility27__pymethod_warm_up_period__17h865714956d93d445E, symObjAddr: 0x747C, symBinAddr: 0x35EDC, symSize: 0x214 }
  - { offset: 0xBBC80, size: 0x8, addend: 0x0, symName: __ZN6_oryon8features24RogersSatchellVolatility3new17hccd193085b36ecb2E, symObjAddr: 0x7690, symBinAddr: 0x360F0, symSize: 0x130 }
  - { offset: 0xBBD0F, size: 0x8, addend: 0x0, symName: __ZN6_oryon8features24RogersSatchellVolatility5reset17h0afe5e232574b615E, symObjAddr: 0x77C0, symBinAddr: 0x36220, symSize: 0x24 }
  - { offset: 0xBBD32, size: 0x8, addend: 0x0, symName: __ZN6_oryon8features24RogersSatchellVolatility6update17hc2855a3750bc12f9E, symObjAddr: 0x77E4, symBinAddr: 0x36244, symSize: 0x128 }
  - { offset: 0xBBD65, size: 0x8, addend: 0x0, symName: __ZN6_oryon8features24RogersSatchellVolatility8__repr__17h20d47693702d751fE, symObjAddr: 0x790C, symBinAddr: 0x3636C, symSize: 0x188 }
  - { offset: 0xBBDE9, size: 0x8, addend: 0x0, symName: __ZN6_oryon8features3Adf11input_names17h808662bde5920709E, symObjAddr: 0x7A94, symBinAddr: 0x364F4, symSize: 0x24 }
  - { offset: 0xBBE0B, size: 0x8, addend: 0x0, symName: __ZN6_oryon8features3Adf12output_names17h45f4b27597bbee9cE, symObjAddr: 0x7AB8, symBinAddr: 0x36518, symSize: 0x24 }
  - { offset: 0xBBE2D, size: 0x8, addend: 0x0, symName: __ZN6_oryon8features3Adf14warm_up_period17hf8a38bfd9bc1b972E, symObjAddr: 0x7ADC, symBinAddr: 0x3653C, symSize: 0x24 }
  - { offset: 0xBBE4F, size: 0x8, addend: 0x0, symName: __ZN6_oryon8features3Adf18__pymethod_reset__17hc0f8c32e2ed97e7fE, symObjAddr: 0x7B00, symBinAddr: 0x36560, symSize: 0x1E8 }
  - { offset: 0xBBF3F, size: 0x8, addend: 0x0, symName: __ZN6_oryon8features3Adf19__pymethod_update__17h383fba554dc116ffE, symObjAddr: 0x7CE8, symBinAddr: 0x36748, symSize: 0x418 }
  - { offset: 0xBC0D2, size: 0x8, addend: 0x0, symName: __ZN6_oryon8features3Adf20__pymethod___new____17hcff717abd0d3de3dE, symObjAddr: 0x8100, symBinAddr: 0x36B60, symSize: 0x80C }
  - { offset: 0xBC34E, size: 0x8, addend: 0x0, symName: __ZN6_oryon8features3Adf21__pymethod___repr____17h640ce593ffedeb73E, symObjAddr: 0x890C, symBinAddr: 0x3736C, symSize: 0x178 }
  - { offset: 0xBC408, size: 0x8, addend: 0x0, symName: __ZN6_oryon8features3Adf24__pymethod_input_names__17h309f4947e9da5e30E, symObjAddr: 0x8A84, symBinAddr: 0x374E4, symSize: 0x290 }
  - { offset: 0xBC4F0, size: 0x8, addend: 0x0, symName: __ZN6_oryon8features3Adf25__pymethod_output_names__17h5fb8c8bf01daf5e2E, symObjAddr: 0x8D14, symBinAddr: 0x37774, symSize: 0x290 }
  - { offset: 0xBC5D8, size: 0x8, addend: 0x0, symName: __ZN6_oryon8features3Adf27__pymethod_warm_up_period__17h03bb42f16bb9d859E, symObjAddr: 0x8FA4, symBinAddr: 0x37A04, symSize: 0x214 }
  - { offset: 0xBC6E6, size: 0x8, addend: 0x0, symName: __ZN6_oryon8features3Adf3new17hae97c48f51226c26E, symObjAddr: 0x91B8, symBinAddr: 0x37C18, symSize: 0x368 }
  - { offset: 0xBC7D8, size: 0x8, addend: 0x0, symName: __ZN6_oryon8features3Adf5reset17h77d7aa04a8d0cd8bE, symObjAddr: 0x9520, symBinAddr: 0x37F80, symSize: 0x24 }
  - { offset: 0xBC7FA, size: 0x8, addend: 0x0, symName: __ZN6_oryon8features3Adf6update17h57bb469df76d44a0E, symObjAddr: 0x9544, symBinAddr: 0x37FA4, symSize: 0x128 }
  - { offset: 0xBC82B, size: 0x8, addend: 0x0, symName: __ZN6_oryon8features3Adf8__repr__17h0850abb8aee5710bE, symObjAddr: 0x966C, symBinAddr: 0x380CC, symSize: 0x174 }
  - { offset: 0xBC8AB, size: 0x8, addend: 0x0, symName: __ZN6_oryon8features3Ema11input_names17h24e66f1723fcdf63E, symObjAddr: 0x97E0, symBinAddr: 0x38240, symSize: 0x24 }
  - { offset: 0xBC8CE, size: 0x8, addend: 0x0, symName: __ZN6_oryon8features3Ema12output_names17he658f2e873a206eaE, symObjAddr: 0x9804, symBinAddr: 0x38264, symSize: 0x24 }
  - { offset: 0xBC8F1, size: 0x8, addend: 0x0, symName: __ZN6_oryon8features3Ema14warm_up_period17h5995ed0e1913144aE, symObjAddr: 0x9828, symBinAddr: 0x38288, symSize: 0x24 }
  - { offset: 0xBC914, size: 0x8, addend: 0x0, symName: __ZN6_oryon8features3Ema18__pymethod_reset__17hbab5b78ac51c0ef9E, symObjAddr: 0x984C, symBinAddr: 0x382AC, symSize: 0x1E8 }
  - { offset: 0xBCA04, size: 0x8, addend: 0x0, symName: __ZN6_oryon8features3Ema19__pymethod_update__17ha1726b567a76ae74E, symObjAddr: 0x9A34, symBinAddr: 0x38494, symSize: 0x418 }
  - { offset: 0xBCB97, size: 0x8, addend: 0x0, symName: __ZN6_oryon8features3Ema20__pymethod___new____17hb997da04b74795ccE, symObjAddr: 0x9E4C, symBinAddr: 0x388AC, symSize: 0x5A0 }
  - { offset: 0xBCD8D, size: 0x8, addend: 0x0, symName: __ZN6_oryon8features3Ema21__pymethod___repr____17hbb5100e636d5722bE, symObjAddr: 0xA3EC, symBinAddr: 0x38E4C, symSize: 0x178 }
  - { offset: 0xBCE47, size: 0x8, addend: 0x0, symName: __ZN6_oryon8features3Ema24__pymethod_input_names__17h01fc866ed28bad75E, symObjAddr: 0xA564, symBinAddr: 0x38FC4, symSize: 0x290 }
  - { offset: 0xBCF32, size: 0x8, addend: 0x0, symName: __ZN6_oryon8features3Ema25__pymethod_output_names__17hf0cb509953d4b990E, symObjAddr: 0xA7F4, symBinAddr: 0x39254, symSize: 0x290 }
  - { offset: 0xBD01D, size: 0x8, addend: 0x0, symName: __ZN6_oryon8features3Ema27__pymethod_warm_up_period__17ha3b15e9d6a0be91fE, symObjAddr: 0xAA84, symBinAddr: 0x394E4, symSize: 0x214 }
  - { offset: 0xBD110, size: 0x8, addend: 0x0, symName: __ZN6_oryon8features3Ema3new17hf4bb6a31c3385e27E, symObjAddr: 0xAC98, symBinAddr: 0x396F8, symSize: 0x128 }
  - { offset: 0xBD19A, size: 0x8, addend: 0x0, symName: __ZN6_oryon8features3Ema5reset17h3b0f5da756c7330fE, symObjAddr: 0xADC0, symBinAddr: 0x39820, symSize: 0x24 }
  - { offset: 0xBD1BD, size: 0x8, addend: 0x0, symName: __ZN6_oryon8features3Ema6update17hf2565d755d9d112aE, symObjAddr: 0xADE4, symBinAddr: 0x39844, symSize: 0x128 }
  - { offset: 0xBD1EE, size: 0x8, addend: 0x0, symName: __ZN6_oryon8features3Ema8__repr__17h4c00e1e68b22cf94E, symObjAddr: 0xAF0C, symBinAddr: 0x3996C, symSize: 0x188 }
  - { offset: 0xBD272, size: 0x8, addend: 0x0, symName: __ZN6_oryon8features3Mma11input_names17h3d157b72c0b6d54fE, symObjAddr: 0xB094, symBinAddr: 0x39AF4, symSize: 0x24 }
  - { offset: 0xBD294, size: 0x8, addend: 0x0, symName: __ZN6_oryon8features3Mma12output_names17hd6810792e4cbc991E, symObjAddr: 0xB0B8, symBinAddr: 0x39B18, symSize: 0x24 }
  - { offset: 0xBD2B6, size: 0x8, addend: 0x0, symName: __ZN6_oryon8features3Mma14warm_up_period17hbc4ba4ef68287459E, symObjAddr: 0xB0DC, symBinAddr: 0x39B3C, symSize: 0x24 }
  - { offset: 0xBD2D8, size: 0x8, addend: 0x0, symName: __ZN6_oryon8features3Mma18__pymethod_reset__17h1af8c7b6227aceeaE, symObjAddr: 0xB100, symBinAddr: 0x39B60, symSize: 0x1E8 }
  - { offset: 0xBD3C8, size: 0x8, addend: 0x0, symName: __ZN6_oryon8features3Mma19__pymethod_update__17hc24cff5fdc1d7e1dE, symObjAddr: 0xB2E8, symBinAddr: 0x39D48, symSize: 0x418 }
  - { offset: 0xBD55B, size: 0x8, addend: 0x0, symName: __ZN6_oryon8features3Mma20__pymethod___new____17h1a1948b3ba42c4e9E, symObjAddr: 0xB700, symBinAddr: 0x3A160, symSize: 0x594 }
  - { offset: 0xBD751, size: 0x8, addend: 0x0, symName: __ZN6_oryon8features3Mma21__pymethod___repr____17hdd429e10fb9937b7E, symObjAddr: 0xBC94, symBinAddr: 0x3A6F4, symSize: 0x178 }
  - { offset: 0xBD80B, size: 0x8, addend: 0x0, symName: __ZN6_oryon8features3Mma24__pymethod_input_names__17h72fe0e3d43497f19E, symObjAddr: 0xBE0C, symBinAddr: 0x3A86C, symSize: 0x290 }
  - { offset: 0xBD8F3, size: 0x8, addend: 0x0, symName: __ZN6_oryon8features3Mma25__pymethod_output_names__17h030757f8a1189a1fE, symObjAddr: 0xC09C, symBinAddr: 0x3AAFC, symSize: 0x290 }
  - { offset: 0xBD9DB, size: 0x8, addend: 0x0, symName: __ZN6_oryon8features3Mma27__pymethod_warm_up_period__17h6d8dbc3983eec80dE, symObjAddr: 0xC32C, symBinAddr: 0x3AD8C, symSize: 0x214 }
  - { offset: 0xBDACB, size: 0x8, addend: 0x0, symName: __ZN6_oryon8features3Mma3new17hc75489989f6391a5E, symObjAddr: 0xC540, symBinAddr: 0x3AFA0, symSize: 0x130 }
  - { offset: 0xBDB55, size: 0x8, addend: 0x0, symName: __ZN6_oryon8features3Mma5reset17h1f35878999216426E, symObjAddr: 0xC670, symBinAddr: 0x3B0D0, symSize: 0x24 }
  - { offset: 0xBDB77, size: 0x8, addend: 0x0, symName: __ZN6_oryon8features3Mma6update17h4296df17df3af893E, symObjAddr: 0xC694, symBinAddr: 0x3B0F4, symSize: 0x128 }
  - { offset: 0xBDBA8, size: 0x8, addend: 0x0, symName: __ZN6_oryon8features3Mma8__repr__17hd33a3747dcc19101E, symObjAddr: 0xC7BC, symBinAddr: 0x3B21C, symSize: 0x188 }
  - { offset: 0xBDC28, size: 0x8, addend: 0x0, symName: __ZN6_oryon8features3Sma11input_names17hb4a287163373ee0aE, symObjAddr: 0xC944, symBinAddr: 0x3B3A4, symSize: 0x24 }
  - { offset: 0xBDC4A, size: 0x8, addend: 0x0, symName: __ZN6_oryon8features3Sma12output_names17he3da189c6b1c7d70E, symObjAddr: 0xC968, symBinAddr: 0x3B3C8, symSize: 0x24 }
  - { offset: 0xBDC6C, size: 0x8, addend: 0x0, symName: __ZN6_oryon8features3Sma14warm_up_period17hd9b2fd011a1377e2E, symObjAddr: 0xC98C, symBinAddr: 0x3B3EC, symSize: 0x24 }
  - { offset: 0xBDC8E, size: 0x8, addend: 0x0, symName: __ZN6_oryon8features3Sma18__pymethod_reset__17h371b9b96013f7341E, symObjAddr: 0xC9B0, symBinAddr: 0x3B410, symSize: 0x1E8 }
  - { offset: 0xBDD7E, size: 0x8, addend: 0x0, symName: __ZN6_oryon8features3Sma19__pymethod_update__17h4fc4dc0c0010f593E, symObjAddr: 0xCB98, symBinAddr: 0x3B5F8, symSize: 0x418 }
  - { offset: 0xBDF11, size: 0x8, addend: 0x0, symName: __ZN6_oryon8features3Sma20__pymethod___new____17h1c73c68871119831E, symObjAddr: 0xCFB0, symBinAddr: 0x3BA10, symSize: 0x594 }
  - { offset: 0xBE107, size: 0x8, addend: 0x0, symName: __ZN6_oryon8features3Sma21__pymethod___repr____17h92b99aecf822945cE, symObjAddr: 0xD544, symBinAddr: 0x3BFA4, symSize: 0x178 }
  - { offset: 0xBE1C1, size: 0x8, addend: 0x0, symName: __ZN6_oryon8features3Sma24__pymethod_input_names__17hb09066297260561bE, symObjAddr: 0xD6BC, symBinAddr: 0x3C11C, symSize: 0x290 }
  - { offset: 0xBE2A9, size: 0x8, addend: 0x0, symName: __ZN6_oryon8features3Sma25__pymethod_output_names__17hea1a38aba176225cE, symObjAddr: 0xD94C, symBinAddr: 0x3C3AC, symSize: 0x290 }
  - { offset: 0xBE391, size: 0x8, addend: 0x0, symName: __ZN6_oryon8features3Sma27__pymethod_warm_up_period__17hb63a633716298d63E, symObjAddr: 0xDBDC, symBinAddr: 0x3C63C, symSize: 0x214 }
  - { offset: 0xBE481, size: 0x8, addend: 0x0, symName: __ZN6_oryon8features3Sma3new17ha62636f4c2206726E, symObjAddr: 0xDDF0, symBinAddr: 0x3C850, symSize: 0x130 }
  - { offset: 0xBE50B, size: 0x8, addend: 0x0, symName: __ZN6_oryon8features3Sma5reset17ha3d2b89712ca380fE, symObjAddr: 0xDF20, symBinAddr: 0x3C980, symSize: 0x24 }
  - { offset: 0xBE52D, size: 0x8, addend: 0x0, symName: __ZN6_oryon8features3Sma6update17hde1005a3415b8818E, symObjAddr: 0xDF44, symBinAddr: 0x3C9A4, symSize: 0x128 }
  - { offset: 0xBE55E, size: 0x8, addend: 0x0, symName: __ZN6_oryon8features3Sma8__repr__17h4020442b6c04e925E, symObjAddr: 0xE06C, symBinAddr: 0x3CACC, symSize: 0x188 }
  - { offset: 0xBE5DE, size: 0x8, addend: 0x0, symName: __ZN6_oryon8features4Kama11input_names17h3d621fc62ded282bE, symObjAddr: 0xE1F4, symBinAddr: 0x3CC54, symSize: 0x24 }
  - { offset: 0xBE601, size: 0x8, addend: 0x0, symName: __ZN6_oryon8features4Kama12output_names17h3e523a3da6ec67baE, symObjAddr: 0xE218, symBinAddr: 0x3CC78, symSize: 0x24 }
  - { offset: 0xBE624, size: 0x8, addend: 0x0, symName: __ZN6_oryon8features4Kama14warm_up_period17h6c833c1376c10b1bE, symObjAddr: 0xE23C, symBinAddr: 0x3CC9C, symSize: 0x24 }
  - { offset: 0xBE647, size: 0x8, addend: 0x0, symName: __ZN6_oryon8features4Kama18__pymethod_reset__17hdf0b7dda99be80f9E, symObjAddr: 0xE260, symBinAddr: 0x3CCC0, symSize: 0x1E8 }
  - { offset: 0xBE741, size: 0x8, addend: 0x0, symName: __ZN6_oryon8features4Kama19__pymethod_update__17h7985120fd9fd4580E, symObjAddr: 0xE448, symBinAddr: 0x3CEA8, symSize: 0x418 }
  - { offset: 0xBE8E7, size: 0x8, addend: 0x0, symName: __ZN6_oryon8features4Kama20__pymethod___new____17h361050f365d12395E, symObjAddr: 0xE860, symBinAddr: 0x3D2C0, symSize: 0x7F0 }
  - { offset: 0xBEB7D, size: 0x8, addend: 0x0, symName: __ZN6_oryon8features4Kama21__pymethod___repr____17h18f073536e00912eE, symObjAddr: 0xF050, symBinAddr: 0x3DAB0, symSize: 0x178 }
  - { offset: 0xBEC3F, size: 0x8, addend: 0x0, symName: __ZN6_oryon8features4Kama24__pymethod_input_names__17hd6d8ff165adeda28E, symObjAddr: 0xF1C8, symBinAddr: 0x3DC28, symSize: 0x290 }
  - { offset: 0xBED31, size: 0x8, addend: 0x0, symName: __ZN6_oryon8features4Kama25__pymethod_output_names__17h98b2fbd7fe855d4eE, symObjAddr: 0xF458, symBinAddr: 0x3DEB8, symSize: 0x290 }
  - { offset: 0xBEE23, size: 0x8, addend: 0x0, symName: __ZN6_oryon8features4Kama27__pymethod_warm_up_period__17h3521486428a9f1eeE, symObjAddr: 0xF6E8, symBinAddr: 0x3E148, symSize: 0x214 }
  - { offset: 0xBEF1D, size: 0x8, addend: 0x0, symName: __ZN6_oryon8features4Kama3new17h98f898a3cc002733E, symObjAddr: 0xF8FC, symBinAddr: 0x3E35C, symSize: 0x134 }
  - { offset: 0xBEFCC, size: 0x8, addend: 0x0, symName: __ZN6_oryon8features4Kama5reset17h39c5d6f2b8a54fa0E, symObjAddr: 0xFA30, symBinAddr: 0x3E490, symSize: 0x24 }
  - { offset: 0xBEFEF, size: 0x8, addend: 0x0, symName: __ZN6_oryon8features4Kama6update17h12c8e2e81bc5b4f0E, symObjAddr: 0xFA54, symBinAddr: 0x3E4B4, symSize: 0x128 }
  - { offset: 0xBF022, size: 0x8, addend: 0x0, symName: __ZN6_oryon8features4Kama8__repr__17h2530c24f740031a1E, symObjAddr: 0xFB7C, symBinAddr: 0x3E5DC, symSize: 0x15C }
  - { offset: 0xBF0A6, size: 0x8, addend: 0x0, symName: __ZN6_oryon8features8Kurtosis11input_names17h954ca41168f7d8f4E, symObjAddr: 0xFCD8, symBinAddr: 0x3E738, symSize: 0x24 }
  - { offset: 0xBF0C9, size: 0x8, addend: 0x0, symName: __ZN6_oryon8features8Kurtosis12output_names17h52fef879a9540dc9E, symObjAddr: 0xFCFC, symBinAddr: 0x3E75C, symSize: 0x24 }
  - { offset: 0xBF0EC, size: 0x8, addend: 0x0, symName: __ZN6_oryon8features8Kurtosis14warm_up_period17h49ff8e977ac3d61cE, symObjAddr: 0xFD20, symBinAddr: 0x3E780, symSize: 0x24 }
  - { offset: 0xBF10F, size: 0x8, addend: 0x0, symName: __ZN6_oryon8features8Kurtosis18__pymethod_reset__17ha6df430fa459b9fbE, symObjAddr: 0xFD44, symBinAddr: 0x3E7A4, symSize: 0x1E8 }
  - { offset: 0xBF209, size: 0x8, addend: 0x0, symName: __ZN6_oryon8features8Kurtosis19__pymethod_update__17h8c54a271dd8797adE, symObjAddr: 0xFF2C, symBinAddr: 0x3E98C, symSize: 0x418 }
  - { offset: 0xBF3AF, size: 0x8, addend: 0x0, symName: __ZN6_oryon8features8Kurtosis20__pymethod___new____17h7a24292d1cc38be7E, symObjAddr: 0x10344, symBinAddr: 0x3EDA4, symSize: 0x594 }
  - { offset: 0xBF5BA, size: 0x8, addend: 0x0, symName: __ZN6_oryon8features8Kurtosis21__pymethod___repr____17he06717184ebf1782E, symObjAddr: 0x108D8, symBinAddr: 0x3F338, symSize: 0x178 }
  - { offset: 0xBF67C, size: 0x8, addend: 0x0, symName: __ZN6_oryon8features8Kurtosis24__pymethod_input_names__17hd5b7d5cd70eab6d8E, symObjAddr: 0x10A50, symBinAddr: 0x3F4B0, symSize: 0x290 }
  - { offset: 0xBF76E, size: 0x8, addend: 0x0, symName: __ZN6_oryon8features8Kurtosis25__pymethod_output_names__17hb0d1a01755ddca38E, symObjAddr: 0x10CE0, symBinAddr: 0x3F740, symSize: 0x290 }
  - { offset: 0xBF860, size: 0x8, addend: 0x0, symName: __ZN6_oryon8features8Kurtosis27__pymethod_warm_up_period__17hae7deb18fcea54d4E, symObjAddr: 0x10F70, symBinAddr: 0x3F9D0, symSize: 0x214 }
  - { offset: 0xBF95A, size: 0x8, addend: 0x0, symName: __ZN6_oryon8features8Kurtosis3new17h0bd89c432d684fc4E, symObjAddr: 0x11184, symBinAddr: 0x3FBE4, symSize: 0x130 }
  - { offset: 0xBF9E9, size: 0x8, addend: 0x0, symName: __ZN6_oryon8features8Kurtosis5reset17hae939d628510ceffE, symObjAddr: 0x112B4, symBinAddr: 0x3FD14, symSize: 0x24 }
  - { offset: 0xBFA0C, size: 0x8, addend: 0x0, symName: __ZN6_oryon8features8Kurtosis6update17hd2cb20d31feb8460E, symObjAddr: 0x112D8, symBinAddr: 0x3FD38, symSize: 0x128 }
  - { offset: 0xBFA3F, size: 0x8, addend: 0x0, symName: __ZN6_oryon8features8Kurtosis8__repr__17h9e380488a85476efE, symObjAddr: 0x11400, symBinAddr: 0x3FE60, symSize: 0x188 }
  - { offset: 0xBFAC3, size: 0x8, addend: 0x0, symName: __ZN6_oryon8features8Skewness11input_names17hbb973816fb0e78f1E, symObjAddr: 0x11588, symBinAddr: 0x3FFE8, symSize: 0x24 }
  - { offset: 0xBFAE6, size: 0x8, addend: 0x0, symName: __ZN6_oryon8features8Skewness12output_names17h7ff9f7289470bfa1E, symObjAddr: 0x115AC, symBinAddr: 0x4000C, symSize: 0x24 }
  - { offset: 0xBFB09, size: 0x8, addend: 0x0, symName: __ZN6_oryon8features8Skewness14warm_up_period17h0fec0ce646f22a18E, symObjAddr: 0x115D0, symBinAddr: 0x40030, symSize: 0x24 }
  - { offset: 0xBFB2C, size: 0x8, addend: 0x0, symName: __ZN6_oryon8features8Skewness18__pymethod_reset__17h853bd374e1418a4aE, symObjAddr: 0x115F4, symBinAddr: 0x40054, symSize: 0x1E8 }
  - { offset: 0xBFC26, size: 0x8, addend: 0x0, symName: __ZN6_oryon8features8Skewness19__pymethod_update__17hc842a2148a404efbE, symObjAddr: 0x117DC, symBinAddr: 0x4023C, symSize: 0x418 }
  - { offset: 0xBFDCC, size: 0x8, addend: 0x0, symName: __ZN6_oryon8features8Skewness20__pymethod___new____17h9ea64eefa447b629E, symObjAddr: 0x11BF4, symBinAddr: 0x40654, symSize: 0x594 }
  - { offset: 0xBFFD7, size: 0x8, addend: 0x0, symName: __ZN6_oryon8features8Skewness21__pymethod___repr____17hcbf8c113df7db5c5E, symObjAddr: 0x12188, symBinAddr: 0x40BE8, symSize: 0x178 }
  - { offset: 0xC0099, size: 0x8, addend: 0x0, symName: __ZN6_oryon8features8Skewness24__pymethod_input_names__17h567e0913e0d78c2aE, symObjAddr: 0x12300, symBinAddr: 0x40D60, symSize: 0x290 }
  - { offset: 0xC018B, size: 0x8, addend: 0x0, symName: __ZN6_oryon8features8Skewness25__pymethod_output_names__17hdee1fd48bcfadc4eE, symObjAddr: 0x12590, symBinAddr: 0x40FF0, symSize: 0x290 }
  - { offset: 0xC027D, size: 0x8, addend: 0x0, symName: __ZN6_oryon8features8Skewness27__pymethod_warm_up_period__17hda96d8e6964132f8E, symObjAddr: 0x12820, symBinAddr: 0x41280, symSize: 0x214 }
  - { offset: 0xC0377, size: 0x8, addend: 0x0, symName: __ZN6_oryon8features8Skewness3new17h22e8b4e9fa5e1671E, symObjAddr: 0x12A34, symBinAddr: 0x41494, symSize: 0x130 }
  - { offset: 0xC0406, size: 0x8, addend: 0x0, symName: __ZN6_oryon8features8Skewness5reset17hca2c800055eb862fE, symObjAddr: 0x12B64, symBinAddr: 0x415C4, symSize: 0x24 }
  - { offset: 0xC0429, size: 0x8, addend: 0x0, symName: __ZN6_oryon8features8Skewness6update17h4f7538014ffd2989E, symObjAddr: 0x12B88, symBinAddr: 0x415E8, symSize: 0x128 }
  - { offset: 0xC045C, size: 0x8, addend: 0x0, symName: __ZN6_oryon8features8Skewness8__repr__17h20bd2301020ffd66E, symObjAddr: 0x12CB0, symBinAddr: 0x41710, symSize: 0x188 }
  - { offset: 0xC04E0, size: 0x8, addend: 0x0, symName: __ZN6_oryon8features9LogReturn11input_names17h70d6af63a249a985E, symObjAddr: 0x12E38, symBinAddr: 0x41898, symSize: 0x24 }
  - { offset: 0xC0503, size: 0x8, addend: 0x0, symName: __ZN6_oryon8features9LogReturn12output_names17h6fc6e7f2c370dc08E, symObjAddr: 0x12E5C, symBinAddr: 0x418BC, symSize: 0x24 }
  - { offset: 0xC0526, size: 0x8, addend: 0x0, symName: __ZN6_oryon8features9LogReturn14warm_up_period17h329c06da663de7f4E, symObjAddr: 0x12E80, symBinAddr: 0x418E0, symSize: 0x24 }
  - { offset: 0xC0549, size: 0x8, addend: 0x0, symName: __ZN6_oryon8features9LogReturn18__pymethod_reset__17h7f9fc748863b091bE, symObjAddr: 0x12EA4, symBinAddr: 0x41904, symSize: 0x1E8 }
  - { offset: 0xC0643, size: 0x8, addend: 0x0, symName: __ZN6_oryon8features9LogReturn19__pymethod_update__17h00648f44b76274a3E, symObjAddr: 0x1308C, symBinAddr: 0x41AEC, symSize: 0x418 }
  - { offset: 0xC07E9, size: 0x8, addend: 0x0, symName: __ZN6_oryon8features9LogReturn20__pymethod___new____17hf0dd7efabcac7876E, symObjAddr: 0x134A4, symBinAddr: 0x41F04, symSize: 0x594 }
  - { offset: 0xC09F4, size: 0x8, addend: 0x0, symName: __ZN6_oryon8features9LogReturn21__pymethod___repr____17h73bdaf64f6de139eE, symObjAddr: 0x13A38, symBinAddr: 0x42498, symSize: 0x178 }
  - { offset: 0xC0AB6, size: 0x8, addend: 0x0, symName: __ZN6_oryon8features9LogReturn24__pymethod_input_names__17h39334ecade9a1dc2E, symObjAddr: 0x13BB0, symBinAddr: 0x42610, symSize: 0x290 }
  - { offset: 0xC0BA8, size: 0x8, addend: 0x0, symName: __ZN6_oryon8features9LogReturn25__pymethod_output_names__17h60cd9b7253cb9a07E, symObjAddr: 0x13E40, symBinAddr: 0x428A0, symSize: 0x290 }
  - { offset: 0xC0C9A, size: 0x8, addend: 0x0, symName: __ZN6_oryon8features9LogReturn27__pymethod_warm_up_period__17h742342e85f7be2d3E, symObjAddr: 0x140D0, symBinAddr: 0x42B30, symSize: 0x214 }
  - { offset: 0xC0D94, size: 0x8, addend: 0x0, symName: __ZN6_oryon8features9LogReturn3new17hee1995de0f300339E, symObjAddr: 0x142E4, symBinAddr: 0x42D44, symSize: 0x130 }
  - { offset: 0xC0E23, size: 0x8, addend: 0x0, symName: __ZN6_oryon8features9LogReturn5reset17hf3e70de07a43ed9bE, symObjAddr: 0x14414, symBinAddr: 0x42E74, symSize: 0x24 }
  - { offset: 0xC0E46, size: 0x8, addend: 0x0, symName: __ZN6_oryon8features9LogReturn6update17h06628d1ca6f3daa5E, symObjAddr: 0x14438, symBinAddr: 0x42E98, symSize: 0x128 }
  - { offset: 0xC0E79, size: 0x8, addend: 0x0, symName: __ZN6_oryon8features9LogReturn8__repr__17h09b9925567683c7aE, symObjAddr: 0x14560, symBinAddr: 0x42FC0, symSize: 0x15C }
  - { offset: 0xC18A1, size: 0x8, addend: 0x0, symName: __ZN4pyo311type_object10PyTypeInfo10is_type_of17h19a83b732892f1caE, symObjAddr: 0x0, symBinAddr: 0x438CC, symSize: 0x50 }
  - { offset: 0xC20B6, size: 0x8, addend: 0x0, symName: '__ZN50_$LT$T$u20$as$u20$core..convert..Into$LT$U$GT$$GT$4into17h74185993b6ed8946E', symObjAddr: 0x198, symBinAddr: 0x43A64, symSize: 0x14 }
  - { offset: 0xC20F7, size: 0x8, addend: 0x0, symName: '__ZN50_$LT$T$u20$as$u20$core..convert..Into$LT$U$GT$$GT$4into17hde45f97eb1e92956E', symObjAddr: 0x1AC, symBinAddr: 0x43A78, symSize: 0x14 }
  - { offset: 0xC2FA4, size: 0x8, addend: 0x0, symName: __ZN4pyo311type_object10PyTypeInfo10is_type_of17h19a83b732892f1caE, symObjAddr: 0x0, symBinAddr: 0x438CC, symSize: 0x50 }
  - { offset: 0xC2FD9, size: 0x8, addend: 0x0, symName: __ZN4pyo311type_object10PyTypeInfo10is_type_of17hb4d5b9ec5e914c58E, symObjAddr: 0x50, symBinAddr: 0x4391C, symSize: 0x50 }
  - { offset: 0xC3014, size: 0x8, addend: 0x0, symName: '__ZN52_$LT$T$u20$as$u20$pyo3..type_object..PyTypeCheck$GT$10type_check17hb1716ba13afb4662E', symObjAddr: 0x1C0, symBinAddr: 0x43A8C, symSize: 0x24 }
  - { offset: 0xC3049, size: 0x8, addend: 0x0, symName: '__ZN52_$LT$T$u20$as$u20$pyo3..type_object..PyTypeCheck$GT$10type_check17hbe455bd9e35854abE', symObjAddr: 0x1E4, symBinAddr: 0x43AB0, symSize: 0x24 }
  - { offset: 0xC308A, size: 0x8, addend: 0x0, symName: '__ZN4pyo312pyclass_init130_$LT$impl$u20$pyo3..impl_..callback..IntoPyCallbackOutput$LT$pyo3..pyclass_init..PyClassInitializer$LT$T$GT$$GT$$u20$for$u20$U$GT$7convert17h02095a888d3d2271E', symObjAddr: 0xA0, symBinAddr: 0x4396C, symSize: 0x6C }
  - { offset: 0xC30E6, size: 0x8, addend: 0x0, symName: '__ZN4pyo312pyclass_init130_$LT$impl$u20$pyo3..impl_..callback..IntoPyCallbackOutput$LT$pyo3..pyclass_init..PyClassInitializer$LT$T$GT$$GT$$u20$for$u20$U$GT$7convert17h19dd07e1ad6c8d35E', symObjAddr: 0x10C, symBinAddr: 0x439D8, symSize: 0x6C }
  - { offset: 0xC328F, size: 0x8, addend: 0x0, symName: __ZN4pyo35impl_7pyclass11PyClassImpl11dict_offset17h1d06dcc0aeebeb79E, symObjAddr: 0x178, symBinAddr: 0x43A44, symSize: 0x8 }
  - { offset: 0xC32B6, size: 0x8, addend: 0x0, symName: __ZN4pyo35impl_7pyclass11PyClassImpl11dict_offset17h746335b46368f8edE, symObjAddr: 0x180, symBinAddr: 0x43A4C, symSize: 0x8 }
  - { offset: 0xC32DD, size: 0x8, addend: 0x0, symName: __ZN4pyo35impl_7pyclass11PyClassImpl15weaklist_offset17ha943c0fcfd86a61dE, symObjAddr: 0x188, symBinAddr: 0x43A54, symSize: 0x8 }
  - { offset: 0xC3304, size: 0x8, addend: 0x0, symName: __ZN4pyo35impl_7pyclass11PyClassImpl15weaklist_offset17hd3eb4336adc8a314E, symObjAddr: 0x190, symBinAddr: 0x43A5C, symSize: 0x8 }
  - { offset: 0xC35FF, size: 0x8, addend: 0x0, symName: '__ZN79_$LT$_oryon..operators..NegLog$u20$as$u20$pyo3..impl_..pyclass..PyClassImpl$GT$3doc28_$u7b$$u7b$closure$u7d$$u7d$17he076882d47a3e016E', symObjAddr: 0x208, symBinAddr: 0x43AD4, symSize: 0x54 }
  - { offset: 0xC3657, size: 0x8, addend: 0x0, symName: '__ZN81_$LT$_oryon..operators..Subtract$u20$as$u20$pyo3..impl_..pyclass..PyClassImpl$GT$3doc28_$u7b$$u7b$closure$u7d$$u7d$17h18ccfa7d787452dfE', symObjAddr: 0x25C, symBinAddr: 0x43B28, symSize: 0x54 }
  - { offset: 0xC4026, size: 0x8, addend: 0x0, symName: __ZN4core4hint16assert_unchecked18precondition_check17h5ab9e85a729cec67E, symObjAddr: 0x0, symBinAddr: 0x43B7C, symSize: 0x58 }
  - { offset: 0xC4042, size: 0x8, addend: 0x0, symName: __ZN4core4hint16assert_unchecked18precondition_check17h5ab9e85a729cec67E, symObjAddr: 0x0, symBinAddr: 0x43B7C, symSize: 0x58 }
  - { offset: 0xC408D, size: 0x8, addend: 0x0, symName: __ZN4core4hint21unreachable_unchecked18precondition_check17h124a96bb0fcf42c1E, symObjAddr: 0x58, symBinAddr: 0x43BD4, symSize: 0x3C }
  - { offset: 0xC4121, size: 0x8, addend: 0x0, symName: '__ZN82_$LT$usize$u20$as$u20$pyo3..impl_..callback..IntoPyCallbackOutput$LT$isize$GT$$GT$7convert17h1f923ceb7f66fb33E', symObjAddr: 0x0, symBinAddr: 0x43C10, symSize: 0x2C }
  - { offset: 0xC5513, size: 0x8, addend: 0x0, symName: '__ZN82_$LT$usize$u20$as$u20$pyo3..impl_..callback..IntoPyCallbackOutput$LT$isize$GT$$GT$7convert17h1f923ceb7f66fb33E', symObjAddr: 0x0, symBinAddr: 0x43C10, symSize: 0x2C }
  - { offset: 0xC5DCA, size: 0x8, addend: 0x0, symName: '__ZN4pyo35impl_4wrap30IntoPyObjectConverter$LT$T$GT$4wrap17h1155a32fe95075e0E', symObjAddr: 0x0, symBinAddr: 0x43C3C, symSize: 0x24 }
  - { offset: 0xC7E90, size: 0x8, addend: 0x0, symName: '__ZN4pyo35impl_4wrap62IntoPyObjectConverter$LT$core..result..Result$LT$T$C$E$GT$$GT$12map_into_ptr28_$u7b$$u7b$closure$u7d$$u7d$17h291eaea1029de77cE', symObjAddr: 0x218, symBinAddr: 0x43E54, symSize: 0x34 }
  - { offset: 0xC7EE8, size: 0x8, addend: 0x0, symName: '__ZN4pyo35impl_4wrap62IntoPyObjectConverter$LT$core..result..Result$LT$T$C$E$GT$$GT$12map_into_ptr28_$u7b$$u7b$closure$u7d$$u7d$17h3bb29af62ea4c87cE', symObjAddr: 0x24C, symBinAddr: 0x43E88, symSize: 0x28 }
  - { offset: 0xC7F3F, size: 0x8, addend: 0x0, symName: '__ZN4pyo35impl_4wrap62IntoPyObjectConverter$LT$core..result..Result$LT$T$C$E$GT$$GT$12map_into_ptr28_$u7b$$u7b$closure$u7d$$u7d$17haf4631b3da4eda20E', symObjAddr: 0x274, symBinAddr: 0x43EB0, symSize: 0x34 }
  - { offset: 0xC7F97, size: 0x8, addend: 0x0, symName: '__ZN4pyo35impl_4wrap62IntoPyObjectConverter$LT$core..result..Result$LT$T$C$E$GT$$GT$12map_into_ptr28_$u7b$$u7b$closure$u7d$$u7d$17hda96fa6668cdf403E', symObjAddr: 0x2A8, symBinAddr: 0x43EE4, symSize: 0x34 }
  - { offset: 0xC7FEF, size: 0x8, addend: 0x0, symName: '__ZN4pyo35impl_4wrap62IntoPyObjectConverter$LT$core..result..Result$LT$T$C$E$GT$$GT$12map_into_ptr28_$u7b$$u7b$closure$u7d$$u7d$17he9f9d60b1e858cfbE', symObjAddr: 0x2DC, symBinAddr: 0x43F18, symSize: 0x2C }
  - { offset: 0xC80B1, size: 0x8, addend: 0x0, symName: '__ZN4pyo35impl_4wrap82EmptyTupleConverter$LT$core..result..Result$LT$$LP$$RP$$C$pyo3..err..PyErr$GT$$GT$12map_into_ptr28_$u7b$$u7b$closure$u7d$$u7d$17h842b1efb659f8807E', symObjAddr: 0x3A4, symBinAddr: 0x43FE0, symSize: 0x28 }
  - { offset: 0xC8107, size: 0x8, addend: 0x0, symName: __ZN4pyo35impl_4wrap9converter17h0b6a374901f75d7fE, symObjAddr: 0x3CC, symBinAddr: 0x44008, symSize: 0x10 }
  - { offset: 0xC8134, size: 0x8, addend: 0x0, symName: __ZN4pyo35impl_4wrap9converter17h3bc73593b2981da4E, symObjAddr: 0x3DC, symBinAddr: 0x44018, symSize: 0x10 }
  - { offset: 0xC8161, size: 0x8, addend: 0x0, symName: __ZN4pyo35impl_4wrap9converter17h8368fef402fbb804E, symObjAddr: 0x3EC, symBinAddr: 0x44028, symSize: 0x10 }
  - { offset: 0xC818E, size: 0x8, addend: 0x0, symName: __ZN4pyo35impl_4wrap9converter17h844adecde87eefdcE, symObjAddr: 0x3FC, symBinAddr: 0x44038, symSize: 0x10 }
  - { offset: 0xC81BB, size: 0x8, addend: 0x0, symName: __ZN4pyo35impl_4wrap9converter17h94dc5cf0fda731f6E, symObjAddr: 0x40C, symBinAddr: 0x44048, symSize: 0x10 }
  - { offset: 0xC81E8, size: 0x8, addend: 0x0, symName: __ZN4pyo35impl_4wrap9converter17hb01fb9cfee342f72E, symObjAddr: 0x41C, symBinAddr: 0x44058, symSize: 0x10 }
  - { offset: 0xC8215, size: 0x8, addend: 0x0, symName: __ZN4pyo35impl_4wrap9converter17hbc79bdbd3b06cfb6E, symObjAddr: 0x42C, symBinAddr: 0x44068, symSize: 0x10 }
  - { offset: 0xC8242, size: 0x8, addend: 0x0, symName: __ZN4pyo35impl_4wrap9converter17hcaa70d98921d2730E, symObjAddr: 0x43C, symBinAddr: 0x44078, symSize: 0x10 }
  - { offset: 0xC826F, size: 0x8, addend: 0x0, symName: __ZN4pyo35impl_4wrap9converter17hd5c633b59623f459E, symObjAddr: 0x44C, symBinAddr: 0x44088, symSize: 0x10 }
  - { offset: 0xC829C, size: 0x8, addend: 0x0, symName: __ZN4pyo35impl_4wrap9converter17hdf929945d134d848E, symObjAddr: 0x45C, symBinAddr: 0x44098, symSize: 0x10 }
  - { offset: 0xC82CE, size: 0x8, addend: 0x0, symName: '__ZN81_$LT$pyo3..impl_..wrap..Converter$LT$T$GT$$u20$as$u20$core..ops..deref..Deref$GT$5deref17h063d923ffc08e746E', symObjAddr: 0x46C, symBinAddr: 0x440A8, symSize: 0x14 }
  - { offset: 0xC8303, size: 0x8, addend: 0x0, symName: '__ZN81_$LT$pyo3..impl_..wrap..Converter$LT$T$GT$$u20$as$u20$core..ops..deref..Deref$GT$5deref17h09b5a1ef82c1ff29E', symObjAddr: 0x480, symBinAddr: 0x440BC, symSize: 0x14 }
  - { offset: 0xC8338, size: 0x8, addend: 0x0, symName: '__ZN81_$LT$pyo3..impl_..wrap..Converter$LT$T$GT$$u20$as$u20$core..ops..deref..Deref$GT$5deref17h1065975909a4d231E', symObjAddr: 0x494, symBinAddr: 0x440D0, symSize: 0x14 }
  - { offset: 0xC836D, size: 0x8, addend: 0x0, symName: '__ZN81_$LT$pyo3..impl_..wrap..Converter$LT$T$GT$$u20$as$u20$core..ops..deref..Deref$GT$5deref17h51872da6337e5436E', symObjAddr: 0x4A8, symBinAddr: 0x440E4, symSize: 0x14 }
  - { offset: 0xC83A2, size: 0x8, addend: 0x0, symName: '__ZN81_$LT$pyo3..impl_..wrap..Converter$LT$T$GT$$u20$as$u20$core..ops..deref..Deref$GT$5deref17h5fa6e4a82f09025dE', symObjAddr: 0x4BC, symBinAddr: 0x440F8, symSize: 0x14 }
  - { offset: 0xC83D7, size: 0x8, addend: 0x0, symName: '__ZN81_$LT$pyo3..impl_..wrap..Converter$LT$T$GT$$u20$as$u20$core..ops..deref..Deref$GT$5deref17h86220b0387ca0152E', symObjAddr: 0x4D0, symBinAddr: 0x4410C, symSize: 0x14 }
  - { offset: 0xC840C, size: 0x8, addend: 0x0, symName: '__ZN81_$LT$pyo3..impl_..wrap..Converter$LT$T$GT$$u20$as$u20$core..ops..deref..Deref$GT$5deref17h86d5405396128020E', symObjAddr: 0x4E4, symBinAddr: 0x44120, symSize: 0x14 }
  - { offset: 0xC8441, size: 0x8, addend: 0x0, symName: '__ZN81_$LT$pyo3..impl_..wrap..Converter$LT$T$GT$$u20$as$u20$core..ops..deref..Deref$GT$5deref17hbda96e0c919dfd41E', symObjAddr: 0x4F8, symBinAddr: 0x44134, symSize: 0x14 }
  - { offset: 0xC8476, size: 0x8, addend: 0x0, symName: '__ZN81_$LT$pyo3..impl_..wrap..Converter$LT$T$GT$$u20$as$u20$core..ops..deref..Deref$GT$5deref17hc8173f901f8f7c61E', symObjAddr: 0x50C, symBinAddr: 0x44148, symSize: 0x14 }
  - { offset: 0xC84AB, size: 0x8, addend: 0x0, symName: '__ZN81_$LT$pyo3..impl_..wrap..Converter$LT$T$GT$$u20$as$u20$core..ops..deref..Deref$GT$5deref17hee0103beed7e5c45E', symObjAddr: 0x520, symBinAddr: 0x4415C, symSize: 0x14 }
  - { offset: 0xC84E6, size: 0x8, addend: 0x0, symName: '__ZN91_$LT$pyo3..impl_..wrap..EmptyTupleConverter$LT$T$GT$$u20$as$u20$core..ops..deref..Deref$GT$5deref17h088646ad1b97fd40E', symObjAddr: 0x534, symBinAddr: 0x44170, symSize: 0x14 }
  - { offset: 0xC851B, size: 0x8, addend: 0x0, symName: '__ZN91_$LT$pyo3..impl_..wrap..EmptyTupleConverter$LT$T$GT$$u20$as$u20$core..ops..deref..Deref$GT$5deref17h15de2ed517f7b7e8E', symObjAddr: 0x548, symBinAddr: 0x44184, symSize: 0x14 }
  - { offset: 0xC8550, size: 0x8, addend: 0x0, symName: '__ZN91_$LT$pyo3..impl_..wrap..EmptyTupleConverter$LT$T$GT$$u20$as$u20$core..ops..deref..Deref$GT$5deref17h229984dacd66e950E', symObjAddr: 0x55C, symBinAddr: 0x44198, symSize: 0x14 }
  - { offset: 0xC8585, size: 0x8, addend: 0x0, symName: '__ZN91_$LT$pyo3..impl_..wrap..EmptyTupleConverter$LT$T$GT$$u20$as$u20$core..ops..deref..Deref$GT$5deref17h23febd2d0e2ff761E', symObjAddr: 0x570, symBinAddr: 0x441AC, symSize: 0x14 }
  - { offset: 0xC85BA, size: 0x8, addend: 0x0, symName: '__ZN91_$LT$pyo3..impl_..wrap..EmptyTupleConverter$LT$T$GT$$u20$as$u20$core..ops..deref..Deref$GT$5deref17h436d52b5d82524f9E', symObjAddr: 0x584, symBinAddr: 0x441C0, symSize: 0x14 }
  - { offset: 0xC85EF, size: 0x8, addend: 0x0, symName: '__ZN91_$LT$pyo3..impl_..wrap..EmptyTupleConverter$LT$T$GT$$u20$as$u20$core..ops..deref..Deref$GT$5deref17h49854e4be88d6262E', symObjAddr: 0x598, symBinAddr: 0x441D4, symSize: 0x14 }
  - { offset: 0xC8624, size: 0x8, addend: 0x0, symName: '__ZN91_$LT$pyo3..impl_..wrap..EmptyTupleConverter$LT$T$GT$$u20$as$u20$core..ops..deref..Deref$GT$5deref17h7efee82efaf076c8E', symObjAddr: 0x5AC, symBinAddr: 0x441E8, symSize: 0x14 }
  - { offset: 0xC8659, size: 0x8, addend: 0x0, symName: '__ZN91_$LT$pyo3..impl_..wrap..EmptyTupleConverter$LT$T$GT$$u20$as$u20$core..ops..deref..Deref$GT$5deref17h908da9302a19c28aE', symObjAddr: 0x5C0, symBinAddr: 0x441FC, symSize: 0x14 }
  - { offset: 0xC868E, size: 0x8, addend: 0x0, symName: '__ZN91_$LT$pyo3..impl_..wrap..EmptyTupleConverter$LT$T$GT$$u20$as$u20$core..ops..deref..Deref$GT$5deref17hbe0ff94d9c828b9eE', symObjAddr: 0x5D4, symBinAddr: 0x44210, symSize: 0x14 }
  - { offset: 0xC8DD0, size: 0x8, addend: 0x0, symName: '__ZN4pyo35impl_4wrap30IntoPyObjectConverter$LT$T$GT$4wrap17h1155a32fe95075e0E', symObjAddr: 0x0, symBinAddr: 0x43C3C, symSize: 0x24 }
  - { offset: 0xC8E16, size: 0x8, addend: 0x0, symName: '__ZN4pyo35impl_4wrap30IntoPyObjectConverter$LT$T$GT$4wrap17h41162874e6f50a8aE', symObjAddr: 0x24, symBinAddr: 0x43C60, symSize: 0x24 }
  - { offset: 0xC8E5C, size: 0x8, addend: 0x0, symName: '__ZN4pyo35impl_4wrap30IntoPyObjectConverter$LT$T$GT$4wrap17h538fee11e53aaef7E', symObjAddr: 0x48, symBinAddr: 0x43C84, symSize: 0x1C }
  - { offset: 0xC8EA9, size: 0x8, addend: 0x0, symName: '__ZN4pyo35impl_4wrap30IntoPyObjectConverter$LT$T$GT$4wrap17ha0ad69cf64bec9e5E', symObjAddr: 0x64, symBinAddr: 0x43CA0, symSize: 0x10 }
  - { offset: 0xC957D, size: 0x8, addend: 0x0, symName: '__ZN4pyo35impl_4wrap62IntoPyObjectConverter$LT$core..result..Result$LT$T$C$E$GT$$GT$12map_into_ptr17h1d9d5ab8901b2a6eE', symObjAddr: 0x74, symBinAddr: 0x43CB0, symSize: 0x54 }
  - { offset: 0xC9606, size: 0x8, addend: 0x0, symName: '__ZN4pyo35impl_4wrap62IntoPyObjectConverter$LT$core..result..Result$LT$T$C$E$GT$$GT$12map_into_ptr17h30ae476410a3b51eE', symObjAddr: 0xC8, symBinAddr: 0x43D04, symSize: 0x54 }
  - { offset: 0xC9671, size: 0x8, addend: 0x0, symName: '__ZN4pyo35impl_4wrap62IntoPyObjectConverter$LT$core..result..Result$LT$T$C$E$GT$$GT$12map_into_ptr17h812f7c26465ee11eE', symObjAddr: 0x11C, symBinAddr: 0x43D58, symSize: 0x54 }
  - { offset: 0xC96DC, size: 0x8, addend: 0x0, symName: '__ZN4pyo35impl_4wrap62IntoPyObjectConverter$LT$core..result..Result$LT$T$C$E$GT$$GT$12map_into_ptr17hc9f0e00bb740bbc1E', symObjAddr: 0x170, symBinAddr: 0x43DAC, symSize: 0x54 }
  - { offset: 0xC9747, size: 0x8, addend: 0x0, symName: '__ZN4pyo35impl_4wrap62IntoPyObjectConverter$LT$core..result..Result$LT$T$C$E$GT$$GT$12map_into_ptr17hd65011341203e874E', symObjAddr: 0x1C4, symBinAddr: 0x43E00, symSize: 0x54 }
  - { offset: 0xC97A5, size: 0x8, addend: 0x0, symName: '__ZN4pyo35impl_4wrap62IntoPyObjectConverter$LT$core..result..Result$LT$T$C$E$GT$$GT$4wrap17h17e6ad5edd58980dE', symObjAddr: 0x308, symBinAddr: 0x43F44, symSize: 0x34 }
  - { offset: 0xC97E8, size: 0x8, addend: 0x0, symName: '__ZN4pyo35impl_4wrap62IntoPyObjectConverter$LT$core..result..Result$LT$T$C$E$GT$$GT$4wrap17h36e41564544fd2fbE', symObjAddr: 0x33C, symBinAddr: 0x43F78, symSize: 0x34 }
  - { offset: 0xC982B, size: 0x8, addend: 0x0, symName: '__ZN4pyo35impl_4wrap62IntoPyObjectConverter$LT$core..result..Result$LT$T$C$E$GT$$GT$4wrap17h94a8babe4f4066d4E', symObjAddr: 0x370, symBinAddr: 0x43FAC, symSize: 0x34 }
  - { offset: 0xC9A1F, size: 0x8, addend: 0x0, symName: '__ZN102_$LT$pyo3..internal..get_slot..Slot$LT$74_i32$GT$$u20$as$u20$pyo3..internal..get_slot..GetSlotImpl$GT$8get_slot17hb24f2bd346580059E', symObjAddr: 0x0, symBinAddr: 0x44224, symSize: 0x74 }
  - { offset: 0xCAAC3, size: 0x8, addend: 0x0, symName: '__ZN102_$LT$pyo3..internal..get_slot..Slot$LT$74_i32$GT$$u20$as$u20$pyo3..internal..get_slot..GetSlotImpl$GT$8get_slot17hb24f2bd346580059E', symObjAddr: 0x0, symBinAddr: 0x44224, symSize: 0x74 }
  - { offset: 0xCAF8A, size: 0x8, addend: 0x0, symName: '__ZN4pyo36pycell14PyRef$LT$T$GT$10try_borrow17h07e96f21507a100bE', symObjAddr: 0x0, symBinAddr: 0x44298, symSize: 0x4C }
  - { offset: 0xCF509, size: 0x8, addend: 0x0, symName: '__ZN50_$LT$T$u20$as$u20$core..convert..Into$LT$U$GT$$GT$4into17h33f3354109785fd6E', symObjAddr: 0x10A0, symBinAddr: 0x45338, symSize: 0x1C }
  - { offset: 0xCF549, size: 0x8, addend: 0x0, symName: '__ZN50_$LT$T$u20$as$u20$core..convert..Into$LT$U$GT$$GT$4into17hbe29062ccf4bad80E', symObjAddr: 0x10BC, symBinAddr: 0x45354, symSize: 0x1C }
  - { offset: 0xD03CD, size: 0x8, addend: 0x0, symName: '__ZN4pyo36pycell14PyRef$LT$T$GT$10try_borrow28_$u7b$$u7b$closure$u7d$$u7d$17h01de12aac53feb1cE', symObjAddr: 0x63C, symBinAddr: 0x448D4, symSize: 0x24 }
  - { offset: 0xD0411, size: 0x8, addend: 0x0, symName: '__ZN4pyo36pycell14PyRef$LT$T$GT$10try_borrow28_$u7b$$u7b$closure$u7d$$u7d$17h089488fd20929000E', symObjAddr: 0x660, symBinAddr: 0x448F8, symSize: 0x24 }
  - { offset: 0xD0455, size: 0x8, addend: 0x0, symName: '__ZN4pyo36pycell14PyRef$LT$T$GT$10try_borrow28_$u7b$$u7b$closure$u7d$$u7d$17h10873359f0065317E', symObjAddr: 0x684, symBinAddr: 0x4491C, symSize: 0x24 }
  - { offset: 0xD0499, size: 0x8, addend: 0x0, symName: '__ZN4pyo36pycell14PyRef$LT$T$GT$10try_borrow28_$u7b$$u7b$closure$u7d$$u7d$17h11be81ef837c727aE', symObjAddr: 0x6A8, symBinAddr: 0x44940, symSize: 0x24 }
  - { offset: 0xD04DD, size: 0x8, addend: 0x0, symName: '__ZN4pyo36pycell14PyRef$LT$T$GT$10try_borrow28_$u7b$$u7b$closure$u7d$$u7d$17h1b843ce0c6e95cfbE', symObjAddr: 0x6CC, symBinAddr: 0x44964, symSize: 0x24 }
  - { offset: 0xD0521, size: 0x8, addend: 0x0, symName: '__ZN4pyo36pycell14PyRef$LT$T$GT$10try_borrow28_$u7b$$u7b$closure$u7d$$u7d$17h37970c3cb8a69bb5E', symObjAddr: 0x6F0, symBinAddr: 0x44988, symSize: 0x24 }
  - { offset: 0xD0565, size: 0x8, addend: 0x0, symName: '__ZN4pyo36pycell14PyRef$LT$T$GT$10try_borrow28_$u7b$$u7b$closure$u7d$$u7d$17h3d558df223cd91f5E', symObjAddr: 0x714, symBinAddr: 0x449AC, symSize: 0x24 }
  - { offset: 0xD05A9, size: 0x8, addend: 0x0, symName: '__ZN4pyo36pycell14PyRef$LT$T$GT$10try_borrow28_$u7b$$u7b$closure$u7d$$u7d$17h43b24e77680d1314E', symObjAddr: 0x738, symBinAddr: 0x449D0, symSize: 0x24 }
  - { offset: 0xD05ED, size: 0x8, addend: 0x0, symName: '__ZN4pyo36pycell14PyRef$LT$T$GT$10try_borrow28_$u7b$$u7b$closure$u7d$$u7d$17h711134eca40a2ce1E', symObjAddr: 0x75C, symBinAddr: 0x449F4, symSize: 0x24 }
  - { offset: 0xD0631, size: 0x8, addend: 0x0, symName: '__ZN4pyo36pycell14PyRef$LT$T$GT$10try_borrow28_$u7b$$u7b$closure$u7d$$u7d$17h811370ea3ec7e396E', symObjAddr: 0x780, symBinAddr: 0x44A18, symSize: 0x24 }
  - { offset: 0xD0675, size: 0x8, addend: 0x0, symName: '__ZN4pyo36pycell14PyRef$LT$T$GT$10try_borrow28_$u7b$$u7b$closure$u7d$$u7d$17h835db07f63308781E', symObjAddr: 0x7A4, symBinAddr: 0x44A3C, symSize: 0x24 }
  - { offset: 0xD06B9, size: 0x8, addend: 0x0, symName: '__ZN4pyo36pycell14PyRef$LT$T$GT$10try_borrow28_$u7b$$u7b$closure$u7d$$u7d$17h8dad95e0b24386c9E', symObjAddr: 0x7C8, symBinAddr: 0x44A60, symSize: 0x24 }
  - { offset: 0xD06FD, size: 0x8, addend: 0x0, symName: '__ZN4pyo36pycell14PyRef$LT$T$GT$10try_borrow28_$u7b$$u7b$closure$u7d$$u7d$17h933058dbf77d065bE', symObjAddr: 0x7EC, symBinAddr: 0x44A84, symSize: 0x24 }
  - { offset: 0xD0741, size: 0x8, addend: 0x0, symName: '__ZN4pyo36pycell14PyRef$LT$T$GT$10try_borrow28_$u7b$$u7b$closure$u7d$$u7d$17ha626615d24e73fb6E', symObjAddr: 0x810, symBinAddr: 0x44AA8, symSize: 0x24 }
  - { offset: 0xD0785, size: 0x8, addend: 0x0, symName: '__ZN4pyo36pycell14PyRef$LT$T$GT$10try_borrow28_$u7b$$u7b$closure$u7d$$u7d$17ha8db7f57f0fcd08cE', symObjAddr: 0x834, symBinAddr: 0x44ACC, symSize: 0x24 }
  - { offset: 0xD07C9, size: 0x8, addend: 0x0, symName: '__ZN4pyo36pycell14PyRef$LT$T$GT$10try_borrow28_$u7b$$u7b$closure$u7d$$u7d$17hb7afc00d8b83d8d9E', symObjAddr: 0x858, symBinAddr: 0x44AF0, symSize: 0x24 }
  - { offset: 0xD080D, size: 0x8, addend: 0x0, symName: '__ZN4pyo36pycell14PyRef$LT$T$GT$10try_borrow28_$u7b$$u7b$closure$u7d$$u7d$17hb86dae3c2722b818E', symObjAddr: 0x87C, symBinAddr: 0x44B14, symSize: 0x24 }
  - { offset: 0xD0851, size: 0x8, addend: 0x0, symName: '__ZN4pyo36pycell14PyRef$LT$T$GT$10try_borrow28_$u7b$$u7b$closure$u7d$$u7d$17hbd2fe6c4ebd9bac7E', symObjAddr: 0x8A0, symBinAddr: 0x44B38, symSize: 0x24 }
  - { offset: 0xD0895, size: 0x8, addend: 0x0, symName: '__ZN4pyo36pycell14PyRef$LT$T$GT$10try_borrow28_$u7b$$u7b$closure$u7d$$u7d$17hcd15417192e8bde5E', symObjAddr: 0x8C4, symBinAddr: 0x44B5C, symSize: 0x24 }
  - { offset: 0xD08D9, size: 0x8, addend: 0x0, symName: '__ZN4pyo36pycell14PyRef$LT$T$GT$10try_borrow28_$u7b$$u7b$closure$u7d$$u7d$17hcf30c0f89ef1c2c6E', symObjAddr: 0x8E8, symBinAddr: 0x44B80, symSize: 0x24 }
  - { offset: 0xD091D, size: 0x8, addend: 0x0, symName: '__ZN4pyo36pycell14PyRef$LT$T$GT$10try_borrow28_$u7b$$u7b$closure$u7d$$u7d$17hdb0c851be8ac4e8dE', symObjAddr: 0x90C, symBinAddr: 0x44BA4, symSize: 0x24 }
  - { offset: 0xD0D8F, size: 0x8, addend: 0x0, symName: '__ZN4pyo36pycell17PyRefMut$LT$T$GT$10try_borrow28_$u7b$$u7b$closure$u7d$$u7d$17h08475c34eb83c0eaE', symObjAddr: 0xE3C, symBinAddr: 0x450D4, symSize: 0x24 }
  - { offset: 0xD0DD3, size: 0x8, addend: 0x0, symName: '__ZN4pyo36pycell17PyRefMut$LT$T$GT$10try_borrow28_$u7b$$u7b$closure$u7d$$u7d$17h167a498cd5e18694E', symObjAddr: 0xE60, symBinAddr: 0x450F8, symSize: 0x24 }
  - { offset: 0xD0E17, size: 0x8, addend: 0x0, symName: '__ZN4pyo36pycell17PyRefMut$LT$T$GT$10try_borrow28_$u7b$$u7b$closure$u7d$$u7d$17h17c8429806374043E', symObjAddr: 0xE84, symBinAddr: 0x4511C, symSize: 0x24 }
  - { offset: 0xD0E5B, size: 0x8, addend: 0x0, symName: '__ZN4pyo36pycell17PyRefMut$LT$T$GT$10try_borrow28_$u7b$$u7b$closure$u7d$$u7d$17h1f509d3fae113833E', symObjAddr: 0xEA8, symBinAddr: 0x45140, symSize: 0x24 }
  - { offset: 0xD0E9F, size: 0x8, addend: 0x0, symName: '__ZN4pyo36pycell17PyRefMut$LT$T$GT$10try_borrow28_$u7b$$u7b$closure$u7d$$u7d$17h3a3f2590434ed4a6E', symObjAddr: 0xECC, symBinAddr: 0x45164, symSize: 0x24 }
  - { offset: 0xD0EE3, size: 0x8, addend: 0x0, symName: '__ZN4pyo36pycell17PyRefMut$LT$T$GT$10try_borrow28_$u7b$$u7b$closure$u7d$$u7d$17h663fe89c0276a1bcE', symObjAddr: 0xEF0, symBinAddr: 0x45188, symSize: 0x24 }
  - { offset: 0xD0F27, size: 0x8, addend: 0x0, symName: '__ZN4pyo36pycell17PyRefMut$LT$T$GT$10try_borrow28_$u7b$$u7b$closure$u7d$$u7d$17h7544e7c78ef9e437E', symObjAddr: 0xF14, symBinAddr: 0x451AC, symSize: 0x24 }
  - { offset: 0xD0F6B, size: 0x8, addend: 0x0, symName: '__ZN4pyo36pycell17PyRefMut$LT$T$GT$10try_borrow28_$u7b$$u7b$closure$u7d$$u7d$17h8687c8b022c22d28E', symObjAddr: 0xF38, symBinAddr: 0x451D0, symSize: 0x24 }
  - { offset: 0xD0FAF, size: 0x8, addend: 0x0, symName: '__ZN4pyo36pycell17PyRefMut$LT$T$GT$10try_borrow28_$u7b$$u7b$closure$u7d$$u7d$17h9018213d20761d71E', symObjAddr: 0xF5C, symBinAddr: 0x451F4, symSize: 0x24 }
  - { offset: 0xD0FF3, size: 0x8, addend: 0x0, symName: '__ZN4pyo36pycell17PyRefMut$LT$T$GT$10try_borrow28_$u7b$$u7b$closure$u7d$$u7d$17ha00003c368b24031E', symObjAddr: 0xF80, symBinAddr: 0x45218, symSize: 0x24 }
  - { offset: 0xD1037, size: 0x8, addend: 0x0, symName: '__ZN4pyo36pycell17PyRefMut$LT$T$GT$10try_borrow28_$u7b$$u7b$closure$u7d$$u7d$17hafac5266e3f26641E', symObjAddr: 0xFA4, symBinAddr: 0x4523C, symSize: 0x24 }
  - { offset: 0xD107B, size: 0x8, addend: 0x0, symName: '__ZN4pyo36pycell17PyRefMut$LT$T$GT$10try_borrow28_$u7b$$u7b$closure$u7d$$u7d$17hce4777097a084d13E', symObjAddr: 0xFC8, symBinAddr: 0x45260, symSize: 0x24 }
  - { offset: 0xD10BF, size: 0x8, addend: 0x0, symName: '__ZN4pyo36pycell17PyRefMut$LT$T$GT$10try_borrow28_$u7b$$u7b$closure$u7d$$u7d$17hd05fdf1fc7391287E', symObjAddr: 0xFEC, symBinAddr: 0x45284, symSize: 0x24 }
  - { offset: 0xD1103, size: 0x8, addend: 0x0, symName: '__ZN4pyo36pycell17PyRefMut$LT$T$GT$10try_borrow28_$u7b$$u7b$closure$u7d$$u7d$17hd213aa963d02eabbE', symObjAddr: 0x1010, symBinAddr: 0x452A8, symSize: 0x24 }
  - { offset: 0xD1147, size: 0x8, addend: 0x0, symName: '__ZN4pyo36pycell17PyRefMut$LT$T$GT$10try_borrow28_$u7b$$u7b$closure$u7d$$u7d$17he442309e3e1e1546E', symObjAddr: 0x1034, symBinAddr: 0x452CC, symSize: 0x24 }
  - { offset: 0xD118B, size: 0x8, addend: 0x0, symName: '__ZN4pyo36pycell17PyRefMut$LT$T$GT$10try_borrow28_$u7b$$u7b$closure$u7d$$u7d$17hed640d3f17cfd28bE', symObjAddr: 0x1058, symBinAddr: 0x452F0, symSize: 0x24 }
  - { offset: 0xD11CF, size: 0x8, addend: 0x0, symName: '__ZN4pyo36pycell17PyRefMut$LT$T$GT$10try_borrow28_$u7b$$u7b$closure$u7d$$u7d$17hee6f9ecbd43e6ba3E', symObjAddr: 0x107C, symBinAddr: 0x45314, symSize: 0x24 }
  - { offset: 0xD121A, size: 0x8, addend: 0x0, symName: '__ZN72_$LT$pyo3..pycell..PyRef$LT$T$GT$$u20$as$u20$core..ops..deref..Deref$GT$5deref17h0852722e5ece6b7dE', symObjAddr: 0x1890, symBinAddr: 0x45B28, symSize: 0x74 }
  - { offset: 0xD1251, size: 0x8, addend: 0x0, symName: '__ZN72_$LT$pyo3..pycell..PyRef$LT$T$GT$$u20$as$u20$core..ops..deref..Deref$GT$5deref17h0f67cab38fe9b3efE', symObjAddr: 0x1904, symBinAddr: 0x45B9C, symSize: 0x74 }
  - { offset: 0xD1288, size: 0x8, addend: 0x0, symName: '__ZN72_$LT$pyo3..pycell..PyRef$LT$T$GT$$u20$as$u20$core..ops..deref..Deref$GT$5deref17h12a90cb4fc202b6dE', symObjAddr: 0x1978, symBinAddr: 0x45C10, symSize: 0x74 }
  - { offset: 0xD12BF, size: 0x8, addend: 0x0, symName: '__ZN72_$LT$pyo3..pycell..PyRef$LT$T$GT$$u20$as$u20$core..ops..deref..Deref$GT$5deref17h18160cc366d1d746E', symObjAddr: 0x19EC, symBinAddr: 0x45C84, symSize: 0x74 }
  - { offset: 0xD12F6, size: 0x8, addend: 0x0, symName: '__ZN72_$LT$pyo3..pycell..PyRef$LT$T$GT$$u20$as$u20$core..ops..deref..Deref$GT$5deref17h25584269b9c1145eE', symObjAddr: 0x1A60, symBinAddr: 0x45CF8, symSize: 0x74 }
  - { offset: 0xD132D, size: 0x8, addend: 0x0, symName: '__ZN72_$LT$pyo3..pycell..PyRef$LT$T$GT$$u20$as$u20$core..ops..deref..Deref$GT$5deref17h27e28c108dc42c1bE', symObjAddr: 0x1AD4, symBinAddr: 0x45D6C, symSize: 0x74 }
  - { offset: 0xD1364, size: 0x8, addend: 0x0, symName: '__ZN72_$LT$pyo3..pycell..PyRef$LT$T$GT$$u20$as$u20$core..ops..deref..Deref$GT$5deref17h40266590811b1c20E', symObjAddr: 0x1B48, symBinAddr: 0x45DE0, symSize: 0x74 }
  - { offset: 0xD139B, size: 0x8, addend: 0x0, symName: '__ZN72_$LT$pyo3..pycell..PyRef$LT$T$GT$$u20$as$u20$core..ops..deref..Deref$GT$5deref17h5417aa0a0dc9fef8E', symObjAddr: 0x1BBC, symBinAddr: 0x45E54, symSize: 0x74 }
  - { offset: 0xD13D2, size: 0x8, addend: 0x0, symName: '__ZN72_$LT$pyo3..pycell..PyRef$LT$T$GT$$u20$as$u20$core..ops..deref..Deref$GT$5deref17h543367f58684c070E', symObjAddr: 0x1C30, symBinAddr: 0x45EC8, symSize: 0x74 }
  - { offset: 0xD1409, size: 0x8, addend: 0x0, symName: '__ZN72_$LT$pyo3..pycell..PyRef$LT$T$GT$$u20$as$u20$core..ops..deref..Deref$GT$5deref17h62120e1748cfb2acE', symObjAddr: 0x1CA4, symBinAddr: 0x45F3C, symSize: 0x74 }
  - { offset: 0xD1440, size: 0x8, addend: 0x0, symName: '__ZN72_$LT$pyo3..pycell..PyRef$LT$T$GT$$u20$as$u20$core..ops..deref..Deref$GT$5deref17h64dbb7f8b5287ed8E', symObjAddr: 0x1D18, symBinAddr: 0x45FB0, symSize: 0x74 }
  - { offset: 0xD1477, size: 0x8, addend: 0x0, symName: '__ZN72_$LT$pyo3..pycell..PyRef$LT$T$GT$$u20$as$u20$core..ops..deref..Deref$GT$5deref17h7a5e5fc67c93a8e3E', symObjAddr: 0x1D8C, symBinAddr: 0x46024, symSize: 0x74 }
  - { offset: 0xD14AE, size: 0x8, addend: 0x0, symName: '__ZN72_$LT$pyo3..pycell..PyRef$LT$T$GT$$u20$as$u20$core..ops..deref..Deref$GT$5deref17h84c3dc3616bf31c1E', symObjAddr: 0x1E00, symBinAddr: 0x46098, symSize: 0x74 }
  - { offset: 0xD14E5, size: 0x8, addend: 0x0, symName: '__ZN72_$LT$pyo3..pycell..PyRef$LT$T$GT$$u20$as$u20$core..ops..deref..Deref$GT$5deref17h86bca8dc94d98ac1E', symObjAddr: 0x1E74, symBinAddr: 0x4610C, symSize: 0x74 }
  - { offset: 0xD151C, size: 0x8, addend: 0x0, symName: '__ZN72_$LT$pyo3..pycell..PyRef$LT$T$GT$$u20$as$u20$core..ops..deref..Deref$GT$5deref17h927ac0694a98e6c9E', symObjAddr: 0x1EE8, symBinAddr: 0x46180, symSize: 0x74 }
  - { offset: 0xD1553, size: 0x8, addend: 0x0, symName: '__ZN72_$LT$pyo3..pycell..PyRef$LT$T$GT$$u20$as$u20$core..ops..deref..Deref$GT$5deref17h9c442add5532bfecE', symObjAddr: 0x1F5C, symBinAddr: 0x461F4, symSize: 0x74 }
  - { offset: 0xD158A, size: 0x8, addend: 0x0, symName: '__ZN72_$LT$pyo3..pycell..PyRef$LT$T$GT$$u20$as$u20$core..ops..deref..Deref$GT$5deref17hb8db4616b74af93aE', symObjAddr: 0x1FD0, symBinAddr: 0x46268, symSize: 0x74 }
  - { offset: 0xD15C1, size: 0x8, addend: 0x0, symName: '__ZN72_$LT$pyo3..pycell..PyRef$LT$T$GT$$u20$as$u20$core..ops..deref..Deref$GT$5deref17hc5b352b1caec0593E', symObjAddr: 0x2044, symBinAddr: 0x462DC, symSize: 0x74 }
  - { offset: 0xD15F8, size: 0x8, addend: 0x0, symName: '__ZN72_$LT$pyo3..pycell..PyRef$LT$T$GT$$u20$as$u20$core..ops..deref..Deref$GT$5deref17hd2e04c0e58cb7634E', symObjAddr: 0x20B8, symBinAddr: 0x46350, symSize: 0x74 }
  - { offset: 0xD162F, size: 0x8, addend: 0x0, symName: '__ZN72_$LT$pyo3..pycell..PyRef$LT$T$GT$$u20$as$u20$core..ops..deref..Deref$GT$5deref17hf23490ff0eadafb2E', symObjAddr: 0x212C, symBinAddr: 0x463C4, symSize: 0x74 }
  - { offset: 0xD1666, size: 0x8, addend: 0x0, symName: '__ZN72_$LT$pyo3..pycell..PyRef$LT$T$GT$$u20$as$u20$core..ops..deref..Deref$GT$5deref17hf2c745487de2915eE', symObjAddr: 0x21A0, symBinAddr: 0x46438, symSize: 0x74 }
  - { offset: 0xD16A3, size: 0x8, addend: 0x0, symName: '__ZN78_$LT$pyo3..pycell..PyRefMut$LT$T$GT$$u20$as$u20$core..ops..deref..DerefMut$GT$9deref_mut17h008460f2b333ae47E', symObjAddr: 0x2214, symBinAddr: 0x464AC, symSize: 0x74 }
  - { offset: 0xD16DA, size: 0x8, addend: 0x0, symName: '__ZN78_$LT$pyo3..pycell..PyRefMut$LT$T$GT$$u20$as$u20$core..ops..deref..DerefMut$GT$9deref_mut17h07b2917f86c7d942E', symObjAddr: 0x2288, symBinAddr: 0x46520, symSize: 0x74 }
  - { offset: 0xD1711, size: 0x8, addend: 0x0, symName: '__ZN78_$LT$pyo3..pycell..PyRefMut$LT$T$GT$$u20$as$u20$core..ops..deref..DerefMut$GT$9deref_mut17h0e6ce6922aa72333E', symObjAddr: 0x22FC, symBinAddr: 0x46594, symSize: 0x74 }
  - { offset: 0xD1748, size: 0x8, addend: 0x0, symName: '__ZN78_$LT$pyo3..pycell..PyRefMut$LT$T$GT$$u20$as$u20$core..ops..deref..DerefMut$GT$9deref_mut17h1116f86087decd39E', symObjAddr: 0x2370, symBinAddr: 0x46608, symSize: 0x74 }
  - { offset: 0xD177F, size: 0x8, addend: 0x0, symName: '__ZN78_$LT$pyo3..pycell..PyRefMut$LT$T$GT$$u20$as$u20$core..ops..deref..DerefMut$GT$9deref_mut17h3237b2edc6274591E', symObjAddr: 0x23E4, symBinAddr: 0x4667C, symSize: 0x74 }
  - { offset: 0xD17B6, size: 0x8, addend: 0x0, symName: '__ZN78_$LT$pyo3..pycell..PyRefMut$LT$T$GT$$u20$as$u20$core..ops..deref..DerefMut$GT$9deref_mut17h57dbb43894f900ccE', symObjAddr: 0x2458, symBinAddr: 0x466F0, symSize: 0x74 }
  - { offset: 0xD17ED, size: 0x8, addend: 0x0, symName: '__ZN78_$LT$pyo3..pycell..PyRefMut$LT$T$GT$$u20$as$u20$core..ops..deref..DerefMut$GT$9deref_mut17h59dac13956b55317E', symObjAddr: 0x24CC, symBinAddr: 0x46764, symSize: 0x74 }
  - { offset: 0xD1824, size: 0x8, addend: 0x0, symName: '__ZN78_$LT$pyo3..pycell..PyRefMut$LT$T$GT$$u20$as$u20$core..ops..deref..DerefMut$GT$9deref_mut17h5edce2bcc7f8131dE', symObjAddr: 0x2540, symBinAddr: 0x467D8, symSize: 0x74 }
  - { offset: 0xD185B, size: 0x8, addend: 0x0, symName: '__ZN78_$LT$pyo3..pycell..PyRefMut$LT$T$GT$$u20$as$u20$core..ops..deref..DerefMut$GT$9deref_mut17h60ec3a7f5ae5bd37E', symObjAddr: 0x25B4, symBinAddr: 0x4684C, symSize: 0x74 }
  - { offset: 0xD1892, size: 0x8, addend: 0x0, symName: '__ZN78_$LT$pyo3..pycell..PyRefMut$LT$T$GT$$u20$as$u20$core..ops..deref..DerefMut$GT$9deref_mut17h721d4e34d674bbc8E', symObjAddr: 0x2628, symBinAddr: 0x468C0, symSize: 0x74 }
  - { offset: 0xD18C9, size: 0x8, addend: 0x0, symName: '__ZN78_$LT$pyo3..pycell..PyRefMut$LT$T$GT$$u20$as$u20$core..ops..deref..DerefMut$GT$9deref_mut17h772283fa422add62E', symObjAddr: 0x269C, symBinAddr: 0x46934, symSize: 0x74 }
  - { offset: 0xD1900, size: 0x8, addend: 0x0, symName: '__ZN78_$LT$pyo3..pycell..PyRefMut$LT$T$GT$$u20$as$u20$core..ops..deref..DerefMut$GT$9deref_mut17h81386dbdfcd6608eE', symObjAddr: 0x2710, symBinAddr: 0x469A8, symSize: 0x74 }
  - { offset: 0xD1937, size: 0x8, addend: 0x0, symName: '__ZN78_$LT$pyo3..pycell..PyRefMut$LT$T$GT$$u20$as$u20$core..ops..deref..DerefMut$GT$9deref_mut17h91de1a926cbcaea5E', symObjAddr: 0x2784, symBinAddr: 0x46A1C, symSize: 0x74 }
  - { offset: 0xD196E, size: 0x8, addend: 0x0, symName: '__ZN78_$LT$pyo3..pycell..PyRefMut$LT$T$GT$$u20$as$u20$core..ops..deref..DerefMut$GT$9deref_mut17hb8894709a95c4e80E', symObjAddr: 0x27F8, symBinAddr: 0x46A90, symSize: 0x74 }
  - { offset: 0xD19A5, size: 0x8, addend: 0x0, symName: '__ZN78_$LT$pyo3..pycell..PyRefMut$LT$T$GT$$u20$as$u20$core..ops..deref..DerefMut$GT$9deref_mut17hca2334341065a822E', symObjAddr: 0x286C, symBinAddr: 0x46B04, symSize: 0x74 }
  - { offset: 0xD19DC, size: 0x8, addend: 0x0, symName: '__ZN78_$LT$pyo3..pycell..PyRefMut$LT$T$GT$$u20$as$u20$core..ops..deref..DerefMut$GT$9deref_mut17hd13a0d806b5a7f56E', symObjAddr: 0x28E0, symBinAddr: 0x46B78, symSize: 0x74 }
  - { offset: 0xD1A13, size: 0x8, addend: 0x0, symName: '__ZN78_$LT$pyo3..pycell..PyRefMut$LT$T$GT$$u20$as$u20$core..ops..deref..DerefMut$GT$9deref_mut17hf59750a7a145b011E', symObjAddr: 0x2954, symBinAddr: 0x46BEC, symSize: 0x74 }
  - { offset: 0xD2F2E, size: 0x8, addend: 0x0, symName: '__ZN57_$LT$T$u20$as$u20$pyo3..conversion..FromPyObjectBound$GT$20from_py_object_bound17h03ee71794beaaacdE', symObjAddr: 0x10D8, symBinAddr: 0x45370, symSize: 0x34 }
  - { offset: 0xD2F65, size: 0x8, addend: 0x0, symName: '__ZN57_$LT$T$u20$as$u20$pyo3..conversion..FromPyObjectBound$GT$20from_py_object_bound17h0952a8f281bc6465E', symObjAddr: 0x110C, symBinAddr: 0x453A4, symSize: 0x34 }
  - { offset: 0xD2F9C, size: 0x8, addend: 0x0, symName: '__ZN57_$LT$T$u20$as$u20$pyo3..conversion..FromPyObjectBound$GT$20from_py_object_bound17h0b982bf5d0d0c9a0E', symObjAddr: 0x1140, symBinAddr: 0x453D8, symSize: 0x34 }
  - { offset: 0xD2FD3, size: 0x8, addend: 0x0, symName: '__ZN57_$LT$T$u20$as$u20$pyo3..conversion..FromPyObjectBound$GT$20from_py_object_bound17h0c7756583d664cfdE', symObjAddr: 0x1174, symBinAddr: 0x4540C, symSize: 0x34 }
  - { offset: 0xD300A, size: 0x8, addend: 0x0, symName: '__ZN57_$LT$T$u20$as$u20$pyo3..conversion..FromPyObjectBound$GT$20from_py_object_bound17h0ef3c91fe9131240E', symObjAddr: 0x11A8, symBinAddr: 0x45440, symSize: 0x34 }
  - { offset: 0xD3041, size: 0x8, addend: 0x0, symName: '__ZN57_$LT$T$u20$as$u20$pyo3..conversion..FromPyObjectBound$GT$20from_py_object_bound17h15ef5095c4a7132bE', symObjAddr: 0x11DC, symBinAddr: 0x45474, symSize: 0x34 }
  - { offset: 0xD3078, size: 0x8, addend: 0x0, symName: '__ZN57_$LT$T$u20$as$u20$pyo3..conversion..FromPyObjectBound$GT$20from_py_object_bound17h1b043c2161dfbb36E', symObjAddr: 0x1210, symBinAddr: 0x454A8, symSize: 0x34 }
  - { offset: 0xD30AF, size: 0x8, addend: 0x0, symName: '__ZN57_$LT$T$u20$as$u20$pyo3..conversion..FromPyObjectBound$GT$20from_py_object_bound17h1fb53a36924cdc67E', symObjAddr: 0x1244, symBinAddr: 0x454DC, symSize: 0x34 }
  - { offset: 0xD30E6, size: 0x8, addend: 0x0, symName: '__ZN57_$LT$T$u20$as$u20$pyo3..conversion..FromPyObjectBound$GT$20from_py_object_bound17h23850eb2dd059dc6E', symObjAddr: 0x1278, symBinAddr: 0x45510, symSize: 0x34 }
  - { offset: 0xD311D, size: 0x8, addend: 0x0, symName: '__ZN57_$LT$T$u20$as$u20$pyo3..conversion..FromPyObjectBound$GT$20from_py_object_bound17h25dcfc32a459d413E', symObjAddr: 0x12AC, symBinAddr: 0x45544, symSize: 0x34 }
  - { offset: 0xD3154, size: 0x8, addend: 0x0, symName: '__ZN57_$LT$T$u20$as$u20$pyo3..conversion..FromPyObjectBound$GT$20from_py_object_bound17h28694071b6a62f7eE', symObjAddr: 0x12E0, symBinAddr: 0x45578, symSize: 0x34 }
  - { offset: 0xD318B, size: 0x8, addend: 0x0, symName: '__ZN57_$LT$T$u20$as$u20$pyo3..conversion..FromPyObjectBound$GT$20from_py_object_bound17h2c23f76daeec1f01E', symObjAddr: 0x1314, symBinAddr: 0x455AC, symSize: 0x34 }
  - { offset: 0xD31C2, size: 0x8, addend: 0x0, symName: '__ZN57_$LT$T$u20$as$u20$pyo3..conversion..FromPyObjectBound$GT$20from_py_object_bound17h3f2cc07e14a9628aE', symObjAddr: 0x1348, symBinAddr: 0x455E0, symSize: 0x34 }
  - { offset: 0xD31F9, size: 0x8, addend: 0x0, symName: '__ZN57_$LT$T$u20$as$u20$pyo3..conversion..FromPyObjectBound$GT$20from_py_object_bound17h4c9b3ec2a4ddfc74E', symObjAddr: 0x137C, symBinAddr: 0x45614, symSize: 0x34 }
  - { offset: 0xD3230, size: 0x8, addend: 0x0, symName: '__ZN57_$LT$T$u20$as$u20$pyo3..conversion..FromPyObjectBound$GT$20from_py_object_bound17h56df2e33891a3c01E', symObjAddr: 0x13B0, symBinAddr: 0x45648, symSize: 0x34 }
  - { offset: 0xD3267, size: 0x8, addend: 0x0, symName: '__ZN57_$LT$T$u20$as$u20$pyo3..conversion..FromPyObjectBound$GT$20from_py_object_bound17h5ded3816118d42c5E', symObjAddr: 0x13E4, symBinAddr: 0x4567C, symSize: 0x34 }
  - { offset: 0xD329E, size: 0x8, addend: 0x0, symName: '__ZN57_$LT$T$u20$as$u20$pyo3..conversion..FromPyObjectBound$GT$20from_py_object_bound17h6c50dfbb2d182bd1E', symObjAddr: 0x1418, symBinAddr: 0x456B0, symSize: 0x34 }
  - { offset: 0xD32D5, size: 0x8, addend: 0x0, symName: '__ZN57_$LT$T$u20$as$u20$pyo3..conversion..FromPyObjectBound$GT$20from_py_object_bound17h7b8e68ae8253eeceE', symObjAddr: 0x144C, symBinAddr: 0x456E4, symSize: 0x34 }
  - { offset: 0xD330C, size: 0x8, addend: 0x0, symName: '__ZN57_$LT$T$u20$as$u20$pyo3..conversion..FromPyObjectBound$GT$20from_py_object_bound17h83bc73f6869601f5E', symObjAddr: 0x1480, symBinAddr: 0x45718, symSize: 0x34 }
  - { offset: 0xD3343, size: 0x8, addend: 0x0, symName: '__ZN57_$LT$T$u20$as$u20$pyo3..conversion..FromPyObjectBound$GT$20from_py_object_bound17h8a2cdecab5fb976eE', symObjAddr: 0x14B4, symBinAddr: 0x4574C, symSize: 0x34 }
  - { offset: 0xD337A, size: 0x8, addend: 0x0, symName: '__ZN57_$LT$T$u20$as$u20$pyo3..conversion..FromPyObjectBound$GT$20from_py_object_bound17h9f19ca69d555f0a8E', symObjAddr: 0x14E8, symBinAddr: 0x45780, symSize: 0x34 }
  - { offset: 0xD33B1, size: 0x8, addend: 0x0, symName: '__ZN57_$LT$T$u20$as$u20$pyo3..conversion..FromPyObjectBound$GT$20from_py_object_bound17ha342ac133d907cd1E', symObjAddr: 0x151C, symBinAddr: 0x457B4, symSize: 0x34 }
  - { offset: 0xD33E8, size: 0x8, addend: 0x0, symName: '__ZN57_$LT$T$u20$as$u20$pyo3..conversion..FromPyObjectBound$GT$20from_py_object_bound17hb24d39188bbc8857E', symObjAddr: 0x1550, symBinAddr: 0x457E8, symSize: 0x34 }
  - { offset: 0xD341F, size: 0x8, addend: 0x0, symName: '__ZN57_$LT$T$u20$as$u20$pyo3..conversion..FromPyObjectBound$GT$20from_py_object_bound17hb4dc2c56db7158aaE', symObjAddr: 0x1584, symBinAddr: 0x4581C, symSize: 0x34 }
  - { offset: 0xD3456, size: 0x8, addend: 0x0, symName: '__ZN57_$LT$T$u20$as$u20$pyo3..conversion..FromPyObjectBound$GT$20from_py_object_bound17hbc2885b8e784906fE', symObjAddr: 0x15B8, symBinAddr: 0x45850, symSize: 0x34 }
  - { offset: 0xD348D, size: 0x8, addend: 0x0, symName: '__ZN57_$LT$T$u20$as$u20$pyo3..conversion..FromPyObjectBound$GT$20from_py_object_bound17hc11750c97cc6de59E', symObjAddr: 0x15EC, symBinAddr: 0x45884, symSize: 0x34 }
  - { offset: 0xD34C4, size: 0x8, addend: 0x0, symName: '__ZN57_$LT$T$u20$as$u20$pyo3..conversion..FromPyObjectBound$GT$20from_py_object_bound17hc47a2b7cbad61f38E', symObjAddr: 0x1620, symBinAddr: 0x458B8, symSize: 0x34 }
  - { offset: 0xD34FB, size: 0x8, addend: 0x0, symName: '__ZN57_$LT$T$u20$as$u20$pyo3..conversion..FromPyObjectBound$GT$20from_py_object_bound17hc616bdda4d5c73edE', symObjAddr: 0x1654, symBinAddr: 0x458EC, symSize: 0x34 }
  - { offset: 0xD3532, size: 0x8, addend: 0x0, symName: '__ZN57_$LT$T$u20$as$u20$pyo3..conversion..FromPyObjectBound$GT$20from_py_object_bound17hca39c95ad4b46856E', symObjAddr: 0x1688, symBinAddr: 0x45920, symSize: 0x34 }
  - { offset: 0xD3569, size: 0x8, addend: 0x0, symName: '__ZN57_$LT$T$u20$as$u20$pyo3..conversion..FromPyObjectBound$GT$20from_py_object_bound17hce26ecd9ffaad0b0E', symObjAddr: 0x16BC, symBinAddr: 0x45954, symSize: 0x34 }
  - { offset: 0xD35A0, size: 0x8, addend: 0x0, symName: '__ZN57_$LT$T$u20$as$u20$pyo3..conversion..FromPyObjectBound$GT$20from_py_object_bound17hcefb73b2fc25f454E', symObjAddr: 0x16F0, symBinAddr: 0x45988, symSize: 0x34 }
  - { offset: 0xD35D7, size: 0x8, addend: 0x0, symName: '__ZN57_$LT$T$u20$as$u20$pyo3..conversion..FromPyObjectBound$GT$20from_py_object_bound17hd8e3ac94af1404c5E', symObjAddr: 0x1724, symBinAddr: 0x459BC, symSize: 0x34 }
  - { offset: 0xD360E, size: 0x8, addend: 0x0, symName: '__ZN57_$LT$T$u20$as$u20$pyo3..conversion..FromPyObjectBound$GT$20from_py_object_bound17he09c2a1531db6ccdE', symObjAddr: 0x1758, symBinAddr: 0x459F0, symSize: 0x34 }
  - { offset: 0xD3645, size: 0x8, addend: 0x0, symName: '__ZN57_$LT$T$u20$as$u20$pyo3..conversion..FromPyObjectBound$GT$20from_py_object_bound17he20f93c7508d4a5eE', symObjAddr: 0x178C, symBinAddr: 0x45A24, symSize: 0x34 }
  - { offset: 0xD367C, size: 0x8, addend: 0x0, symName: '__ZN57_$LT$T$u20$as$u20$pyo3..conversion..FromPyObjectBound$GT$20from_py_object_bound17hea1cb62b813cee36E', symObjAddr: 0x17C0, symBinAddr: 0x45A58, symSize: 0x34 }
  - { offset: 0xD36B3, size: 0x8, addend: 0x0, symName: '__ZN57_$LT$T$u20$as$u20$pyo3..conversion..FromPyObjectBound$GT$20from_py_object_bound17hfba1e8c48e9d80f1E', symObjAddr: 0x17F4, symBinAddr: 0x45A8C, symSize: 0x34 }
  - { offset: 0xD36EA, size: 0x8, addend: 0x0, symName: '__ZN57_$LT$T$u20$as$u20$pyo3..conversion..FromPyObjectBound$GT$20from_py_object_bound17hfc7dbc2ffa4f1851E', symObjAddr: 0x1828, symBinAddr: 0x45AC0, symSize: 0x34 }
  - { offset: 0xD3721, size: 0x8, addend: 0x0, symName: '__ZN57_$LT$T$u20$as$u20$pyo3..conversion..FromPyObjectBound$GT$20from_py_object_bound17hfdfbab0a4b3ac98dE', symObjAddr: 0x185C, symBinAddr: 0x45AF4, symSize: 0x34 }
  - { offset: 0xD375E, size: 0x8, addend: 0x0, symName: '__ZN79_$LT$pyo3..pycell..PyRef$LT$T$GT$$u20$as$u20$pyo3..conversion..FromPyObject$GT$13extract_bound17h0a5ee2ab975668b6E', symObjAddr: 0x29C8, symBinAddr: 0x46C60, symSize: 0xA4 }
  - { offset: 0xD37B4, size: 0x8, addend: 0x0, symName: '__ZN79_$LT$pyo3..pycell..PyRef$LT$T$GT$$u20$as$u20$pyo3..conversion..FromPyObject$GT$13extract_bound17h182309dec5da8cf2E', symObjAddr: 0x2A6C, symBinAddr: 0x46D04, symSize: 0xA4 }
  - { offset: 0xD380A, size: 0x8, addend: 0x0, symName: '__ZN79_$LT$pyo3..pycell..PyRef$LT$T$GT$$u20$as$u20$pyo3..conversion..FromPyObject$GT$13extract_bound17h2c98f14e7cd12a5eE', symObjAddr: 0x2B10, symBinAddr: 0x46DA8, symSize: 0xA4 }
  - { offset: 0xD3860, size: 0x8, addend: 0x0, symName: '__ZN79_$LT$pyo3..pycell..PyRef$LT$T$GT$$u20$as$u20$pyo3..conversion..FromPyObject$GT$13extract_bound17h317804130982ed0aE', symObjAddr: 0x2BB4, symBinAddr: 0x46E4C, symSize: 0xA4 }
  - { offset: 0xD38B6, size: 0x8, addend: 0x0, symName: '__ZN79_$LT$pyo3..pycell..PyRef$LT$T$GT$$u20$as$u20$pyo3..conversion..FromPyObject$GT$13extract_bound17h450f50d26d912da3E', symObjAddr: 0x2C58, symBinAddr: 0x46EF0, symSize: 0xA4 }
  - { offset: 0xD390C, size: 0x8, addend: 0x0, symName: '__ZN79_$LT$pyo3..pycell..PyRef$LT$T$GT$$u20$as$u20$pyo3..conversion..FromPyObject$GT$13extract_bound17h62608c6f63f50fedE', symObjAddr: 0x2CFC, symBinAddr: 0x46F94, symSize: 0xA4 }
  - { offset: 0xD3962, size: 0x8, addend: 0x0, symName: '__ZN79_$LT$pyo3..pycell..PyRef$LT$T$GT$$u20$as$u20$pyo3..conversion..FromPyObject$GT$13extract_bound17h65b3f21b4e6e1e65E', symObjAddr: 0x2DA0, symBinAddr: 0x47038, symSize: 0xA4 }
  - { offset: 0xD39B8, size: 0x8, addend: 0x0, symName: '__ZN79_$LT$pyo3..pycell..PyRef$LT$T$GT$$u20$as$u20$pyo3..conversion..FromPyObject$GT$13extract_bound17h833c96606ce2a90aE', symObjAddr: 0x2E44, symBinAddr: 0x470DC, symSize: 0xA4 }
  - { offset: 0xD3A0E, size: 0x8, addend: 0x0, symName: '__ZN79_$LT$pyo3..pycell..PyRef$LT$T$GT$$u20$as$u20$pyo3..conversion..FromPyObject$GT$13extract_bound17h869ae23bfce5b364E', symObjAddr: 0x2EE8, symBinAddr: 0x47180, symSize: 0xA4 }
  - { offset: 0xD3A64, size: 0x8, addend: 0x0, symName: '__ZN79_$LT$pyo3..pycell..PyRef$LT$T$GT$$u20$as$u20$pyo3..conversion..FromPyObject$GT$13extract_bound17h96519e04c220f777E', symObjAddr: 0x2F8C, symBinAddr: 0x47224, symSize: 0xA4 }
  - { offset: 0xD3ABA, size: 0x8, addend: 0x0, symName: '__ZN79_$LT$pyo3..pycell..PyRef$LT$T$GT$$u20$as$u20$pyo3..conversion..FromPyObject$GT$13extract_bound17h9c2f771d9c78d29aE', symObjAddr: 0x3030, symBinAddr: 0x472C8, symSize: 0xA4 }
  - { offset: 0xD3B10, size: 0x8, addend: 0x0, symName: '__ZN79_$LT$pyo3..pycell..PyRef$LT$T$GT$$u20$as$u20$pyo3..conversion..FromPyObject$GT$13extract_bound17ha8105ef2d330b752E', symObjAddr: 0x30D4, symBinAddr: 0x4736C, symSize: 0xA4 }
  - { offset: 0xD3B66, size: 0x8, addend: 0x0, symName: '__ZN79_$LT$pyo3..pycell..PyRef$LT$T$GT$$u20$as$u20$pyo3..conversion..FromPyObject$GT$13extract_bound17hbe0135cebe34cc7eE', symObjAddr: 0x3178, symBinAddr: 0x47410, symSize: 0xA4 }
  - { offset: 0xD3BBC, size: 0x8, addend: 0x0, symName: '__ZN79_$LT$pyo3..pycell..PyRef$LT$T$GT$$u20$as$u20$pyo3..conversion..FromPyObject$GT$13extract_bound17hc3372b50a6d4b632E', symObjAddr: 0x321C, symBinAddr: 0x474B4, symSize: 0xA4 }
  - { offset: 0xD3C12, size: 0x8, addend: 0x0, symName: '__ZN79_$LT$pyo3..pycell..PyRef$LT$T$GT$$u20$as$u20$pyo3..conversion..FromPyObject$GT$13extract_bound17hcc1de1a16ec66943E', symObjAddr: 0x32C0, symBinAddr: 0x47558, symSize: 0xA4 }
  - { offset: 0xD3C68, size: 0x8, addend: 0x0, symName: '__ZN79_$LT$pyo3..pycell..PyRef$LT$T$GT$$u20$as$u20$pyo3..conversion..FromPyObject$GT$13extract_bound17hda70c28df31fb288E', symObjAddr: 0x3364, symBinAddr: 0x475FC, symSize: 0xA4 }
  - { offset: 0xD3CBE, size: 0x8, addend: 0x0, symName: '__ZN79_$LT$pyo3..pycell..PyRef$LT$T$GT$$u20$as$u20$pyo3..conversion..FromPyObject$GT$13extract_bound17he3e77e057c0a977fE', symObjAddr: 0x3408, symBinAddr: 0x476A0, symSize: 0xA4 }
  - { offset: 0xD3D14, size: 0x8, addend: 0x0, symName: '__ZN79_$LT$pyo3..pycell..PyRef$LT$T$GT$$u20$as$u20$pyo3..conversion..FromPyObject$GT$13extract_bound17heaf2285e44e1db4dE', symObjAddr: 0x34AC, symBinAddr: 0x47744, symSize: 0xA4 }
  - { offset: 0xD3D6A, size: 0x8, addend: 0x0, symName: '__ZN79_$LT$pyo3..pycell..PyRef$LT$T$GT$$u20$as$u20$pyo3..conversion..FromPyObject$GT$13extract_bound17hf35474086beb94b8E', symObjAddr: 0x3550, symBinAddr: 0x477E8, symSize: 0xA4 }
  - { offset: 0xD3DC0, size: 0x8, addend: 0x0, symName: '__ZN79_$LT$pyo3..pycell..PyRef$LT$T$GT$$u20$as$u20$pyo3..conversion..FromPyObject$GT$13extract_bound17hfa4acd2dd6f2e1c1E', symObjAddr: 0x35F4, symBinAddr: 0x4788C, symSize: 0xA4 }
  - { offset: 0xD3E16, size: 0x8, addend: 0x0, symName: '__ZN79_$LT$pyo3..pycell..PyRef$LT$T$GT$$u20$as$u20$pyo3..conversion..FromPyObject$GT$13extract_bound17hfbd6465416b67055E', symObjAddr: 0x3698, symBinAddr: 0x47930, symSize: 0xA4 }
  - { offset: 0xD3E72, size: 0x8, addend: 0x0, symName: '__ZN82_$LT$pyo3..pycell..PyRefMut$LT$T$GT$$u20$as$u20$pyo3..conversion..FromPyObject$GT$13extract_bound17h094b29930d683883E', symObjAddr: 0x373C, symBinAddr: 0x479D4, symSize: 0xA4 }
  - { offset: 0xD3EC8, size: 0x8, addend: 0x0, symName: '__ZN82_$LT$pyo3..pycell..PyRefMut$LT$T$GT$$u20$as$u20$pyo3..conversion..FromPyObject$GT$13extract_bound17h3b1ab2865b09be9dE', symObjAddr: 0x37E0, symBinAddr: 0x47A78, symSize: 0xA4 }
  - { offset: 0xD3F1E, size: 0x8, addend: 0x0, symName: '__ZN82_$LT$pyo3..pycell..PyRefMut$LT$T$GT$$u20$as$u20$pyo3..conversion..FromPyObject$GT$13extract_bound17h459afd685ea211d3E', symObjAddr: 0x3884, symBinAddr: 0x47B1C, symSize: 0xA4 }
  - { offset: 0xD3F74, size: 0x8, addend: 0x0, symName: '__ZN82_$LT$pyo3..pycell..PyRefMut$LT$T$GT$$u20$as$u20$pyo3..conversion..FromPyObject$GT$13extract_bound17h73fd064b6cb23ba0E', symObjAddr: 0x3928, symBinAddr: 0x47BC0, symSize: 0xA4 }
  - { offset: 0xD3FCA, size: 0x8, addend: 0x0, symName: '__ZN82_$LT$pyo3..pycell..PyRefMut$LT$T$GT$$u20$as$u20$pyo3..conversion..FromPyObject$GT$13extract_bound17h7a457bb5d30b1602E', symObjAddr: 0x39CC, symBinAddr: 0x47C64, symSize: 0xA4 }
  - { offset: 0xD4020, size: 0x8, addend: 0x0, symName: '__ZN82_$LT$pyo3..pycell..PyRefMut$LT$T$GT$$u20$as$u20$pyo3..conversion..FromPyObject$GT$13extract_bound17h8529f30e57440509E', symObjAddr: 0x3A70, symBinAddr: 0x47D08, symSize: 0xA4 }
  - { offset: 0xD4076, size: 0x8, addend: 0x0, symName: '__ZN82_$LT$pyo3..pycell..PyRefMut$LT$T$GT$$u20$as$u20$pyo3..conversion..FromPyObject$GT$13extract_bound17h880c7db392b2154aE', symObjAddr: 0x3B14, symBinAddr: 0x47DAC, symSize: 0xA4 }
  - { offset: 0xD40CC, size: 0x8, addend: 0x0, symName: '__ZN82_$LT$pyo3..pycell..PyRefMut$LT$T$GT$$u20$as$u20$pyo3..conversion..FromPyObject$GT$13extract_bound17h895c546cb4882f54E', symObjAddr: 0x3BB8, symBinAddr: 0x47E50, symSize: 0xA4 }
  - { offset: 0xD4122, size: 0x8, addend: 0x0, symName: '__ZN82_$LT$pyo3..pycell..PyRefMut$LT$T$GT$$u20$as$u20$pyo3..conversion..FromPyObject$GT$13extract_bound17h94dc6c9ec752aed0E', symObjAddr: 0x3C5C, symBinAddr: 0x47EF4, symSize: 0xA4 }
  - { offset: 0xD4178, size: 0x8, addend: 0x0, symName: '__ZN82_$LT$pyo3..pycell..PyRefMut$LT$T$GT$$u20$as$u20$pyo3..conversion..FromPyObject$GT$13extract_bound17ha487c259bf09e79cE', symObjAddr: 0x3D00, symBinAddr: 0x47F98, symSize: 0xA4 }
  - { offset: 0xD41CE, size: 0x8, addend: 0x0, symName: '__ZN82_$LT$pyo3..pycell..PyRefMut$LT$T$GT$$u20$as$u20$pyo3..conversion..FromPyObject$GT$13extract_bound17ha65ac8837c9b6b43E', symObjAddr: 0x3DA4, symBinAddr: 0x4803C, symSize: 0xA4 }
  - { offset: 0xD4224, size: 0x8, addend: 0x0, symName: '__ZN82_$LT$pyo3..pycell..PyRefMut$LT$T$GT$$u20$as$u20$pyo3..conversion..FromPyObject$GT$13extract_bound17hbb75b56fb3180a44E', symObjAddr: 0x3E48, symBinAddr: 0x480E0, symSize: 0xA4 }
  - { offset: 0xD427A, size: 0x8, addend: 0x0, symName: '__ZN82_$LT$pyo3..pycell..PyRefMut$LT$T$GT$$u20$as$u20$pyo3..conversion..FromPyObject$GT$13extract_bound17hcb68316558db6f8bE', symObjAddr: 0x3EEC, symBinAddr: 0x48184, symSize: 0xA4 }
  - { offset: 0xD42D0, size: 0x8, addend: 0x0, symName: '__ZN82_$LT$pyo3..pycell..PyRefMut$LT$T$GT$$u20$as$u20$pyo3..conversion..FromPyObject$GT$13extract_bound17hcc26921f643fc380E', symObjAddr: 0x3F90, symBinAddr: 0x48228, symSize: 0xA4 }
  - { offset: 0xD4326, size: 0x8, addend: 0x0, symName: '__ZN82_$LT$pyo3..pycell..PyRefMut$LT$T$GT$$u20$as$u20$pyo3..conversion..FromPyObject$GT$13extract_bound17hd869065ed5f88a29E', symObjAddr: 0x4034, symBinAddr: 0x482CC, symSize: 0xA4 }
  - { offset: 0xD437C, size: 0x8, addend: 0x0, symName: '__ZN82_$LT$pyo3..pycell..PyRefMut$LT$T$GT$$u20$as$u20$pyo3..conversion..FromPyObject$GT$13extract_bound17he65774b5de5c08eaE', symObjAddr: 0x40D8, symBinAddr: 0x48370, symSize: 0xA4 }
  - { offset: 0xD43D2, size: 0x8, addend: 0x0, symName: '__ZN82_$LT$pyo3..pycell..PyRefMut$LT$T$GT$$u20$as$u20$pyo3..conversion..FromPyObject$GT$13extract_bound17heeb3cdf5494231c6E', symObjAddr: 0x417C, symBinAddr: 0x48414, symSize: 0xA4 }
  - { offset: 0xD4FA8, size: 0x8, addend: 0x0, symName: '__ZN4pyo36pycell14PyRef$LT$T$GT$10try_borrow17h07e96f21507a100bE', symObjAddr: 0x0, symBinAddr: 0x44298, symSize: 0x4C }
  - { offset: 0xD4FFF, size: 0x8, addend: 0x0, symName: '__ZN4pyo36pycell14PyRef$LT$T$GT$10try_borrow17h17132990ea20af6aE', symObjAddr: 0x4C, symBinAddr: 0x442E4, symSize: 0x4C }
  - { offset: 0xD5056, size: 0x8, addend: 0x0, symName: '__ZN4pyo36pycell14PyRef$LT$T$GT$10try_borrow17h2da312277a543ae7E', symObjAddr: 0x98, symBinAddr: 0x44330, symSize: 0x4C }
  - { offset: 0xD50AD, size: 0x8, addend: 0x0, symName: '__ZN4pyo36pycell14PyRef$LT$T$GT$10try_borrow17h3a7ff82c89e2c207E', symObjAddr: 0xE4, symBinAddr: 0x4437C, symSize: 0x4C }
  - { offset: 0xD5104, size: 0x8, addend: 0x0, symName: '__ZN4pyo36pycell14PyRef$LT$T$GT$10try_borrow17h40b4c244d48caeb6E', symObjAddr: 0x130, symBinAddr: 0x443C8, symSize: 0x4C }
  - { offset: 0xD515B, size: 0x8, addend: 0x0, symName: '__ZN4pyo36pycell14PyRef$LT$T$GT$10try_borrow17h420122e13fd3e2feE', symObjAddr: 0x17C, symBinAddr: 0x44414, symSize: 0x4C }
  - { offset: 0xD51B2, size: 0x8, addend: 0x0, symName: '__ZN4pyo36pycell14PyRef$LT$T$GT$10try_borrow17h4d1288d9b3beac1cE', symObjAddr: 0x1C8, symBinAddr: 0x44460, symSize: 0x4C }
  - { offset: 0xD54F4, size: 0x8, addend: 0x0, symName: '__ZN4pyo36pycell14PyRef$LT$T$GT$10try_borrow17h51f81e60505b608dE', symObjAddr: 0x214, symBinAddr: 0x444AC, symSize: 0x4C }
  - { offset: 0xD554B, size: 0x8, addend: 0x0, symName: '__ZN4pyo36pycell14PyRef$LT$T$GT$10try_borrow17h5977a3f3b57b7a34E', symObjAddr: 0x260, symBinAddr: 0x444F8, symSize: 0x4C }
  - { offset: 0xD55A2, size: 0x8, addend: 0x0, symName: '__ZN4pyo36pycell14PyRef$LT$T$GT$10try_borrow17h5ade57d6de55e6a3E', symObjAddr: 0x2AC, symBinAddr: 0x44544, symSize: 0x4C }
  - { offset: 0xD55F9, size: 0x8, addend: 0x0, symName: '__ZN4pyo36pycell14PyRef$LT$T$GT$10try_borrow17h76c86b1ac416b546E', symObjAddr: 0x2F8, symBinAddr: 0x44590, symSize: 0x4C }
  - { offset: 0xD5650, size: 0x8, addend: 0x0, symName: '__ZN4pyo36pycell14PyRef$LT$T$GT$10try_borrow17h85941b601c6e29d8E', symObjAddr: 0x344, symBinAddr: 0x445DC, symSize: 0x4C }
  - { offset: 0xD56A7, size: 0x8, addend: 0x0, symName: '__ZN4pyo36pycell14PyRef$LT$T$GT$10try_borrow17h871994930208b595E', symObjAddr: 0x390, symBinAddr: 0x44628, symSize: 0x4C }
  - { offset: 0xD56FE, size: 0x8, addend: 0x0, symName: '__ZN4pyo36pycell14PyRef$LT$T$GT$10try_borrow17h87496be3119b06c7E', symObjAddr: 0x3DC, symBinAddr: 0x44674, symSize: 0x4C }
  - { offset: 0xD5755, size: 0x8, addend: 0x0, symName: '__ZN4pyo36pycell14PyRef$LT$T$GT$10try_borrow17haa0a917ee8d069f0E', symObjAddr: 0x428, symBinAddr: 0x446C0, symSize: 0x4C }
  - { offset: 0xD57AC, size: 0x8, addend: 0x0, symName: '__ZN4pyo36pycell14PyRef$LT$T$GT$10try_borrow17haa1cf99a8f76358eE', symObjAddr: 0x474, symBinAddr: 0x4470C, symSize: 0x4C }
  - { offset: 0xD5803, size: 0x8, addend: 0x0, symName: '__ZN4pyo36pycell14PyRef$LT$T$GT$10try_borrow17hbd8e50c6bfe07e8aE', symObjAddr: 0x4C0, symBinAddr: 0x44758, symSize: 0x4C }
  - { offset: 0xD585A, size: 0x8, addend: 0x0, symName: '__ZN4pyo36pycell14PyRef$LT$T$GT$10try_borrow17hcfeb04de518c9ff1E', symObjAddr: 0x50C, symBinAddr: 0x447A4, symSize: 0x4C }
  - { offset: 0xD58F9, size: 0x8, addend: 0x0, symName: '__ZN4pyo36pycell14PyRef$LT$T$GT$10try_borrow17heb7d2dbf999206e3E', symObjAddr: 0x558, symBinAddr: 0x447F0, symSize: 0x4C }
  - { offset: 0xD5950, size: 0x8, addend: 0x0, symName: '__ZN4pyo36pycell14PyRef$LT$T$GT$10try_borrow17hf2ba7af0fab0cb4fE', symObjAddr: 0x5A4, symBinAddr: 0x4483C, symSize: 0x4C }
  - { offset: 0xD59A7, size: 0x8, addend: 0x0, symName: '__ZN4pyo36pycell14PyRef$LT$T$GT$10try_borrow17hfe7d489875fb3664E', symObjAddr: 0x5F0, symBinAddr: 0x44888, symSize: 0x4C }
  - { offset: 0xD59F1, size: 0x8, addend: 0x0, symName: '__ZN4pyo36pycell17PyRefMut$LT$T$GT$10try_borrow17h1329b7ced8c41b56E', symObjAddr: 0x930, symBinAddr: 0x44BC8, symSize: 0x4C }
  - { offset: 0xD5A3B, size: 0x8, addend: 0x0, symName: '__ZN4pyo36pycell17PyRefMut$LT$T$GT$10try_borrow17h2387105e1b18b6a4E', symObjAddr: 0x97C, symBinAddr: 0x44C14, symSize: 0x4C }
  - { offset: 0xD5A85, size: 0x8, addend: 0x0, symName: '__ZN4pyo36pycell17PyRefMut$LT$T$GT$10try_borrow17h3c105830ec543463E', symObjAddr: 0x9C8, symBinAddr: 0x44C60, symSize: 0x4C }
  - { offset: 0xD5ACF, size: 0x8, addend: 0x0, symName: '__ZN4pyo36pycell17PyRefMut$LT$T$GT$10try_borrow17h537bd99bed07ea56E', symObjAddr: 0xA14, symBinAddr: 0x44CAC, symSize: 0x4C }
  - { offset: 0xD5B19, size: 0x8, addend: 0x0, symName: '__ZN4pyo36pycell17PyRefMut$LT$T$GT$10try_borrow17h5c218f2770a78c37E', symObjAddr: 0xA60, symBinAddr: 0x44CF8, symSize: 0x4C }
  - { offset: 0xD5B63, size: 0x8, addend: 0x0, symName: '__ZN4pyo36pycell17PyRefMut$LT$T$GT$10try_borrow17h69debc3aeab4ed7bE', symObjAddr: 0xAAC, symBinAddr: 0x44D44, symSize: 0x4C }
  - { offset: 0xD5BAD, size: 0x8, addend: 0x0, symName: '__ZN4pyo36pycell17PyRefMut$LT$T$GT$10try_borrow17h6a79e812ae7cd4f0E', symObjAddr: 0xAF8, symBinAddr: 0x44D90, symSize: 0x4C }
  - { offset: 0xD5BF7, size: 0x8, addend: 0x0, symName: '__ZN4pyo36pycell17PyRefMut$LT$T$GT$10try_borrow17h70fd1f325b7cf88aE', symObjAddr: 0xB44, symBinAddr: 0x44DDC, symSize: 0x4C }
  - { offset: 0xD5C41, size: 0x8, addend: 0x0, symName: '__ZN4pyo36pycell17PyRefMut$LT$T$GT$10try_borrow17h75e204e55e5281a5E', symObjAddr: 0xB90, symBinAddr: 0x44E28, symSize: 0x4C }
  - { offset: 0xD5C8B, size: 0x8, addend: 0x0, symName: '__ZN4pyo36pycell17PyRefMut$LT$T$GT$10try_borrow17h8a99be16def8795dE', symObjAddr: 0xBDC, symBinAddr: 0x44E74, symSize: 0x4C }
  - { offset: 0xD5CD5, size: 0x8, addend: 0x0, symName: '__ZN4pyo36pycell17PyRefMut$LT$T$GT$10try_borrow17h8faf8cc28c53a67fE', symObjAddr: 0xC28, symBinAddr: 0x44EC0, symSize: 0x4C }
  - { offset: 0xD5D1F, size: 0x8, addend: 0x0, symName: '__ZN4pyo36pycell17PyRefMut$LT$T$GT$10try_borrow17h9c84ce843ed67169E', symObjAddr: 0xC74, symBinAddr: 0x44F0C, symSize: 0x4C }
  - { offset: 0xD5D69, size: 0x8, addend: 0x0, symName: '__ZN4pyo36pycell17PyRefMut$LT$T$GT$10try_borrow17hca243a158c22a09bE', symObjAddr: 0xCC0, symBinAddr: 0x44F58, symSize: 0x4C }
  - { offset: 0xD5DB3, size: 0x8, addend: 0x0, symName: '__ZN4pyo36pycell17PyRefMut$LT$T$GT$10try_borrow17hcbb4f89d6181b046E', symObjAddr: 0xD0C, symBinAddr: 0x44FA4, symSize: 0x4C }
  - { offset: 0xD5DFD, size: 0x8, addend: 0x0, symName: '__ZN4pyo36pycell17PyRefMut$LT$T$GT$10try_borrow17hd0b7d2ae1c752495E', symObjAddr: 0xD58, symBinAddr: 0x44FF0, symSize: 0x4C }
  - { offset: 0xD5E47, size: 0x8, addend: 0x0, symName: '__ZN4pyo36pycell17PyRefMut$LT$T$GT$10try_borrow17hd81cb45250784dd4E', symObjAddr: 0xDA4, symBinAddr: 0x4503C, symSize: 0x4C }
  - { offset: 0xD5E91, size: 0x8, addend: 0x0, symName: '__ZN4pyo36pycell17PyRefMut$LT$T$GT$10try_borrow17hf3603fbdcb61635fE', symObjAddr: 0xDF0, symBinAddr: 0x45088, symSize: 0x4C }
  - { offset: 0xD64E8, size: 0x8, addend: 0x0, symName: '__ZN102_$LT$core..iter..adapters..map..Map$LT$I$C$F$GT$$u20$as$u20$core..iter..traits..iterator..Iterator$GT$4fold17h6c0c98f9637aa69fE', symObjAddr: 0x0, symBinAddr: 0x484B8, symSize: 0x44 }
  - { offset: 0xD6E12, size: 0x8, addend: 0x0, symName: '__ZN4core4iter8adapters3map8map_fold28_$u7b$$u7b$closure$u7d$$u7d$17h0f75353b4bab2bb3E', symObjAddr: 0xE78, symBinAddr: 0x49330, symSize: 0x84 }
  - { offset: 0xD6E97, size: 0x8, addend: 0x0, symName: '__ZN4core4iter8adapters3map8map_fold28_$u7b$$u7b$closure$u7d$$u7d$17h2faaa4c86a982d42E', symObjAddr: 0xEFC, symBinAddr: 0x493B4, symSize: 0x8C }
  - { offset: 0xD6F1C, size: 0x8, addend: 0x0, symName: '__ZN4core4iter8adapters3map8map_fold28_$u7b$$u7b$closure$u7d$$u7d$17h40b7e2782852debfE', symObjAddr: 0xF88, symBinAddr: 0x49440, symSize: 0x8C }
  - { offset: 0xD6FA1, size: 0x8, addend: 0x0, symName: '__ZN4core4iter8adapters3map8map_fold28_$u7b$$u7b$closure$u7d$$u7d$17h5ac637a0b04e6dadE', symObjAddr: 0x1014, symBinAddr: 0x494CC, symSize: 0x7C }
  - { offset: 0xD7026, size: 0x8, addend: 0x0, symName: '__ZN4core4iter8adapters3map8map_fold28_$u7b$$u7b$closure$u7d$$u7d$17h9c15bde5ca94e92bE', symObjAddr: 0x1090, symBinAddr: 0x49548, symSize: 0x8C }
  - { offset: 0xD70AB, size: 0x8, addend: 0x0, symName: '__ZN4core4iter8adapters3map8map_fold28_$u7b$$u7b$closure$u7d$$u7d$17hd90c3536e6e8e31aE', symObjAddr: 0x111C, symBinAddr: 0x495D4, symSize: 0x84 }
  - { offset: 0xD7130, size: 0x8, addend: 0x0, symName: '__ZN4core4iter8adapters3map8map_fold28_$u7b$$u7b$closure$u7d$$u7d$17hf41c896036fd04f2E', symObjAddr: 0x11A0, symBinAddr: 0x49658, symSize: 0x8C }
  - { offset: 0xD71BB, size: 0x8, addend: 0x0, symName: '__ZN102_$LT$core..iter..adapters..map..Map$LT$I$C$F$GT$$u20$as$u20$core..iter..traits..iterator..Iterator$GT$4fold17h6c0c98f9637aa69fE', symObjAddr: 0x0, symBinAddr: 0x484B8, symSize: 0x44 }
  - { offset: 0xD7253, size: 0x8, addend: 0x0, symName: '__ZN102_$LT$core..iter..adapters..map..Map$LT$I$C$F$GT$$u20$as$u20$core..iter..traits..iterator..Iterator$GT$4fold17h8bf5e6515329dbe3E', symObjAddr: 0x44, symBinAddr: 0x484FC, symSize: 0x44 }
  - { offset: 0xD72EB, size: 0x8, addend: 0x0, symName: '__ZN102_$LT$core..iter..adapters..map..Map$LT$I$C$F$GT$$u20$as$u20$core..iter..traits..iterator..Iterator$GT$4fold17ha09290eac5d3e4d0E', symObjAddr: 0x88, symBinAddr: 0x48540, symSize: 0x44 }
  - { offset: 0xD7383, size: 0x8, addend: 0x0, symName: '__ZN102_$LT$core..iter..adapters..map..Map$LT$I$C$F$GT$$u20$as$u20$core..iter..traits..iterator..Iterator$GT$4fold17hae7f8689afbb415bE', symObjAddr: 0xCC, symBinAddr: 0x48584, symSize: 0x44 }
  - { offset: 0xD741B, size: 0x8, addend: 0x0, symName: '__ZN102_$LT$core..iter..adapters..map..Map$LT$I$C$F$GT$$u20$as$u20$core..iter..traits..iterator..Iterator$GT$4fold17hc1cb5bf9751a0dcfE', symObjAddr: 0x110, symBinAddr: 0x485C8, symSize: 0x44 }
  - { offset: 0xD74B3, size: 0x8, addend: 0x0, symName: '__ZN102_$LT$core..iter..adapters..map..Map$LT$I$C$F$GT$$u20$as$u20$core..iter..traits..iterator..Iterator$GT$4fold17hdb87e2bf23de1a93E', symObjAddr: 0x154, symBinAddr: 0x4860C, symSize: 0x44 }
  - { offset: 0xD754B, size: 0x8, addend: 0x0, symName: '__ZN102_$LT$core..iter..adapters..map..Map$LT$I$C$F$GT$$u20$as$u20$core..iter..traits..iterator..Iterator$GT$4fold17he96a09b609e5dce9E', symObjAddr: 0x198, symBinAddr: 0x48650, symSize: 0x44 }
  - { offset: 0xD75E3, size: 0x8, addend: 0x0, symName: '__ZN102_$LT$core..iter..adapters..map..Map$LT$I$C$F$GT$$u20$as$u20$core..iter..traits..iterator..Iterator$GT$4next17h93b417692346862fE', symObjAddr: 0x1DC, symBinAddr: 0x48694, symSize: 0xB0 }
  - { offset: 0xD767F, size: 0x8, addend: 0x0, symName: '__ZN102_$LT$core..iter..adapters..map..Map$LT$I$C$F$GT$$u20$as$u20$core..iter..traits..iterator..Iterator$GT$4next17hb13d8e423278eb41E', symObjAddr: 0x28C, symBinAddr: 0x48744, symSize: 0xB0 }
  - { offset: 0xD771B, size: 0x8, addend: 0x0, symName: '__ZN102_$LT$core..iter..adapters..map..Map$LT$I$C$F$GT$$u20$as$u20$core..iter..traits..iterator..Iterator$GT$4next17heda0861cd1902cecE', symObjAddr: 0x33C, symBinAddr: 0x487F4, symSize: 0x94 }
  - { offset: 0xD77B7, size: 0x8, addend: 0x0, symName: '__ZN102_$LT$core..iter..adapters..map..Map$LT$I$C$F$GT$$u20$as$u20$core..iter..traits..iterator..Iterator$GT$8try_fold17h090ac13df1fff17bE', symObjAddr: 0x3D0, symBinAddr: 0x48888, symSize: 0x58 }
  - { offset: 0xD785A, size: 0x8, addend: 0x0, symName: '__ZN102_$LT$core..iter..adapters..map..Map$LT$I$C$F$GT$$u20$as$u20$core..iter..traits..iterator..Iterator$GT$8try_fold17h48ca4bfa614a2de1E', symObjAddr: 0x428, symBinAddr: 0x488E0, symSize: 0x54 }
  - { offset: 0xD78FD, size: 0x8, addend: 0x0, symName: '__ZN102_$LT$core..iter..adapters..map..Map$LT$I$C$F$GT$$u20$as$u20$core..iter..traits..iterator..Iterator$GT$8try_fold17haebafd2524f519d3E', symObjAddr: 0x47C, symBinAddr: 0x48934, symSize: 0x58 }
  - { offset: 0xD79A0, size: 0x8, addend: 0x0, symName: '__ZN102_$LT$core..iter..adapters..map..Map$LT$I$C$F$GT$$u20$as$u20$core..iter..traits..iterator..Iterator$GT$8try_fold17hbaf297eed3927f7dE', symObjAddr: 0x4D4, symBinAddr: 0x4898C, symSize: 0x54 }
  - { offset: 0xD7A43, size: 0x8, addend: 0x0, symName: '__ZN102_$LT$core..iter..adapters..map..Map$LT$I$C$F$GT$$u20$as$u20$core..iter..traits..iterator..Iterator$GT$8try_fold17hf55c5e8381b92885E', symObjAddr: 0x528, symBinAddr: 0x489E0, symSize: 0x58 }
  - { offset: 0xD7AE6, size: 0x8, addend: 0x0, symName: '__ZN102_$LT$core..iter..adapters..map..Map$LT$I$C$F$GT$$u20$as$u20$core..iter..traits..iterator..Iterator$GT$9size_hint17h0744854fae925591E', symObjAddr: 0x580, symBinAddr: 0x48A38, symSize: 0x24 }
  - { offset: 0xD7B2D, size: 0x8, addend: 0x0, symName: '__ZN102_$LT$core..iter..adapters..map..Map$LT$I$C$F$GT$$u20$as$u20$core..iter..traits..iterator..Iterator$GT$9size_hint17h277b55cd5acb747eE', symObjAddr: 0x5A4, symBinAddr: 0x48A5C, symSize: 0x24 }
  - { offset: 0xD7B74, size: 0x8, addend: 0x0, symName: '__ZN102_$LT$core..iter..adapters..map..Map$LT$I$C$F$GT$$u20$as$u20$core..iter..traits..iterator..Iterator$GT$9size_hint17h2982378adce068fbE', symObjAddr: 0x5C8, symBinAddr: 0x48A80, symSize: 0x24 }
  - { offset: 0xD7BBB, size: 0x8, addend: 0x0, symName: '__ZN102_$LT$core..iter..adapters..map..Map$LT$I$C$F$GT$$u20$as$u20$core..iter..traits..iterator..Iterator$GT$9size_hint17h4b662486bb404c54E', symObjAddr: 0x5EC, symBinAddr: 0x48AA4, symSize: 0x24 }
